TN:
SF:/home/oresky/school/nanonote/nanonote/lcov_build/src/BaseSettings.cpp
FN:4,_ZN12BaseSettingsC2EP7QObject
FN:9,_ZNK12BaseSettings11alwaysOnTopEv
FN:12,_ZN12BaseSettings14setAlwaysOnTopEb
FN:22,_ZNK12BaseSettings4fontEv
FN:25,_ZN12BaseSettings7setFontERK5QFont
FN:35,_ZNK12BaseSettings8geometryEv
FN:38,_ZN12BaseSettings11setGeometryERK5QRect
FNDA:0,_ZN12BaseSettingsC2EP7QObject
FNDA:0,_ZN12BaseSettings14setAlwaysOnTopEb
FNDA:0,_ZN12BaseSettings11setGeometryERK5QRect
FNDA:0,_ZNK12BaseSettings4fontEv
FNDA:0,_ZN12BaseSettings7setFontERK5QFont
FNDA:0,_ZNK12BaseSettings11alwaysOnTopEv
FNDA:0,_ZNK12BaseSettings8geometryEv
FNF:7
FNH:0
DA:4,0
DA:5,0
DA:6,0
DA:9,0
DA:10,0
DA:12,0
DA:14,0
DA:16,0
DA:18,0
DA:19,0
DA:22,0
DA:23,0
DA:25,0
DA:27,0
DA:29,0
DA:31,0
DA:32,0
DA:35,0
DA:36,0
DA:38,0
DA:40,0
DA:42,0
DA:44,0
DA:45,0
LF:24
LH:0
end_of_record
TN:
SF:/home/oresky/school/nanonote/nanonote/lcov_build/src/moc_BaseSettings.cpp
FN:86,_ZN12BaseSettings18qt_static_metacallEP7QObjectN11QMetaObject4CallEiPPv
FN:157,_ZNK12BaseSettings10metaObjectEv
FN:162,_ZN12BaseSettings11qt_metacastEPKc
FN:170,_ZN12BaseSettings11qt_metacallEN11QMetaObject4CallEiPPv
FN:205,_ZN12BaseSettings18alwaysOnTopChangedEb
FN:212,_ZN12BaseSettings11fontChangedERK5QFont
FN:219,_ZN12BaseSettings15geometryChangedERK5QRect
FNDA:0,_ZN12BaseSettings11fontChangedERK5QFont
FNDA:0,_ZN12BaseSettings15geometryChangedERK5QRect
FNDA:0,_ZN12BaseSettings11qt_metacallEN11QMetaObject4CallEiPPv
FNDA:0,_ZN12BaseSettings18qt_static_metacallEP7QObjectN11QMetaObject4CallEiPPv
FNDA:0,_ZN12BaseSettings11qt_metacastEPKc
FNDA:0,_ZNK12BaseSettings10metaObjectEv
FNDA:0,_ZN12BaseSettings18alwaysOnTopChangedEb
FNF:7
FNH:0
DA:86,0
DA:88,0
DA:89,0
DA:91,0
DA:92,0
DA:93,0
DA:94,0
DA:95,0
DA:97,0
DA:98,0
DA:101,0
DA:102,0
DA:103,0
DA:108,0
DA:109,0
DA:110,0
DA:115,0
DA:116,0
DA:117,0
DA:122,0
DA:123,0
DA:125,0
DA:126,0
DA:127,0
DA:128,0
DA:129,0
DA:130,0
DA:132,0
DA:133,0
DA:135,0
DA:136,0
DA:137,0
DA:138,0
DA:139,0
DA:140,0
DA:157,0
DA:159,0
DA:162,0
DA:164,0
DA:165,0
DA:166,0
DA:167,0
DA:170,0
DA:172,0
DA:173,0
DA:174,0
DA:175,0
DA:176,0
DA:177,0
DA:178,0
DA:179,0
DA:180,0
DA:181,0
DA:182,0
DA:185,0
DA:186,0
DA:187,0
DA:188,0
DA:189,0
DA:190,0
DA:191,0
DA:192,0
DA:193,0
DA:194,0
DA:195,0
DA:196,0
DA:197,0
DA:198,0
DA:201,0
DA:205,0
DA:207,0
DA:208,0
DA:209,0
DA:212,0
DA:214,0
DA:215,0
DA:216,0
DA:219,0
DA:221,0
DA:222,0
DA:223,0
LF:81
LH:0
end_of_record
TN:
SF:/home/oresky/school/nanonote/nanonote/lcov_build/src/nanonotelib_autogen/EWIEGA46WW/moc_IndentExtension.cpp
FN:57,_ZN15IndentExtension18qt_static_metacallEP7QObjectN11QMetaObject4CallEiPPv
FN:75,_ZNK15IndentExtension10metaObjectEv
FN:80,_ZN15IndentExtension11qt_metacastEPKc
FN:88,_ZN15IndentExtension11qt_metacallEN11QMetaObject4CallEiPPv
FNDA:0,_ZN15IndentExtension11qt_metacastEPKc
FNDA:0,_ZN15IndentExtension11qt_metacallEN11QMetaObject4CallEiPPv
FNDA:28,_ZNK15IndentExtension10metaObjectEv
FNDA:0,_ZN15IndentExtension18qt_static_metacallEP7QObjectN11QMetaObject4CallEiPPv
FNF:4
FNH:1
DA:57,0
DA:63,0
DA:75,28
DA:77,28
DA:80,0
DA:82,0
DA:83,0
DA:84,0
DA:85,0
DA:88,0
DA:90,0
DA:91,0
LF:12
LH:2
end_of_record
TN:
SF:/home/oresky/school/nanonote/nanonote/lcov_build/src/nanonotelib_autogen/EWIEGA46WW/moc_LinkExtension.cpp
FN:57,_ZN13LinkExtension18qt_static_metacallEP7QObjectN11QMetaObject4CallEiPPv
FN:75,_ZNK13LinkExtension10metaObjectEv
FN:80,_ZN13LinkExtension11qt_metacastEPKc
FN:88,_ZN13LinkExtension11qt_metacallEN11QMetaObject4CallEiPPv
FNDA:0,_ZN13LinkExtension18qt_static_metacallEP7QObjectN11QMetaObject4CallEiPPv
FNDA:0,_ZN13LinkExtension11qt_metacastEPKc
FNDA:0,_ZNK13LinkExtension10metaObjectEv
FNDA:0,_ZN13LinkExtension11qt_metacallEN11QMetaObject4CallEiPPv
FNF:4
FNH:0
DA:57,0
DA:63,0
DA:75,0
DA:77,0
DA:80,0
DA:82,0
DA:83,0
DA:84,0
DA:85,0
DA:88,0
DA:90,0
DA:91,0
LF:12
LH:0
end_of_record
TN:
SF:/home/oresky/school/nanonote/nanonote/lcov_build/src/nanonotelib_autogen/EWIEGA46WW/moc_MainWindow.cpp
FN:57,_ZN10MainWindow18qt_static_metacallEP7QObjectN11QMetaObject4CallEiPPv
FN:75,_ZNK10MainWindow10metaObjectEv
FN:80,_ZN10MainWindow11qt_metacastEPKc
FN:88,_ZN10MainWindow11qt_metacallEN11QMetaObject4CallEiPPv
FNDA:0,_ZN10MainWindow11qt_metacallEN11QMetaObject4CallEiPPv
FNDA:0,_ZN10MainWindow18qt_static_metacallEP7QObjectN11QMetaObject4CallEiPPv
FNDA:0,_ZN10MainWindow11qt_metacastEPKc
FNDA:0,_ZNK10MainWindow10metaObjectEv
FNF:4
FNH:0
DA:57,0
DA:63,0
DA:75,0
DA:77,0
DA:80,0
DA:82,0
DA:83,0
DA:84,0
DA:85,0
DA:88,0
DA:90,0
DA:91,0
LF:12
LH:0
end_of_record
TN:
SF:/home/oresky/school/nanonote/nanonote/lcov_build/src/nanonotelib_autogen/EWIEGA46WW/moc_SearchWidget.cpp
FN:65,_ZN12SearchWidget18qt_static_metacallEP7QObjectN11QMetaObject4CallEiPPv
FN:97,_ZNK12SearchWidget10metaObjectEv
FN:102,_ZN12SearchWidget11qt_metacastEPKc
FN:110,_ZN12SearchWidget11qt_metacallEN11QMetaObject4CallEiPPv
FN:128,_ZN12SearchWidget17closeSearchDialogEv
FNDA:0,_ZN12SearchWidget17closeSearchDialogEv
FNDA:0,_ZNK12SearchWidget10metaObjectEv
FNDA:0,_ZN12SearchWidget11qt_metacastEPKc
FNDA:0,_ZN12SearchWidget18qt_static_metacallEP7QObjectN11QMetaObject4CallEiPPv
FNDA:0,_ZN12SearchWidget11qt_metacallEN11QMetaObject4CallEiPPv
FNF:5
FNH:0
DA:65,0
DA:67,0
DA:68,0
DA:70,0
DA:71,0
DA:72,0
DA:74,0
DA:75,0
DA:78,0
DA:79,0
DA:80,0
DA:97,0
DA:99,0
DA:102,0
DA:104,0
DA:105,0
DA:106,0
DA:107,0
DA:110,0
DA:112,0
DA:113,0
DA:114,0
DA:115,0
DA:116,0
DA:117,0
DA:118,0
DA:119,0
DA:120,0
DA:121,0
DA:122,0
DA:124,0
DA:128,0
DA:130,0
DA:131,0
LF:34
LH:0
end_of_record
TN:
SF:/home/oresky/school/nanonote/nanonote/lcov_build/src/nanonotelib_autogen/EWIEGA46WW/moc_Settings.cpp
FN:57,_ZN8Settings18qt_static_metacallEP7QObjectN11QMetaObject4CallEiPPv
FN:75,_ZNK8Settings10metaObjectEv
FN:80,_ZN8Settings11qt_metacastEPKc
FN:88,_ZN8Settings11qt_metacallEN11QMetaObject4CallEiPPv
FNDA:0,_ZN8Settings11qt_metacastEPKc
FNDA:0,_ZN8Settings11qt_metacallEN11QMetaObject4CallEiPPv
FNDA:0,_ZNK8Settings10metaObjectEv
FNDA:0,_ZN8Settings18qt_static_metacallEP7QObjectN11QMetaObject4CallEiPPv
FNF:4
FNH:0
DA:57,0
DA:63,0
DA:75,0
DA:77,0
DA:80,0
DA:82,0
DA:83,0
DA:84,0
DA:85,0
DA:88,0
DA:90,0
DA:91,0
LF:12
LH:0
end_of_record
TN:
SF:/home/oresky/school/nanonote/nanonote/lcov_build/src/nanonotelib_autogen/EWIEGA46WW/moc_SettingsDialog.cpp
FN:57,_ZN14SettingsDialog18qt_static_metacallEP7QObjectN11QMetaObject4CallEiPPv
FN:75,_ZNK14SettingsDialog10metaObjectEv
FN:80,_ZN14SettingsDialog11qt_metacastEPKc
FN:88,_ZN14SettingsDialog11qt_metacallEN11QMetaObject4CallEiPPv
FNDA:0,_ZN14SettingsDialog11qt_metacastEPKc
FNDA:0,_ZNK14SettingsDialog10metaObjectEv
FNDA:0,_ZN14SettingsDialog11qt_metacallEN11QMetaObject4CallEiPPv
FNDA:0,_ZN14SettingsDialog18qt_static_metacallEP7QObjectN11QMetaObject4CallEiPPv
FNF:4
FNH:0
DA:57,0
DA:63,0
DA:75,0
DA:77,0
DA:80,0
DA:82,0
DA:83,0
DA:84,0
DA:85,0
DA:88,0
DA:90,0
DA:91,0
LF:12
LH:0
end_of_record
TN:
SF:/home/oresky/school/nanonote/nanonote/lcov_build/src/nanonotelib_autogen/EWIEGA46WW/moc_WheelZoomExtension.cpp
FN:67,_ZN18WheelZoomExtension18qt_static_metacallEP7QObjectN11QMetaObject4CallEiPPv
FN:98,_ZNK18WheelZoomExtension10metaObjectEv
FN:103,_ZN18WheelZoomExtension11qt_metacastEPKc
FN:111,_ZN18WheelZoomExtension11qt_metacallEN11QMetaObject4CallEiPPv
FN:129,_ZN18WheelZoomExtension14adjustFontSizeEi
FNDA:0,_ZN18WheelZoomExtension11qt_metacallEN11QMetaObject4CallEiPPv
FNDA:0,_ZN18WheelZoomExtension14adjustFontSizeEi
FNDA:0,_ZN18WheelZoomExtension18qt_static_metacallEP7QObjectN11QMetaObject4CallEiPPv
FNDA:0,_ZN18WheelZoomExtension11qt_metacastEPKc
FNDA:0,_ZNK18WheelZoomExtension10metaObjectEv
FNF:5
FNH:0
DA:67,0
DA:69,0
DA:70,0
DA:72,0
DA:73,0
DA:74,0
DA:76,0
DA:77,0
DA:80,0
DA:81,0
DA:82,0
DA:98,0
DA:100,0
DA:103,0
DA:105,0
DA:106,0
DA:107,0
DA:108,0
DA:111,0
DA:113,0
DA:114,0
DA:115,0
DA:116,0
DA:117,0
DA:118,0
DA:119,0
DA:120,0
DA:121,0
DA:122,0
DA:123,0
DA:125,0
DA:129,0
DA:131,0
DA:132,0
DA:133,0
LF:35
LH:0
end_of_record
TN:
SF:/home/oresky/school/nanonote/nanonote/src/IndentExtension.cpp
FN:10,_ZL14findBulletSizeRK10QStringRef
FN:25,_ZL16findCommonPrefixRK7QString
FN:40,_ZL10indentLineR11QTextCursor
FN:46,_ZL12unindentLineR11QTextCursor
FN:54,_ZN15IndentExtensionC2EP8TextEdit
FN:61,_ZZN15IndentExtensionC4EP8TextEditENKUlvE_clEv
FN:68,_ZZN15IndentExtensionC4EP8TextEditENKUlvE0_clEv
FN:74,_ZN15IndentExtension22aboutToShowContextMenuEP5QMenuRK6QPoint
FN:81,_ZN15IndentExtension8keyPressEP9QKeyEvent
FN:102,_ZNK15IndentExtension20canRemoveIndentationEv
FN:118,_ZNK15IndentExtension19isAtStartOfListLineEv
FN:131,_ZNK15IndentExtension13isAtEndOfLineEv
FN:136,_ZNK15IndentExtension14isIndentedLineEv
FN:142,_ZN15IndentExtension17insertIndentationEv
FN:149,_ZN15IndentExtension16processSelectionESt8functionIFvR11QTextCursorEE
FN:182,_ZN15IndentExtension12onTabPressedEv
FN:193,_ZN15IndentExtension14onEnterPressedEv
FN:214,_ZN15IndentExtension17removeIndentationEv
FN:223,_ZN15IndentExtension18insertIndentedLineEv
FNDA:2,_ZN15IndentExtension17insertIndentationEv
FNDA:8,_ZNK15IndentExtension19isAtStartOfListLineEv
FNDA:16,_ZN15IndentExtension8keyPressEP9QKeyEvent
FNDA:0,_ZZN15IndentExtensionC4EP8TextEditENKUlvE0_clEv
FNDA:3,_ZNK15IndentExtension13isAtEndOfLineEv
FNDA:0,_ZNK15IndentExtension20canRemoveIndentationEv
FNDA:7,_ZL14findBulletSizeRK10QStringRef
FNDA:2,_ZNK15IndentExtension14isIndentedLineEv
FNDA:11,_ZL10indentLineR11QTextCursor
FNDA:4,_ZN15IndentExtension14onEnterPressedEv
FNDA:10,_ZN15IndentExtension16processSelectionESt8functionIFvR11QTextCursorEE
FNDA:3,_ZL12unindentLineR11QTextCursor
FNDA:0,_ZZN15IndentExtensionC4EP8TextEditENKUlvE_clEv
FNDA:10,_ZN15IndentExtension12onTabPressedEv
FNDA:0,_ZN15IndentExtension17removeIndentationEv
FNDA:7,_ZL16findCommonPrefixRK7QString
FNDA:0,_ZN15IndentExtension22aboutToShowContextMenuEP5QMenuRK6QPoint
FNDA:14,_ZN15IndentExtensionC2EP8TextEdit
FNDA:2,_ZN15IndentExtension18insertIndentedLineEv
FNF:19
FNH:14
DA:10,7
DA:11,10
DA:12,18
DA:13,16
DA:14,5
DA:17,2
DA:25,7
DA:28,15
DA:29,15
DA:30,7
DA:33,7
DA:34,7
DA:35,7
DA:36,7
DA:37,7
DA:40,11
DA:42,11
DA:43,11
DA:44,11
DA:46,3
DA:48,6
DA:49,15
DA:50,12
DA:52,3
DA:54,14
DA:56,14
DA:57,28
DA:59,14
DA:60,14
DA:61,14
DA:62,0
DA:63,0
DA:64,14
DA:66,14
DA:67,42
DA:68,14
DA:69,0
DA:70,0
DA:71,14
DA:72,14
DA:74,0
DA:76,0
DA:77,0
DA:78,0
DA:79,0
DA:81,16
DA:83,16
DA:84,10
DA:85,10
DA:87,6
DA:88,1
DA:89,1
DA:91,5
DA:92,4
DA:93,4
DA:95,1
DA:96,0
DA:97,0
DA:99,1
DA:102,0
DA:104,0
DA:105,0
DA:106,0
DA:107,0
DA:109,0
DA:110,0
DA:111,0
DA:112,0
DA:115,0
DA:118,8
DA:120,16
DA:121,8
DA:122,8
DA:123,2
DA:125,12
DA:126,6
DA:128,6
DA:131,3
DA:133,3
DA:136,2
DA:138,2
DA:139,4
DA:142,2
DA:144,2
DA:145,2
DA:146,2
DA:147,2
DA:149,10
DA:151,20
DA:152,10
DA:153,10
DA:154,10
DA:155,6
DA:156,6
DA:157,6
DA:158,0
DA:160,6
DA:161,6
DA:163,6
DA:164,2
DA:167,4
DA:168,4
DA:171,20
DA:172,10
DA:173,21
DA:174,14
DA:175,14
DA:176,3
DA:179,10
DA:180,10
DA:182,10
DA:184,20
DA:185,20
DA:186,20
DA:187,8
DA:189,2
DA:191,10
DA:193,4
DA:195,4
DA:196,4
DA:197,1
DA:198,1
DA:200,3
DA:201,3
DA:202,3
DA:203,2
DA:204,1
DA:206,1
DA:207,1
DA:210,1
DA:214,0
DA:216,0
DA:217,0
DA:218,0
DA:219,0
DA:220,0
DA:221,0
DA:223,2
DA:225,4
DA:226,2
DA:227,2
DA:228,1
DA:229,1
DA:231,1
DA:233,2
DA:234,2
LF:146
LH:117
end_of_record
TN:
SF:/home/oresky/school/nanonote/nanonote/src/LinkExtension.cpp
FN:11,_ZL18getLinkUnderCursorRK11QTextCursor
FN:16,_ZN13LinkExtensionC2EP8TextEdit
FN:20,_ZN13LinkExtension22aboutToShowContextMenuEP5QMenuRK6QPoint
FN:27,_ZZN13LinkExtension22aboutToShowContextMenuEP5QMenuRK6QPointENKUlvE_clEv
FN:32,_ZZN13LinkExtension22aboutToShowContextMenuEP5QMenuRK6QPointENKUlvE0_clEv
FN:37,_ZN13LinkExtension8keyPressEP9QKeyEvent
FN:51,_ZN13LinkExtension10keyReleaseEP9QKeyEvent
FN:59,_ZN13LinkExtension12mouseReleaseEP11QMouseEvent
FN:67,_ZN13LinkExtension19openLinkUnderCursorEv
FNDA:0,_ZN13LinkExtensionC2EP8TextEdit
FNDA:0,_ZZN13LinkExtension22aboutToShowContextMenuEP5QMenuRK6QPointENKUlvE_clEv
FNDA:0,_ZN13LinkExtension22aboutToShowContextMenuEP5QMenuRK6QPoint
FNDA:0,_ZN13LinkExtension8keyPressEP9QKeyEvent
FNDA:0,_ZN13LinkExtension19openLinkUnderCursorEv
FNDA:0,_ZN13LinkExtension10keyReleaseEP9QKeyEvent
FNDA:0,_ZN13LinkExtension12mouseReleaseEP11QMouseEvent
FNDA:0,_ZZN13LinkExtension22aboutToShowContextMenuEP5QMenuRK6QPointENKUlvE0_clEv
FNDA:0,_ZL18getLinkUnderCursorRK11QTextCursor
FNF:9
FNH:0
DA:11,0
DA:13,0
DA:16,0
DA:17,0
DA:18,0
DA:20,0
DA:22,0
DA:23,0
DA:24,0
DA:25,0
DA:27,0
DA:28,0
DA:29,0
DA:30,0
DA:31,0
DA:32,0
DA:33,0
DA:34,0
DA:37,0
DA:39,0
DA:40,0
DA:41,0
DA:42,0
DA:44,0
DA:45,0
DA:46,0
DA:48,0
DA:51,0
DA:53,0
DA:54,0
DA:56,0
DA:59,0
DA:61,0
DA:62,0
DA:64,0
DA:67,0
DA:69,0
DA:70,0
DA:71,0
DA:73,0
LF:40
LH:0
end_of_record
TN:
SF:/home/oresky/school/nanonote/nanonote/src/LinkSyntaxHighlighter.cpp
FN:16,_ZN21LinkSyntaxHighlighterC2EP13QTextDocument
FN:21,_ZN21LinkSyntaxHighlighter14highlightBlockERK7QString
FN:36,_ZN21LinkSyntaxHighlighter9getLinkAtERK7QStringi
FNDA:3,_ZN21LinkSyntaxHighlighter9getLinkAtERK7QStringi
FNDA:14,_ZN21LinkSyntaxHighlighterC2EP13QTextDocument
FNDA:66,_ZN21LinkSyntaxHighlighter14highlightBlockERK7QString
FNF:3
FNH:3
DA:16,14
DA:17,14
DA:19,14
DA:21,66
DA:23,132
DA:24,66
DA:25,66
DA:26,66
DA:27,66
DA:29,132
DA:30,66
DA:31,0
DA:32,0
DA:34,66
DA:36,3
DA:38,6
DA:39,5
DA:40,3
DA:41,3
DA:42,2
DA:45,2
LF:21
LH:19
end_of_record
TN:
SF:/home/oresky/school/nanonote/nanonote/src/MainWindow.cpp
FN:36,_ZN19MainWindowExtensionC2EP10MainWindow
FN:41,_ZN19MainWindowExtension22aboutToShowContextMenuEP5QMenuRK6QPoint
FN:53,_ZN10MainWindowC2EP7QWidget
FN:79,_ZN10MainWindowD2Ev
FN:79,_ZN10MainWindowD0Ev
FN:85,_ZN10MainWindow13setupTextEditEv
FN:98,_ZN10MainWindow18setupAutoSaveTimerEv
FN:104,_ZZN10MainWindow18setupAutoSaveTimerEvENKUlvE_clEv
FN:109,_ZN10MainWindow12setupActionsEv
FN:122,_ZZN10MainWindow12setupActionsEvENKUlvE_clEv
FN:123,_ZZN10MainWindow12setupActionsEvENKUlvE0_clEv
FN:157,_ZN10MainWindow9loadNotesEv
FN:196,_ZN10MainWindow9saveNotesEv
FN:215,_ZL9clampRectRK5QRectS1_
FN:233,_ZN10MainWindow12loadSettingsEv
FN:252,_ZN10MainWindow12saveSettingsEv
FN:258,_ZN10MainWindow14adjustFontSizeEi
FN:266,_ZN10MainWindow13resetFontSizeEv
FN:275,_ZN10MainWindow14setAlwaysOnTopEb
FN:285,_ZN10MainWindow18showSettingsDialogEv
FN:293,_ZN10MainWindow16loadSearchWidgetEv
FN:307,_ZN10MainWindow13showSearchBarEv
FN:316,_ZN10MainWindow13hideSearchBarEv
FNDA:0,_ZN19MainWindowExtensionC2EP10MainWindow
FNDA:0,_ZN10MainWindow13setupTextEditEv
FNDA:0,_ZZN10MainWindow12setupActionsEvENKUlvE_clEv
FNDA:0,_ZN10MainWindow9saveNotesEv
FNDA:0,_ZN10MainWindow18showSettingsDialogEv
FNDA:0,_ZN10MainWindow13hideSearchBarEv
FNDA:0,_ZN10MainWindow14adjustFontSizeEi
FNDA:0,_ZN10MainWindow12saveSettingsEv
FNDA:0,_ZN10MainWindow13resetFontSizeEv
FNDA:0,_ZN10MainWindow14setAlwaysOnTopEb
FNDA:0,_ZN10MainWindow18setupAutoSaveTimerEv
FNDA:0,_ZN10MainWindow9loadNotesEv
FNDA:0,_ZN10MainWindowD0Ev
FNDA:0,_ZN10MainWindow16loadSearchWidgetEv
FNDA:0,_ZZN10MainWindow18setupAutoSaveTimerEvENKUlvE_clEv
FNDA:0,_ZN10MainWindowD2Ev
FNDA:0,_ZN10MainWindow12loadSettingsEv
FNDA:0,_ZN10MainWindow13showSearchBarEv
FNDA:0,_ZN10MainWindowC2EP7QWidget
FNDA:0,_ZN10MainWindow12setupActionsEv
FNDA:0,_ZN19MainWindowExtension22aboutToShowContextMenuEP5QMenuRK6QPoint
FNDA:0,_ZZN10MainWindow12setupActionsEvENKUlvE0_clEv
FNDA:0,_ZL9clampRectRK5QRectS1_
FNF:23
FNH:0
DA:36,0
DA:38,0
DA:39,0
DA:41,0
DA:43,0
DA:44,0
DA:45,0
DA:46,0
DA:47,0
DA:48,0
DA:49,0
DA:50,0
DA:53,0
DA:55,0
DA:56,0
DA:57,0
DA:58,0
DA:59,0
DA:60,0
DA:61,0
DA:62,0
DA:63,0
DA:64,0
DA:66,0
DA:68,0
DA:70,0
DA:72,0
DA:73,0
DA:74,0
DA:75,0
DA:76,0
DA:77,0
DA:79,0
DA:81,0
DA:82,0
DA:83,0
DA:85,0
DA:87,0
DA:88,0
DA:89,0
DA:91,0
DA:92,0
DA:93,0
DA:95,0
DA:96,0
DA:98,0
DA:100,0
DA:101,0
DA:102,0
DA:104,0
DA:105,0
DA:106,0
DA:107,0
DA:109,0
DA:111,0
DA:113,0
DA:114,0
DA:116,0
DA:117,0
DA:119,0
DA:120,0
DA:122,0
DA:123,0
DA:124,0
DA:126,0
DA:127,0
DA:128,0
DA:130,0
DA:131,0
DA:132,0
DA:133,0
DA:135,0
DA:136,0
DA:137,0
DA:140,0
DA:141,0
DA:142,0
DA:143,0
DA:145,0
DA:146,0
DA:147,0
DA:148,0
DA:151,0
DA:152,0
DA:153,0
DA:154,0
DA:155,0
DA:157,0
DA:159,0
DA:160,0
DA:161,0
DA:162,0
DA:186,0
DA:188,0
DA:189,0
DA:190,0
DA:192,0
DA:193,0
DA:196,0
DA:198,0
DA:199,0
DA:200,0
DA:201,0
DA:202,0
DA:204,0
DA:205,0
DA:206,0
DA:207,0
DA:209,0
DA:210,0
DA:211,0
DA:215,0
DA:217,0
DA:218,0
DA:219,0
DA:221,0
DA:222,0
DA:224,0
DA:225,0
DA:227,0
DA:228,0
DA:230,0
DA:233,0
DA:235,0
DA:237,0
DA:238,0
DA:239,0
DA:240,0
DA:241,0
DA:244,0
DA:246,0
DA:248,0
DA:250,0
DA:252,0
DA:254,0
DA:255,0
DA:256,0
DA:258,0
DA:260,0
DA:261,0
DA:262,0
DA:263,0
DA:264,0
DA:266,0
DA:268,0
DA:269,0
DA:270,0
DA:271,0
DA:272,0
DA:273,0
DA:275,0
DA:277,0
DA:278,0
DA:279,0
DA:280,0
DA:281,0
DA:282,0
DA:283,0
DA:285,0
DA:287,0
DA:288,0
DA:290,0
DA:291,0
DA:293,0
DA:295,0
DA:296,0
DA:297,0
DA:299,0
DA:300,0
DA:301,0
DA:302,0
DA:303,0
DA:305,0
DA:307,0
DA:309,0
DA:310,0
DA:311,0
DA:313,0
DA:316,0
DA:318,0
DA:319,0
DA:320,0
DA:322,0
LF:183
LH:0
end_of_record
TN:
SF:/home/oresky/school/nanonote/nanonote/src/SearchWidget.cpp
FN:8,_ZN12SearchWidgetC2EP8TextEditP7QWidget
FN:27,_ZN12SearchWidgetD0Ev
FN:27,_ZN12SearchWidgetD2Ev
FN:32,_ZN12SearchWidget10initializeERK7QString
FN:40,_ZN12SearchWidget12uninitializeEv
FN:47,_ZN12SearchWidget10searchWordEb7QString
FN:57,_ZN12SearchWidget19onNextButtonClickedEv
FN:71,_ZN12SearchWidget23onPreviousButtonClickedEv
FN:85,_ZN12SearchWidget16highLightedWordsEb
FN:107,_ZN12SearchWidget14documentChangeEv
FN:118,_ZN12SearchWidget11closeSearchEv
FN:123,_ZN12SearchWidget17searchLineChangedERK7QString
FN:128,_ZN12SearchWidget30searchPositionsWordsInDocumentERK7QStringb
FN:150,_ZNK12SearchWidget16getPositionWordsEv
FN:155,_ZNK12SearchWidget22getCurrentSelectedWordEv
FN:160,_ZN12SearchWidget10selectWordEv
FN:173,_ZN12SearchWidget26setCountAndCurrentPositionEv
FNDA:0,_ZN12SearchWidget12uninitializeEv
FNDA:0,_ZN12SearchWidgetD2Ev
FNDA:0,_ZN12SearchWidget16highLightedWordsEb
FNDA:0,_ZN12SearchWidget26setCountAndCurrentPositionEv
FNDA:0,_ZN12SearchWidget10selectWordEv
FNDA:0,_ZNK12SearchWidget16getPositionWordsEv
FNDA:0,_ZNK12SearchWidget22getCurrentSelectedWordEv
FNDA:0,_ZN12SearchWidget30searchPositionsWordsInDocumentERK7QStringb
FNDA:0,_ZN12SearchWidget10searchWordEb7QString
FNDA:0,_ZN12SearchWidgetC2EP8TextEditP7QWidget
FNDA:0,_ZN12SearchWidget10initializeERK7QString
FNDA:0,_ZN12SearchWidgetD0Ev
FNDA:0,_ZN12SearchWidget14documentChangeEv
FNDA:0,_ZN12SearchWidget19onNextButtonClickedEv
FNDA:0,_ZN12SearchWidget23onPreviousButtonClickedEv
FNDA:0,_ZN12SearchWidget17searchLineChangedERK7QString
FNDA:0,_ZN12SearchWidget11closeSearchEv
FNF:17
FNH:0
DA:8,0
DA:10,0
DA:11,0
DA:13,0
DA:14,0
DA:15,0
DA:16,0
DA:17,0
DA:19,0
DA:20,0
DA:21,0
DA:22,0
DA:23,0
DA:24,0
DA:25,0
DA:27,0
DA:29,0
DA:30,0
DA:32,0
DA:34,0
DA:35,0
DA:36,0
DA:37,0
DA:38,0
DA:40,0
DA:42,0
DA:43,0
DA:44,0
DA:47,0
DA:49,0
DA:50,0
DA:52,0
DA:53,0
DA:54,0
DA:55,0
DA:57,0
DA:59,0
DA:60,0
DA:62,0
DA:63,0
DA:66,0
DA:68,0
DA:71,0
DA:73,0
DA:74,0
DA:76,0
DA:77,0
DA:80,0
DA:82,0
DA:85,0
DA:87,0
DA:88,0
DA:89,0
DA:90,0
DA:91,0
DA:92,0
DA:93,0
DA:95,0
DA:96,0
DA:97,0
DA:98,0
DA:100,0
DA:103,0
DA:105,0
DA:107,0
DA:109,0
DA:110,0
DA:112,0
DA:113,0
DA:115,0
DA:118,0
DA:120,0
DA:121,0
DA:123,0
DA:125,0
DA:126,0
DA:128,0
DA:130,0
DA:131,0
DA:132,0
DA:133,0
DA:134,0
DA:135,0
DA:136,0
DA:137,0
DA:138,0
DA:139,0
DA:142,0
DA:143,0
DA:144,0
DA:145,0
DA:146,0
DA:148,0
DA:150,0
DA:152,0
DA:155,0
DA:157,0
DA:160,0
DA:162,0
DA:163,0
DA:164,0
DA:165,0
DA:166,0
DA:167,0
DA:168,0
DA:169,0
DA:170,0
DA:171,0
DA:173,0
DA:175,0
DA:176,0
DA:177,0
DA:178,0
DA:179,0
LF:114
LH:0
end_of_record
TN:
SF:/home/oresky/school/nanonote/nanonote/src/Settings.cpp
FN:7,_ZN8SettingsC2EP7QObject
FN:11,_ZN8Settings8notePathEv
FN:17,_ZN8Settings4loadEv
FN:35,_ZN8Settings4saveEv
FN:43,_ZNK8Settings11defaultFontEv
FNDA:0,_ZN8Settings8notePathEv
FNDA:0,_ZN8SettingsC2EP7QObject
FNDA:0,_ZN8Settings4saveEv
FNDA:0,_ZN8Settings4loadEv
FNDA:0,_ZNK8Settings11defaultFontEv
FNF:5
FNH:0
DA:7,0
DA:9,0
DA:11,0
DA:13,0
DA:14,0
DA:17,0
DA:19,0
DA:20,0
DA:21,0
DA:22,0
DA:25,0
DA:26,0
DA:27,0
DA:29,0
DA:32,0
DA:33,0
DA:35,0
DA:37,0
DA:38,0
DA:39,0
DA:40,0
DA:41,0
DA:43,0
DA:45,0
LF:24
LH:0
end_of_record
TN:
SF:/home/oresky/school/nanonote/nanonote/src/SettingsDialog.cpp
FN:10,_ZN14SettingsDialogC2EP8SettingsP7QWidget
FN:25,_ZZN14SettingsDialogC4EP8SettingsP7QWidgetENKUliE_clEi
FN:32,_ZN14SettingsDialogD2Ev
FN:32,_ZN14SettingsDialogD0Ev
FN:37,_ZN14SettingsDialog13setupAboutTabEv
FN:52,_ZN14SettingsDialog22updateFontFromSettingsEv
FNDA:0,_ZN14SettingsDialog22updateFontFromSettingsEv
FNDA:0,_ZN14SettingsDialogD2Ev
FNDA:0,_ZN14SettingsDialogC2EP8SettingsP7QWidget
FNDA:0,_ZZN14SettingsDialogC4EP8SettingsP7QWidgetENKUliE_clEi
FNDA:0,_ZN14SettingsDialog13setupAboutTabEv
FNDA:0,_ZN14SettingsDialogD0Ev
FNF:6
FNH:0
DA:10,0
DA:12,0
DA:13,0
DA:15,0
DA:16,0
DA:17,0
DA:19,0
DA:21,0
DA:23,0
DA:24,0
DA:25,0
DA:26,0
DA:27,0
DA:28,0
DA:29,0
DA:30,0
DA:32,0
DA:34,0
DA:35,0
DA:37,0
DA:39,0
DA:40,0
DA:41,0
DA:47,0
DA:49,0
DA:50,0
DA:52,0
DA:54,0
DA:55,0
DA:56,0
LF:30
LH:0
end_of_record
TN:
SF:/home/oresky/school/nanonote/nanonote/src/TextEdit.cpp
FN:12,_ZN17TextEditExtensionC2EP8TextEdit
FN:17,_ZN17TextEditExtension22aboutToShowContextMenuEP5QMenuRK6QPoint
FN:20,_ZN17TextEditExtension8keyPressEP9QKeyEvent
FN:24,_ZN17TextEditExtension10keyReleaseEP9QKeyEvent
FN:28,_ZN17TextEditExtension12mouseReleaseEP11QMouseEvent
FN:32,_ZN17TextEditExtension5wheelEP11QWheelEvent
FN:37,_ZN8TextEditC2EP7QWidget
FN:43,_ZN8TextEdit16contextMenuEventEP17QContextMenuEvent
FN:54,_ZN8TextEdit13keyPressEventEP9QKeyEvent
FN:64,_ZN8TextEdit15keyReleaseEventEP9QKeyEvent
FN:74,_ZN8TextEdit17mouseReleaseEventEP11QMouseEvent
FN:84,_ZN8TextEdit10wheelEventEP11QWheelEvent
FN:94,_ZN8TextEdit12addExtensionEP17TextEditExtension
FNDA:0,_ZN17TextEditExtension22aboutToShowContextMenuEP5QMenuRK6QPoint
FNDA:0,_ZN8TextEdit10wheelEventEP11QWheelEvent
FNDA:14,_ZN8TextEdit12addExtensionEP17TextEditExtension
FNDA:16,_ZN17TextEditExtension10keyReleaseEP9QKeyEvent
FNDA:16,_ZN8TextEdit15keyReleaseEventEP9QKeyEvent
FNDA:0,_ZN8TextEdit17mouseReleaseEventEP11QMouseEvent
FNDA:16,_ZN8TextEdit13keyPressEventEP9QKeyEvent
FNDA:14,_ZN8TextEditC2EP7QWidget
FNDA:0,_ZN17TextEditExtension12mouseReleaseEP11QMouseEvent
FNDA:14,_ZN17TextEditExtensionC2EP8TextEdit
FNDA:0,_ZN17TextEditExtension8keyPressEP9QKeyEvent
FNDA:0,_ZN17TextEditExtension5wheelEP11QWheelEvent
FNDA:0,_ZN8TextEdit16contextMenuEventEP17QContextMenuEvent
FNF:13
FNH:6
DA:12,14
DA:14,14
DA:15,14
DA:17,0
DA:18,0
DA:20,0
DA:21,0
DA:24,16
DA:25,16
DA:28,0
DA:29,0
DA:32,0
DA:33,0
DA:37,14
DA:38,14
DA:40,14
DA:41,14
DA:43,0
DA:45,0
DA:46,0
DA:47,0
DA:48,0
DA:49,0
DA:51,0
DA:52,0
DA:54,16
DA:56,17
DA:57,16
DA:58,15
DA:61,1
DA:64,16
DA:66,32
DA:67,16
DA:68,0
DA:71,16
DA:74,0
DA:76,0
DA:77,0
DA:78,0
DA:81,0
DA:84,0
DA:86,0
DA:87,0
DA:88,0
DA:91,0
DA:94,14
DA:96,14
DA:97,14
LF:48
LH:21
end_of_record
TN:
SF:/home/oresky/school/nanonote/nanonote/src/WheelZoomExtension.cpp
FN:7,_ZN18WheelZoomExtensionC2EP8TextEdit
FN:11,_ZN18WheelZoomExtension5wheelEP11QWheelEvent
FNDA:0,_ZN18WheelZoomExtensionC2EP8TextEdit
FNDA:0,_ZN18WheelZoomExtension5wheelEP11QWheelEvent
FNF:2
FNH:0
DA:7,0
DA:8,0
DA:9,0
DA:11,0
DA:13,0
DA:14,0
DA:17,0
DA:18,0
DA:19,0
DA:22,0
DA:23,0
DA:24,0
DA:27,0
DA:28,0
DA:29,0
DA:30,0
DA:31,0
DA:33,0
DA:34,0
LF:19
LH:0
end_of_record
TN:
SF:/home/oresky/school/nanonote/nanonote/tests/FakeSearch.cpp
FN:16,_ZN10FakeSearchC2EP8TextEditP7QWidget
FN:30,_ZN10FakeSearch17initializeMembersEv
FN:40,_ZNK10FakeSearch16getGuiNextButtonEv
FN:45,_ZNK10FakeSearch20getGuiPreviousButtonEv
FNDA:0,_ZNK10FakeSearch16getGuiNextButtonEv
FNDA:0,_ZNK10FakeSearch20getGuiPreviousButtonEv
FNDA:0,_ZN10FakeSearch17initializeMembersEv
FNDA:0,_ZN10FakeSearchC2EP8TextEditP7QWidget
FNF:4
FNH:0
DA:16,0
DA:17,0
DA:19,0
DA:20,0
DA:21,0
DA:28,0
DA:30,0
DA:32,0
DA:33,0
DA:35,0
DA:36,0
DA:38,0
DA:40,0
DA:42,0
DA:45,0
DA:47,0
LF:16
LH:0
end_of_record
TN:
SF:/home/oresky/school/nanonote/nanonote/tests/IndentExtensionTest.cpp
FN:23,_ZL9setupTextP8TextEditRK7QString
FN:54,_ZL29____C_A_T_C_H____T_E_S_T____0v
FNDA:14,_ZL29____C_A_T_C_H____T_E_S_T____0v
FNDA:12,_ZL9setupTextP8TextEditRK7QString
FNF:2
FNH:2
DA:23,12
DA:25,24
DA:26,12
DA:27,12
DA:28,114
DA:29,102
DA:30,102
DA:31,12
DA:33,12
DA:34,12
DA:35,6
DA:37,6
DA:38,6
DA:39,84
DA:40,84
DA:41,84
DA:44,12
DA:45,24
DA:47,12
DA:48,12
DA:49,6
DA:51,12
DA:52,12
DA:54,14
DA:55,28
DA:56,14
DA:57,14
DA:58,14
DA:59,16
DA:60,2
DA:62,3
DA:63,1
DA:64,2
DA:67,3
DA:68,1
DA:69,1
DA:70,2
DA:74,15
DA:75,1
DA:78,2
DA:79,1
DA:80,2
DA:83,15
DA:84,1
DA:87,1
DA:88,2
DA:92,15
DA:93,1
DA:96,1
DA:97,1
DA:98,2
DA:101,15
DA:102,1
DA:105,1
DA:106,2
DA:109,15
DA:110,1
DA:113,1
DA:114,2
DA:117,15
DA:118,1
DA:120,1
DA:121,2
DA:124,15
DA:125,1
DA:127,1
DA:128,1
DA:129,1
DA:130,1
DA:131,2
DA:134,15
DA:135,1
DA:137,1
DA:138,2
DA:141,15
DA:142,1
DA:143,1
DA:144,2
DA:147,15
DA:148,1
DA:149,1
DA:150,2
DA:153,15
DA:154,1
DA:155,1
DA:156,2
DA:159,15
DA:160,1
DA:162,1
DA:163,2
DA:165,14
LF:91
LH:91
end_of_record
TN:
SF:/home/oresky/school/nanonote/nanonote/tests/LinkSyntaxHighlighterTest.cpp
FN:7,_ZL29____C_A_T_C_H____T_E_S_T____0v
FNDA:3,_ZL29____C_A_T_C_H____T_E_S_T____0v
FNF:1
FNH:1
DA:7,3
DA:8,6
DA:9,6
DA:10,6
DA:11,4
DA:12,2
DA:14,4
DA:15,2
DA:17,4
DA:18,2
DA:20,3
LF:11
LH:11
end_of_record
TN:
SF:/home/oresky/school/nanonote/nanonote/tests/SearchTest.cpp
FN:16,_Z17setTextInDocumentP8TextEdit
FNDA:0,_Z17setTextInDocumentP8TextEdit
FNF:1
FNH:0
DA:16,0
DA:18,0
DA:19,0
DA:44,0
LF:4
LH:0
end_of_record
TN:
SF:/home/oresky/school/nanonote/nanonote/tests/TestUtils.cpp
FN:3,_ZlsRSoRK7QString
FN:9,_ZlsRSoRK4QUrl
FNDA:0,_ZlsRSoRK4QUrl
FNDA:0,_ZlsRSoRK7QString
FNF:2
FNH:0
DA:3,0
DA:5,0
DA:6,0
DA:9,0
DA:11,0
DA:12,0
LF:6
LH:0
end_of_record
TN:
SF:/home/oresky/school/nanonote/nanonote/tests/tests.cpp
FN:7,main
FNDA:1,main
FNF:1
FNH:1
DA:7,1
DA:9,1
DA:10,1
DA:11,1
LF:4
LH:4
end_of_record
