TN:
SF:/usr/include/c++/9/bits/atomic_base.h
FN:99,_ZStanSt12memory_orderSt23__memory_order_modifier
FNDA:0,_ZStanSt12memory_orderSt23__memory_order_modifier
FN:318,_ZNSt13__atomic_baseIiEppEv
FNDA:0,_ZNSt13__atomic_baseIiEppEv
FN:326,_ZNSt13__atomic_baseIiEmmEv
FNDA:0,_ZNSt13__atomic_baseIiEmmEv
DA:99,0
DA:101,0
DA:318,0
DA:319,0
DA:326,0
DA:327,0
DA:415,0
DA:419,0
end_of_record
SF:/usr/include/qt5/QtCore/qmetatype.h
FN:1795,_Z11qMetaTypeIdI5QFontEiv
FNDA:0,_Z11qMetaTypeIdI5QFontEiv
FN:2276,_ZN12QMetaTypeId2I5QFontE14qt_metatype_idEv
FNDA:0,_ZN12QMetaTypeId2I5QFontE14qt_metatype_idEv
DA:1795,0
DA:1798,0
DA:2276,0
end_of_record
SF:/usr/include/qt5/QtCore/qstring.h
FN:483,_ZN7QStringpLERKS_
FNDA:0,_ZN7QStringpLERKS_
FN:570,_ZN7QString8fromUtf8EPKci
FNDA:0,_ZN7QString8fromUtf8EPKci
FN:699,_ZN7QStringC2EPKc
FNDA:0,_ZN7QStringC2EPKc
FN:957,_ZN7QStringC2ERKS_
FNDA:0,_ZN7QStringC2ERKS_
FN:1135,_ZN7QStringD2Ev
FNDA:0,_ZN7QStringD2Ev
FN:1356,_ZplRK7QStringPKc
FNDA:0,_ZplRK7QStringPKc
DA:483,0
DA:570,0
DA:572,0
DA:699,0
DA:700,0
DA:701,0
DA:957,0
DA:958,0
DA:1135,0
DA:1356,0
DA:1357,0
end_of_record
SF:/home/oresky/school/nanonote/nanonote/src/Settings.cpp
FN:7,_ZN8SettingsC2EP7QObject
FNDA:0,_ZN8SettingsC2EP7QObject
FN:11,_ZN8Settings8notePathEv
FNDA:0,_ZN8Settings8notePathEv
FN:17,_ZN8Settings4loadEv
FNDA:0,_ZN8Settings4loadEv
FN:35,_ZN8Settings4saveEv
FNDA:0,_ZN8Settings4saveEv
FN:43,_ZNK8Settings11defaultFontEv
FNDA:0,_ZNK8Settings11defaultFontEv
DA:7,0
DA:9,0
DA:11,0
DA:13,0
DA:14,0
DA:17,0
DA:19,0
DA:20,0
DA:21,0
DA:22,0
DA:25,0
DA:26,0
DA:27,0
DA:29,0
DA:32,0
DA:33,0
DA:35,0
DA:37,0
DA:38,0
DA:39,0
DA:40,0
DA:41,0
DA:43,0
DA:45,0
end_of_record
SF:/usr/include/qt5/QtCore/qvariant.h
FN:113,_ZN9QtPrivate15MetaTypeInvokerINS_19QVariantValueHelperI5QFontEERK8QVariantS2_E6invokeES6_
FNDA:0,_ZN9QtPrivate15MetaTypeInvokerINS_19QVariantValueHelperI5QFontEERK8QVariantS2_E6invokeES6_
FN:205,_ZN8QVariantC2Ev
FNDA:0,_ZN8QVariantC2Ev
FN:361,_ZNK8QVariant5valueI5QFontEET_v
FNDA:0,_ZNK8QVariant5valueI5QFontEET_v
FN:379,_ZNK8QVariant10canConvertI5QFontEEbv
FNDA:0,_ZNK8QVariant10canConvertI5QFontEEbv
FN:391,_ZN8QVariant7PrivateC2Ev
FNDA:0,_ZN8QVariant7PrivateC2Ev
FN:719,_ZN9QtPrivate19QVariantValueHelperI5QFontE8metaTypeERK8QVariant
FNDA:0,_ZN9QtPrivate19QVariantValueHelperI5QFontE8metaTypeERK8QVariant
FN:858,_Z13qvariant_castI5QFontET_RK8QVariant
FNDA:0,_Z13qvariant_castI5QFontET_RK8QVariant
DA:113,0
DA:115,0
DA:205,0
DA:361,0
DA:362,0
DA:379,0
DA:380,0
DA:391,0
DA:392,0
DA:719,0
DA:721,0
DA:722,0
DA:723,0
DA:724,0
DA:725,0
DA:726,0
DA:727,0
DA:858,0
DA:860,0
end_of_record
SF:/usr/include/qt5/QtCore/qarraydata.h
FN:236,_ZN15QTypedArrayDataItE10deallocateEP10QArrayData
FNDA:0,_ZN15QTypedArrayDataItE10deallocateEP10QArrayData
DA:236,0
DA:239,0
DA:240,0
end_of_record
SF:/usr/include/qt5/QtCore/qbasicatomic.h
FN:103,_ZNK19QBasicAtomicIntegerIiE4loadEv
FNDA:0,_ZNK19QBasicAtomicIntegerIiE4loadEv
FN:114,_ZN19QBasicAtomicIntegerIiE3refEv
FNDA:0,_ZN19QBasicAtomicIntegerIiE3refEv
FN:115,_ZN19QBasicAtomicIntegerIiE5derefEv
FNDA:0,_ZN19QBasicAtomicIntegerIiE5derefEv
DA:103,0
DA:114,0
DA:115,0
end_of_record
SF:/usr/include/qt5/QtCore/qrect.h
FN:199,_ZNK5QRect7isValidEv
FNDA:0,_ZNK5QRect7isValidEv
DA:199,0
DA:200,0
end_of_record
SF:/usr/include/qt5/QtCore/qatomic_cxx11.h
FN:225,_ZN10QAtomicOpsIiE4loadIiEET_RKSt6atomicIS2_E
FNDA:0,_ZN10QAtomicOpsIiE4loadIiEET_RKSt6atomicIS2_E
FN:263,_ZN10QAtomicOpsIiE3refIiEEbRSt6atomicIT_E
FNDA:0,_ZN10QAtomicOpsIiE3refIiEEbRSt6atomicIT_E
FN:269,_ZN10QAtomicOpsIiE5derefIiEEbRSt6atomicIT_E
FNDA:0,_ZN10QAtomicOpsIiE5derefIiEEbRSt6atomicIT_E
DA:225,0
DA:227,0
DA:263,0
DA:265,0
DA:269,0
DA:271,0
end_of_record
SF:/usr/include/qt5/QtCore/qrefcount.h
FN:54,_ZN9QtPrivate8RefCount3refEv
FNDA:0,_ZN9QtPrivate8RefCount3refEv
FN:65,_ZN9QtPrivate8RefCount5derefEv
FNDA:0,_ZN9QtPrivate8RefCount5derefEv
DA:54,0
DA:55,0
DA:57,0
DA:58,0
DA:60,0
DA:61,0
DA:62,0
DA:65,0
DA:66,0
DA:68,0
DA:69,0
DA:71,0
DA:72,0
DA:73,0
end_of_record
TN:
SF:/home/oresky/school/nanonote/nanonote/lcov_build/src/nanonotelib_autogen/EWIEGA46WW/moc_SearchWidget.cpp
FN:65,_ZN12SearchWidget18qt_static_metacallEP7QObjectN11QMetaObject4CallEiPPv
FNDA:0,_ZN12SearchWidget18qt_static_metacallEP7QObjectN11QMetaObject4CallEiPPv
FN:97,_ZNK12SearchWidget10metaObjectEv
FNDA:0,_ZNK12SearchWidget10metaObjectEv
FN:102,_ZN12SearchWidget11qt_metacastEPKc
FNDA:0,_ZN12SearchWidget11qt_metacastEPKc
FN:110,_ZN12SearchWidget11qt_metacallEN11QMetaObject4CallEiPPv
FNDA:0,_ZN12SearchWidget11qt_metacallEN11QMetaObject4CallEiPPv
FN:128,_ZN12SearchWidget17closeSearchDialogEv
FNDA:0,_ZN12SearchWidget17closeSearchDialogEv
DA:65,0
DA:67,0
DA:68,0
DA:70,0
DA:71,0
DA:72,0
DA:74,0
DA:75,0
DA:78,0
DA:79,0
DA:80,0
DA:97,0
DA:99,0
DA:102,0
DA:104,0
DA:105,0
DA:106,0
DA:107,0
DA:110,0
DA:112,0
DA:113,0
DA:114,0
DA:115,0
DA:116,0
DA:117,0
DA:118,0
DA:119,0
DA:120,0
DA:121,0
DA:122,0
DA:124,0
DA:128,0
DA:130,0
DA:131,0
end_of_record
SF:/home/oresky/school/nanonote/nanonote/lcov_build/src/nanonotelib_autogen/EWIEGA46WW/moc_IndentExtension.cpp
FN:57,_ZN15IndentExtension18qt_static_metacallEP7QObjectN11QMetaObject4CallEiPPv
FNDA:0,_ZN15IndentExtension18qt_static_metacallEP7QObjectN11QMetaObject4CallEiPPv
FN:75,_ZNK15IndentExtension10metaObjectEv
FNDA:28,_ZNK15IndentExtension10metaObjectEv
FN:80,_ZN15IndentExtension11qt_metacastEPKc
FNDA:0,_ZN15IndentExtension11qt_metacastEPKc
FN:88,_ZN15IndentExtension11qt_metacallEN11QMetaObject4CallEiPPv
FNDA:0,_ZN15IndentExtension11qt_metacallEN11QMetaObject4CallEiPPv
DA:57,0
DA:63,0
DA:75,28
DA:77,28
DA:80,0
DA:82,0
DA:83,0
DA:84,0
DA:85,0
DA:88,0
DA:90,0
DA:91,0
end_of_record
SF:/home/oresky/school/nanonote/nanonote/src/IndentExtension.h
end_of_record
SF:/usr/include/qt5/QtCore/qscopedpointer.h
FN:116,_ZNK14QScopedPointerI11QObjectData21QScopedPointerDeleterIS0_EEptEv
FNDA:28,_ZNK14QScopedPointerI11QObjectData21QScopedPointerDeleterIS0_EEptEv
DA:116,28
DA:118,28
end_of_record
SF:/home/oresky/school/nanonote/nanonote/src/Settings.h
end_of_record
SF:/home/oresky/school/nanonote/nanonote/lcov_build/src/nanonotelib_autogen/EWIEGA46WW/moc_WheelZoomExtension.cpp
FN:67,_ZN18WheelZoomExtension18qt_static_metacallEP7QObjectN11QMetaObject4CallEiPPv
FNDA:0,_ZN18WheelZoomExtension18qt_static_metacallEP7QObjectN11QMetaObject4CallEiPPv
FN:98,_ZNK18WheelZoomExtension10metaObjectEv
FNDA:0,_ZNK18WheelZoomExtension10metaObjectEv
FN:103,_ZN18WheelZoomExtension11qt_metacastEPKc
FNDA:0,_ZN18WheelZoomExtension11qt_metacastEPKc
FN:111,_ZN18WheelZoomExtension11qt_metacallEN11QMetaObject4CallEiPPv
FNDA:0,_ZN18WheelZoomExtension11qt_metacallEN11QMetaObject4CallEiPPv
FN:129,_ZN18WheelZoomExtension14adjustFontSizeEi
FNDA:0,_ZN18WheelZoomExtension14adjustFontSizeEi
DA:67,0
DA:69,0
DA:70,0
DA:72,0
DA:73,0
DA:74,0
DA:76,0
DA:77,0
DA:80,0
DA:81,0
DA:82,0
DA:98,0
DA:100,0
DA:103,0
DA:105,0
DA:106,0
DA:107,0
DA:108,0
DA:111,0
DA:113,0
DA:114,0
DA:115,0
DA:116,0
DA:117,0
DA:118,0
DA:119,0
DA:120,0
DA:121,0
DA:122,0
DA:123,0
DA:125,0
DA:129,0
DA:131,0
DA:132,0
DA:133,0
end_of_record
SF:/home/oresky/school/nanonote/nanonote/lcov_build/src/BaseSettings.h
end_of_record
SF:/home/oresky/school/nanonote/nanonote/lcov_build/src/nanonotelib_autogen/EWIEGA46WW/moc_LinkExtension.cpp
FN:57,_ZN13LinkExtension18qt_static_metacallEP7QObjectN11QMetaObject4CallEiPPv
FNDA:0,_ZN13LinkExtension18qt_static_metacallEP7QObjectN11QMetaObject4CallEiPPv
FN:75,_ZNK13LinkExtension10metaObjectEv
FNDA:0,_ZNK13LinkExtension10metaObjectEv
FN:80,_ZN13LinkExtension11qt_metacastEPKc
FNDA:0,_ZN13LinkExtension11qt_metacastEPKc
FN:88,_ZN13LinkExtension11qt_metacallEN11QMetaObject4CallEiPPv
FNDA:0,_ZN13LinkExtension11qt_metacallEN11QMetaObject4CallEiPPv
DA:57,0
DA:63,0
DA:75,0
DA:77,0
DA:80,0
DA:82,0
DA:83,0
DA:84,0
DA:85,0
DA:88,0
DA:90,0
DA:91,0
end_of_record
SF:/home/oresky/school/nanonote/nanonote/lcov_build/src/nanonotelib_autogen/EWIEGA46WW/moc_SettingsDialog.cpp
FN:57,_ZN14SettingsDialog18qt_static_metacallEP7QObjectN11QMetaObject4CallEiPPv
FNDA:0,_ZN14SettingsDialog18qt_static_metacallEP7QObjectN11QMetaObject4CallEiPPv
FN:75,_ZNK14SettingsDialog10metaObjectEv
FNDA:0,_ZNK14SettingsDialog10metaObjectEv
FN:80,_ZN14SettingsDialog11qt_metacastEPKc
FNDA:0,_ZN14SettingsDialog11qt_metacastEPKc
FN:88,_ZN14SettingsDialog11qt_metacallEN11QMetaObject4CallEiPPv
FNDA:0,_ZN14SettingsDialog11qt_metacallEN11QMetaObject4CallEiPPv
DA:57,0
DA:63,0
DA:75,0
DA:77,0
DA:80,0
DA:82,0
DA:83,0
DA:84,0
DA:85,0
DA:88,0
DA:90,0
DA:91,0
end_of_record
SF:/home/oresky/school/nanonote/nanonote/src/TextEdit.h
end_of_record
SF:/home/oresky/school/nanonote/nanonote/lcov_build/src/nanonotelib_autogen/EWIEGA46WW/moc_MainWindow.cpp
FN:57,_ZN10MainWindow18qt_static_metacallEP7QObjectN11QMetaObject4CallEiPPv
FNDA:0,_ZN10MainWindow18qt_static_metacallEP7QObjectN11QMetaObject4CallEiPPv
FN:75,_ZNK10MainWindow10metaObjectEv
FNDA:0,_ZNK10MainWindow10metaObjectEv
FN:80,_ZN10MainWindow11qt_metacastEPKc
FNDA:0,_ZN10MainWindow11qt_metacastEPKc
FN:88,_ZN10MainWindow11qt_metacallEN11QMetaObject4CallEiPPv
FNDA:0,_ZN10MainWindow11qt_metacallEN11QMetaObject4CallEiPPv
DA:57,0
DA:63,0
DA:75,0
DA:77,0
DA:80,0
DA:82,0
DA:83,0
DA:84,0
DA:85,0
DA:88,0
DA:90,0
DA:91,0
end_of_record
SF:/home/oresky/school/nanonote/nanonote/src/LinkExtension.h
end_of_record
SF:/home/oresky/school/nanonote/nanonote/src/WheelZoomExtension.h
end_of_record
SF:/home/oresky/school/nanonote/nanonote/lcov_build/src/nanonotelib_autogen/EWIEGA46WW/moc_Settings.cpp
FN:57,_ZN8Settings18qt_static_metacallEP7QObjectN11QMetaObject4CallEiPPv
FNDA:0,_ZN8Settings18qt_static_metacallEP7QObjectN11QMetaObject4CallEiPPv
FN:75,_ZNK8Settings10metaObjectEv
FNDA:0,_ZNK8Settings10metaObjectEv
FN:80,_ZN8Settings11qt_metacastEPKc
FNDA:0,_ZN8Settings11qt_metacastEPKc
FN:88,_ZN8Settings11qt_metacallEN11QMetaObject4CallEiPPv
FNDA:0,_ZN8Settings11qt_metacallEN11QMetaObject4CallEiPPv
DA:57,0
DA:63,0
DA:75,0
DA:77,0
DA:80,0
DA:82,0
DA:83,0
DA:84,0
DA:85,0
DA:88,0
DA:90,0
DA:91,0
end_of_record
TN:
SF:/usr/include/qt5/QtCore/qshareddata.h
FN:233,_ZN28QExplicitlySharedDataPointerI12QFontPrivateE4swapERS1_
FNDA:0,_ZN28QExplicitlySharedDataPointerI12QFontPrivateE4swapERS1_
FN:304,_Z5qSwapI12QFontPrivateEvR28QExplicitlySharedDataPointerIT_ES4_
FNDA:0,_Z5qSwapI12QFontPrivateEvR28QExplicitlySharedDataPointerIT_ES4_
DA:233,0
DA:234,0
DA:304,0
DA:305,0
end_of_record
SF:/usr/include/qt5/QtCore/qscopedpointer.h
FN:116,_ZNK14QScopedPointerI11QObjectData21QScopedPointerDeleterIS0_EEptEv
FNDA:0,_ZNK14QScopedPointerI11QObjectData21QScopedPointerDeleterIS0_EEptEv
DA:116,0
DA:118,0
end_of_record
SF:/usr/include/qt5/QtCore/qglobal.h
FN:911,_Z5qSwapIP12QFontPrivateEvRT_S3_
FNDA:0,_Z5qSwapIP12QFontPrivateEvRT_S3_
FN:911,_Z5qSwapIjEvRT_S1_
FNDA:0,_Z5qSwapIjEvRT_S1_
DA:911,0
DA:915,0
DA:916,0
DA:911,0
DA:915,0
DA:916,0
end_of_record
SF:/home/oresky/school/nanonote/nanonote/lcov_build/src/BaseSettings.h
end_of_record
SF:/usr/include/qt5/QtGui/qfont.h
FN:256,_ZN5QFontaSEOS_
FNDA:0,_ZN5QFontaSEOS_
DA:256,0
DA:257,0
end_of_record
SF:/usr/include/c++/9/bits/move.h
FN:99,_ZSt4moveIRP12QFontPrivateEONSt16remove_referenceIT_E4typeEOS4_
FNDA:0,_ZSt4moveIRP12QFontPrivateEONSt16remove_referenceIT_E4typeEOS4_
FN:99,_ZSt4moveIRjEONSt16remove_referenceIT_E4typeEOS2_
FNDA:0,_ZSt4moveIRjEONSt16remove_referenceIT_E4typeEOS2_
FN:182,_ZSt4swapIP12QFontPrivateENSt9enable_ifIXsrSt6__and_IJSt6__not_ISt15__is_tuple_likeIT_EESt21is_move_constructibleIS6_ESt18is_move_assignableIS6_EEE5valueEvE4typeERS6_SG_
FNDA:0,_ZSt4swapIP12QFontPrivateENSt9enable_ifIXsrSt6__and_IJSt6__not_ISt15__is_tuple_likeIT_EESt21is_move_constructibleIS6_ESt18is_move_assignableIS6_EEE5valueEvE4typeERS6_SG_
FN:182,_ZSt4swapIjENSt9enable_ifIXsrSt6__and_IJSt6__not_ISt15__is_tuple_likeIT_EESt21is_move_constructibleIS4_ESt18is_move_assignableIS4_EEE5valueEvE4typeERS4_SE_
FNDA:0,_ZSt4swapIjENSt9enable_ifIXsrSt6__and_IJSt6__not_ISt15__is_tuple_likeIT_EESt21is_move_constructibleIS4_ESt18is_move_assignableIS4_EEE5valueEvE4typeERS4_SE_
DA:99,0
DA:100,0
DA:99,0
DA:100,0
DA:182,0
DA:193,0
DA:194,0
DA:195,0
DA:196,0
DA:182,0
DA:193,0
DA:194,0
DA:195,0
DA:196,0
end_of_record
SF:/home/oresky/school/nanonote/nanonote/lcov_build/src/moc_BaseSettings.cpp
FN:86,_ZN12BaseSettings18qt_static_metacallEP7QObjectN11QMetaObject4CallEiPPv
FNDA:0,_ZN12BaseSettings18qt_static_metacallEP7QObjectN11QMetaObject4CallEiPPv
FN:157,_ZNK12BaseSettings10metaObjectEv
FNDA:0,_ZNK12BaseSettings10metaObjectEv
FN:162,_ZN12BaseSettings11qt_metacastEPKc
FNDA:0,_ZN12BaseSettings11qt_metacastEPKc
FN:170,_ZN12BaseSettings11qt_metacallEN11QMetaObject4CallEiPPv
FNDA:0,_ZN12BaseSettings11qt_metacallEN11QMetaObject4CallEiPPv
FN:205,_ZN12BaseSettings18alwaysOnTopChangedEb
FNDA:0,_ZN12BaseSettings18alwaysOnTopChangedEb
FN:212,_ZN12BaseSettings11fontChangedERK5QFont
FNDA:0,_ZN12BaseSettings11fontChangedERK5QFont
FN:219,_ZN12BaseSettings15geometryChangedERK5QRect
FNDA:0,_ZN12BaseSettings15geometryChangedERK5QRect
DA:86,0
DA:88,0
DA:89,0
DA:91,0
DA:92,0
DA:93,0
DA:94,0
DA:95,0
DA:97,0
DA:98,0
DA:101,0
DA:102,0
DA:103,0
DA:108,0
DA:109,0
DA:110,0
DA:115,0
DA:116,0
DA:117,0
DA:122,0
DA:123,0
DA:125,0
DA:126,0
DA:127,0
DA:128,0
DA:129,0
DA:130,0
DA:132,0
DA:133,0
DA:135,0
DA:136,0
DA:137,0
DA:138,0
DA:139,0
DA:140,0
DA:157,0
DA:159,0
DA:162,0
DA:164,0
DA:165,0
DA:166,0
DA:167,0
DA:170,0
DA:172,0
DA:173,0
DA:174,0
DA:175,0
DA:176,0
DA:177,0
DA:178,0
DA:179,0
DA:180,0
DA:181,0
DA:182,0
DA:185,0
DA:186,0
DA:187,0
DA:188,0
DA:189,0
DA:190,0
DA:191,0
DA:192,0
DA:193,0
DA:194,0
DA:195,0
DA:196,0
DA:197,0
DA:198,0
DA:201,0
DA:205,0
DA:207,0
DA:208,0
DA:209,0
DA:212,0
DA:214,0
DA:215,0
DA:216,0
DA:219,0
DA:221,0
DA:222,0
DA:223,0
end_of_record
TN:
SF:/usr/include/qt5/QtCore/qchar.h
FN:53,_ZN11QLatin1CharC2Ec
FNDA:0,_ZN11QLatin1CharC2Ec
FN:55,_ZNK11QLatin1Char7unicodeEv
FNDA:0,_ZNK11QLatin1Char7unicodeEv
FN:88,_ZN5QCharC2E11QLatin1Char
FNDA:0,_ZN5QCharC2E11QLatin1Char
DA:53,0
DA:55,0
DA:88,0
end_of_record
SF:/usr/include/c++/9/ext/new_allocator.h
FN:80,_ZN9__gnu_cxx13new_allocatorIiEC2Ev
FNDA:0,_ZN9__gnu_cxx13new_allocatorIiEC2Ev
FN:83,_ZN9__gnu_cxx13new_allocatorIiEC2ERKS1_
FNDA:0,_ZN9__gnu_cxx13new_allocatorIiEC2ERKS1_
FN:89,_ZN9__gnu_cxx13new_allocatorIiED2Ev
FNDA:0,_ZN9__gnu_cxx13new_allocatorIiED2Ev
FN:102,_ZN9__gnu_cxx13new_allocatorIiE8allocateEmPKv
FNDA:0,_ZN9__gnu_cxx13new_allocatorIiE8allocateEmPKv
FN:119,_ZN9__gnu_cxx13new_allocatorIiE10deallocateEPim
FNDA:0,_ZN9__gnu_cxx13new_allocatorIiE10deallocateEPim
FN:132,_ZNK9__gnu_cxx13new_allocatorIiE8max_sizeEv
FNDA:0,_ZNK9__gnu_cxx13new_allocatorIiE8max_sizeEv
FN:144,_ZN9__gnu_cxx13new_allocatorIiE9constructIiJiEEEvPT_DpOT0_
FNDA:0,_ZN9__gnu_cxx13new_allocatorIiE9constructIiJiEEEvPT_DpOT0_
DA:80,0
DA:83,0
DA:89,0
DA:102,0
DA:104,0
DA:105,0
DA:114,0
DA:119,0
DA:128,0
DA:132,0
DA:135,0
DA:144,0
DA:147,0
end_of_record
SF:/home/oresky/school/nanonote/nanonote/src/SearchWidget.cpp
FN:8,_ZN12SearchWidgetC2EP8TextEditP7QWidget
FNDA:0,_ZN12SearchWidgetC2EP8TextEditP7QWidget
FN:27,_ZN12SearchWidgetD2Ev
FNDA:0,_ZN12SearchWidgetD2Ev
FN:27,_ZN12SearchWidgetD0Ev
FNDA:0,_ZN12SearchWidgetD0Ev
FN:32,_ZN12SearchWidget10initializeERK7QString
FNDA:0,_ZN12SearchWidget10initializeERK7QString
FN:40,_ZN12SearchWidget12uninitializeEv
FNDA:0,_ZN12SearchWidget12uninitializeEv
FN:47,_ZN12SearchWidget10searchWordEb7QString
FNDA:0,_ZN12SearchWidget10searchWordEb7QString
FN:57,_ZN12SearchWidget19onNextButtonClickedEv
FNDA:0,_ZN12SearchWidget19onNextButtonClickedEv
FN:71,_ZN12SearchWidget23onPreviousButtonClickedEv
FNDA:0,_ZN12SearchWidget23onPreviousButtonClickedEv
FN:85,_ZN12SearchWidget16highLightedWordsEb
FNDA:0,_ZN12SearchWidget16highLightedWordsEb
FN:107,_ZN12SearchWidget14documentChangeEv
FNDA:0,_ZN12SearchWidget14documentChangeEv
FN:118,_ZN12SearchWidget11closeSearchEv
FNDA:0,_ZN12SearchWidget11closeSearchEv
FN:123,_ZN12SearchWidget17searchLineChangedERK7QString
FNDA:0,_ZN12SearchWidget17searchLineChangedERK7QString
FN:128,_ZN12SearchWidget30searchPositionsWordsInDocumentERK7QStringb
FNDA:0,_ZN12SearchWidget30searchPositionsWordsInDocumentERK7QStringb
FN:150,_ZNK12SearchWidget16getPositionWordsEv
FNDA:0,_ZNK12SearchWidget16getPositionWordsEv
FN:155,_ZNK12SearchWidget22getCurrentSelectedWordEv
FNDA:0,_ZNK12SearchWidget22getCurrentSelectedWordEv
FN:160,_ZN12SearchWidget10selectWordEv
FNDA:0,_ZN12SearchWidget10selectWordEv
FN:173,_ZN12SearchWidget26setCountAndCurrentPositionEv
FNDA:0,_ZN12SearchWidget26setCountAndCurrentPositionEv
DA:8,0
DA:10,0
DA:11,0
DA:13,0
DA:14,0
DA:15,0
DA:16,0
DA:17,0
DA:19,0
DA:20,0
DA:21,0
DA:22,0
DA:23,0
DA:24,0
DA:25,0
DA:27,0
DA:30,0
DA:27,0
DA:29,0
DA:30,0
DA:32,0
DA:34,0
DA:35,0
DA:36,0
DA:37,0
DA:38,0
DA:40,0
DA:42,0
DA:43,0
DA:44,0
DA:47,0
DA:49,0
DA:50,0
DA:52,0
DA:53,0
DA:54,0
DA:55,0
DA:57,0
DA:59,0
DA:60,0
DA:62,0
DA:63,0
DA:66,0
DA:68,0
DA:71,0
DA:73,0
DA:74,0
DA:76,0
DA:77,0
DA:80,0
DA:82,0
DA:85,0
DA:87,0
DA:88,0
DA:89,0
DA:90,0
DA:91,0
DA:92,0
DA:93,0
DA:95,0
DA:96,0
DA:97,0
DA:98,0
DA:100,0
DA:103,0
DA:105,0
DA:107,0
DA:109,0
DA:110,0
DA:112,0
DA:113,0
DA:115,0
DA:118,0
DA:120,0
DA:121,0
DA:123,0
DA:125,0
DA:126,0
DA:128,0
DA:130,0
DA:131,0
DA:132,0
DA:133,0
DA:134,0
DA:135,0
DA:136,0
DA:137,0
DA:138,0
DA:139,0
DA:142,0
DA:143,0
DA:144,0
DA:145,0
DA:146,0
DA:148,0
DA:150,0
DA:152,0
DA:155,0
DA:157,0
DA:160,0
DA:162,0
DA:163,0
DA:164,0
DA:165,0
DA:166,0
DA:167,0
DA:168,0
DA:169,0
DA:170,0
DA:171,0
DA:173,0
DA:175,0
DA:176,0
DA:177,0
DA:178,0
DA:179,0
end_of_record
SF:/usr/include/qt5/QtWidgets/qwidget.h
FN:416,_ZN7QWidget8setFocusEv
FNDA:0,_ZN7QWidget8setFocusEv
FN:838,_ZN7QWidget6resizeEii
FNDA:0,_ZN7QWidget6resizeEii
DA:416,0
DA:838,0
DA:839,0
end_of_record
SF:/usr/include/qt5/QtCore/qatomic_cxx11.h
FN:225,_ZN10QAtomicOpsIiE4loadIiEET_RKSt6atomicIS2_E
FNDA:0,_ZN10QAtomicOpsIiE4loadIiEET_RKSt6atomicIS2_E
FN:263,_ZN10QAtomicOpsIiE3refIiEEbRSt6atomicIT_E
FNDA:0,_ZN10QAtomicOpsIiE3refIiEEbRSt6atomicIT_E
FN:269,_ZN10QAtomicOpsIiE5derefIiEEbRSt6atomicIT_E
FNDA:0,_ZN10QAtomicOpsIiE5derefIiEEbRSt6atomicIT_E
DA:225,0
DA:227,0
DA:263,0
DA:265,0
DA:269,0
DA:271,0
end_of_record
SF:/usr/include/c++/9/bits/vector.tcc
FN:109,_ZNSt6vectorIiSaIiEE12emplace_backIJiEEERiDpOT_
FNDA:0,_ZNSt6vectorIiSaIiEE12emplace_backIJiEEERiDpOT_
FN:426,_ZNSt6vectorIiSaIiEE17_M_realloc_insertIJiEEEvN9__gnu_cxx17__normal_iteratorIPiS1_EEDpOT_
FNDA:0,_ZNSt6vectorIiSaIiEE17_M_realloc_insertIJiEEEvN9__gnu_cxx17__normal_iteratorIPiS1_EEDpOT_
DA:109,0
DA:112,0
DA:115,0
DA:117,0
DA:121,0
DA:123,0
DA:426,0
DA:435,0
DA:437,0
DA:438,0
DA:439,0
DA:440,0
DA:441,0
DA:449,0
DA:450,0
DA:456,0
DA:461,0
DA:462,0
DA:464,0
DA:466,0
DA:467,0
DA:500,0
DA:501,0
DA:502,0
DA:503,0
DA:504,0
DA:505,0
end_of_record
SF:/usr/include/c++/9/bits/move.h
FN:74,_ZSt7forwardIiEOT_RNSt16remove_referenceIS0_E4typeE
FNDA:0,_ZSt7forwardIiEOT_RNSt16remove_referenceIS0_E4typeE
FN:99,_ZSt4moveIRP18QTextCursorPrivateEONSt16remove_referenceIT_E4typeEOS4_
FNDA:0,_ZSt4moveIRP18QTextCursorPrivateEONSt16remove_referenceIT_E4typeEOS4_
FN:99,_ZSt4moveIRiEONSt16remove_referenceIT_E4typeEOS2_
FNDA:0,_ZSt4moveIRiEONSt16remove_referenceIT_E4typeEOS2_
FN:99,_ZSt4moveIRP15QTypedArrayDataItEEONSt16remove_referenceIT_E4typeEOS5_
FNDA:0,_ZSt4moveIRP15QTypedArrayDataItEEONSt16remove_referenceIT_E4typeEOS5_
FN:182,_ZSt4swapIP18QTextCursorPrivateENSt9enable_ifIXsrSt6__and_IJSt6__not_ISt15__is_tuple_likeIT_EESt21is_move_constructibleIS6_ESt18is_move_assignableIS6_EEE5valueEvE4typeERS6_SG_
FNDA:0,_ZSt4swapIP18QTextCursorPrivateENSt9enable_ifIXsrSt6__and_IJSt6__not_ISt15__is_tuple_likeIT_EESt21is_move_constructibleIS6_ESt18is_move_assignableIS6_EEE5valueEvE4typeERS6_SG_
FN:182,_ZSt4swapIP15QTypedArrayDataItEENSt9enable_ifIXsrSt6__and_IJSt6__not_ISt15__is_tuple_likeIT_EESt21is_move_constructibleIS7_ESt18is_move_assignableIS7_EEE5valueEvE4typeERS7_SH_
FNDA:0,_ZSt4swapIP15QTypedArrayDataItEENSt9enable_ifIXsrSt6__and_IJSt6__not_ISt15__is_tuple_likeIT_EESt21is_move_constructibleIS7_ESt18is_move_assignableIS7_EEE5valueEvE4typeERS7_SH_
DA:74,0
DA:75,0
DA:99,0
DA:100,0
DA:99,0
DA:100,0
DA:99,0
DA:100,0
DA:182,0
DA:193,0
DA:194,0
DA:195,0
DA:196,0
DA:182,0
DA:193,0
DA:194,0
DA:195,0
DA:196,0
end_of_record
SF:/usr/include/qt5/QtGui/qtextcursor.h
FN:77,_ZN11QTextCursoraSEOS_
FNDA:0,_ZN11QTextCursoraSEOS_
FN:82,_ZN11QTextCursor4swapERS_
FNDA:0,_ZN11QTextCursor4swapERS_
DA:77,0
DA:82,0
end_of_record
SF:/usr/include/c++/9/bits/allocator.h
FN:138,_ZNSaIiEC2Ev
FNDA:0,_ZNSaIiEC2Ev
FN:141,_ZNSaIiEC2ERKS_
FNDA:0,_ZNSaIiEC2ERKS_
FN:153,_ZNSaIiED2Ev
FNDA:0,_ZNSaIiED2Ev
DA:138,0
DA:141,0
DA:142,0
DA:153,0
end_of_record
SF:/usr/include/qt5/QtCore/qflags.h
FN:121,_ZN6QFlagsIN2Qt13AlignmentFlagEEC2EMNS2_7PrivateEi
FNDA:0,_ZN6QFlagsIN2Qt13AlignmentFlagEEC2EMNS2_7PrivateEi
FN:121,_ZN6QFlagsIN13QTextDocument8FindFlagEEC2EMNS2_7PrivateEi
FNDA:0,_ZN6QFlagsIN13QTextDocument8FindFlagEEC2EMNS2_7PrivateEi
FN:121,_ZN6QFlagsIN2Qt10WindowTypeEEC2EMNS2_7PrivateEi
FNDA:0,_ZN6QFlagsIN2Qt10WindowTypeEEC2EMNS2_7PrivateEi
DA:121,0
DA:121,0
DA:121,0
end_of_record
SF:/usr/include/c++/9/bits/stl_uninitialized.h
FN:99,_ZNSt20__uninitialized_copyILb1EE13__uninit_copyIN9__gnu_cxx17__normal_iteratorIPKiSt6vectorIiSaIiEEEEPiEET0_T_SC_SB_
FNDA:0,_ZNSt20__uninitialized_copyILb1EE13__uninit_copyIN9__gnu_cxx17__normal_iteratorIPKiSt6vectorIiSaIiEEEEPiEET0_T_SC_SB_
FN:115,_ZSt18uninitialized_copyIN9__gnu_cxx17__normal_iteratorIPKiSt6vectorIiSaIiEEEEPiET0_T_SA_S9_
FNDA:0,_ZSt18uninitialized_copyIN9__gnu_cxx17__normal_iteratorIPKiSt6vectorIiSaIiEEEEPiET0_T_SA_S9_
FN:287,_ZSt22__uninitialized_copy_aIN9__gnu_cxx17__normal_iteratorIPKiSt6vectorIiSaIiEEEEPiiET0_T_SA_S9_RSaIT1_E
FNDA:0,_ZSt22__uninitialized_copy_aIN9__gnu_cxx17__normal_iteratorIPKiSt6vectorIiSaIiEEEEPiiET0_T_SA_S9_RSaIT1_E
FN:906,_ZSt14__relocate_a_1IiiENSt9enable_ifIXsrSt24__is_bitwise_relocatableIT_vE5valueEPS2_E4typeES4_S4_S4_RSaIT0_E
FNDA:0,_ZSt14__relocate_a_1IiiENSt9enable_ifIXsrSt24__is_bitwise_relocatableIT_vE5valueEPS2_E4typeES4_S4_S4_RSaIT0_E
FN:940,_ZSt12__relocate_aIPiS0_SaIiEET0_T_S3_S2_RT1_
FNDA:0,_ZSt12__relocate_aIPiS0_SaIiEET0_T_S3_S2_RT1_
DA:99,0
DA:101,0
DA:115,0
DA:128,0
DA:134,0
DA:287,0
DA:289,0
DA:906,0
DA:909,0
DA:910,0
DA:911,0
DA:912,0
DA:940,0
DA:946,0
DA:948,0
end_of_record
SF:/usr/include/qt5/QtWidgets/qtextedit.h
end_of_record
SF:/usr/include/qt5/QtWidgets/qplaintextedit.h
FN:153,_ZNK14QPlainTextEdit11toPlainTextEv
FNDA:0,_ZNK14QPlainTextEdit11toPlainTextEv
DA:153,0
DA:154,0
end_of_record
SF:/usr/include/c++/9/new
FN:173,_ZnwmPv
FNDA:0,_ZnwmPv
DA:173,0
DA:174,0
end_of_record
SF:/usr/include/qt5/QtCore/qrefcount.h
FN:54,_ZN9QtPrivate8RefCount3refEv
FNDA:0,_ZN9QtPrivate8RefCount3refEv
FN:65,_ZN9QtPrivate8RefCount5derefEv
FNDA:0,_ZN9QtPrivate8RefCount5derefEv
FN:99,_ZNK9QtPrivate8RefCount8isSharedEv
FNDA:0,_ZNK9QtPrivate8RefCount8isSharedEv
DA:54,0
DA:55,0
DA:57,0
DA:58,0
DA:60,0
DA:61,0
DA:62,0
DA:65,0
DA:66,0
DA:68,0
DA:69,0
DA:71,0
DA:72,0
DA:73,0
DA:99,0
DA:101,0
DA:102,0
end_of_record
SF:/usr/include/qt5/QtCore/qshareddata.h
FN:127,_ZN18QSharedDataPointerI18QTextCursorPrivateE4swapERS1_
FNDA:0,_ZN18QSharedDataPointerI18QTextCursorPrivateE4swapERS1_
FN:300,_Z5qSwapI18QTextCursorPrivateEvR18QSharedDataPointerIT_ES4_
FNDA:0,_Z5qSwapI18QTextCursorPrivateEvR18QSharedDataPointerIT_ES4_
DA:127,0
DA:128,0
DA:300,0
DA:301,0
end_of_record
SF:/usr/include/c++/9/bits/stl_algobase.h
FN:198,_ZSt3minImERKT_S2_S2_
FNDA:0,_ZSt3minImERKT_S2_S2_
FN:222,_ZSt3maxImERKT_S2_S2_
FNDA:0,_ZSt3maxImERKT_S2_S2_
FN:280,_ZSt12__niter_baseIPiET_S1_
FNDA:0,_ZSt12__niter_baseIPiET_S1_
FN:295,_ZSt12__niter_wrapIPiET_RKS1_S1_
FNDA:0,_ZSt12__niter_wrapIPiET_RKS1_S1_
FN:375,_ZNSt11__copy_moveILb0ELb1ESt26random_access_iterator_tagE8__copy_mIiEEPT_PKS3_S6_S4_
FNDA:0,_ZNSt11__copy_moveILb0ELb1ESt26random_access_iterator_tagE8__copy_mIiEEPT_PKS3_S6_S4_
FN:393,_ZSt13__copy_move_aILb0EPKiPiET1_T0_S4_S3_
FNDA:0,_ZSt13__copy_move_aILb0EPKiPiET1_T0_S4_S3_
FN:438,_ZSt14__copy_move_a2ILb0EN9__gnu_cxx17__normal_iteratorIPKiSt6vectorIiSaIiEEEEPiET1_T0_SA_S9_
FNDA:0,_ZSt14__copy_move_a2ILb0EN9__gnu_cxx17__normal_iteratorIPKiSt6vectorIiSaIiEEEEPiET1_T0_SA_S9_
FN:465,_ZSt4copyIN9__gnu_cxx17__normal_iteratorIPKiSt6vectorIiSaIiEEEEPiET0_T_SA_S9_
FNDA:0,_ZSt4copyIN9__gnu_cxx17__normal_iteratorIPKiSt6vectorIiSaIiEEEEPiET0_T_SA_S9_
DA:198,0
DA:203,0
DA:204,0
DA:205,0
DA:222,0
DA:227,0
DA:228,0
DA:229,0
DA:280,0
DA:282,0
DA:295,0
DA:296,0
DA:375,0
DA:384,0
DA:385,0
DA:386,0
DA:387,0
DA:393,0
DA:398,0
DA:404,0
DA:438,0
DA:440,0
DA:443,0
DA:465,0
DA:474,0
end_of_record
SF:/usr/include/qt5/QtCore/qbasicatomic.h
FN:103,_ZNK19QBasicAtomicIntegerIiE4loadEv
FNDA:0,_ZNK19QBasicAtomicIntegerIiE4loadEv
FN:114,_ZN19QBasicAtomicIntegerIiE3refEv
FNDA:0,_ZN19QBasicAtomicIntegerIiE3refEv
FN:115,_ZN19QBasicAtomicIntegerIiE5derefEv
FNDA:0,_ZN19QBasicAtomicIntegerIiE5derefEv
FN:221,_ZN19QBasicAtomicIntegerIiEC2Ei
FNDA:0,_ZN19QBasicAtomicIntegerIiEC2Ei
DA:103,0
DA:114,0
DA:115,0
DA:221,0
end_of_record
SF:/usr/include/c++/9/bits/stl_construct.h
FN:117,_ZNSt12_Destroy_auxILb1EE9__destroyIPiEEvT_S3_
FNDA:0,_ZNSt12_Destroy_auxILb1EE9__destroyIPiEEvT_S3_
FN:127,_ZSt8_DestroyIPiEvT_S1_
FNDA:0,_ZSt8_DestroyIPiEvT_S1_
FN:203,_ZSt8_DestroyIPiiEvT_S1_RSaIT0_E
FNDA:0,_ZSt8_DestroyIPiiEvT_S1_RSaIT0_E
DA:117,0
DA:127,0
DA:137,0
DA:138,0
DA:203,0
DA:206,0
DA:207,0
end_of_record
SF:/usr/include/c++/9/bits/atomic_base.h
FN:99,_ZStanSt12memory_orderSt23__memory_order_modifier
FNDA:0,_ZStanSt12memory_orderSt23__memory_order_modifier
FN:279,_ZNSt13__atomic_baseIiEC2Ei
FNDA:0,_ZNSt13__atomic_baseIiEC2Ei
FN:318,_ZNSt13__atomic_baseIiEppEv
FNDA:0,_ZNSt13__atomic_baseIiEppEv
FN:326,_ZNSt13__atomic_baseIiEmmEv
FNDA:0,_ZNSt13__atomic_baseIiEmmEv
DA:99,0
DA:101,0
DA:279,0
DA:318,0
DA:319,0
DA:326,0
DA:327,0
DA:415,0
DA:419,0
end_of_record
SF:/usr/include/qt5/QtCore/qatomic.h
FN:60,_ZN14QAtomicIntegerIiEC2Ei
FNDA:0,_ZN14QAtomicIntegerIiEC2Ei
FN:162,_ZN10QAtomicIntC2Ei
FNDA:0,_ZN10QAtomicIntC2Ei
DA:60,0
DA:162,0
end_of_record
SF:/usr/include/c++/9/atomic
FN:759,_ZNSt6atomicIiEC2Ei
FNDA:0,_ZNSt6atomicIiEC2Ei
DA:759,0
end_of_record
SF:/usr/include/qt5/QtCore/qstring.h
FN:235,_ZN7QStringaSEOS_
FNDA:0,_ZN7QStringaSEOS_
FN:239,_ZNK7QString4sizeEv
FNDA:0,_ZNK7QString4sizeEv
FN:570,_ZN7QString8fromUtf8EPKci
FNDA:0,_ZN7QString8fromUtf8EPKci
FN:699,_ZN7QStringC2EPKc
FNDA:0,_ZN7QStringC2EPKc
FN:941,_ZNK7QString7isEmptyEv
FNDA:0,_ZNK7QString7isEmptyEv
FN:957,_ZN7QStringC2ERKS_
FNDA:0,_ZN7QStringC2ERKS_
FN:975,_ZNK7QString3argEiii5QChar
FNDA:0,_ZNK7QString3argEiii5QChar
FN:981,_ZNK7QString3argEmii5QChar
FNDA:0,_ZNK7QString3argEmii5QChar
FN:1134,_ZN7QStringC2Ev
FNDA:0,_ZN7QStringC2Ev
FN:1135,_ZN7QStringD2Ev
FNDA:0,_ZN7QStringD2Ev
DA:235,0
DA:236,0
DA:239,0
DA:570,0
DA:572,0
DA:699,0
DA:700,0
DA:701,0
DA:941,0
DA:942,0
DA:957,0
DA:958,0
DA:975,0
DA:976,0
DA:981,0
DA:982,0
DA:1134,0
DA:1135,0
end_of_record
SF:/usr/include/qt5/QtCore/qobject_impl.h
FN:73,_ZN9QtPrivate15ConnectionTypesINS_4ListIJEEELb1EE5typesEv
FNDA:0,_ZN9QtPrivate15ConnectionTypesINS_4ListIJEEELb1EE5typesEv
FN:75,_ZN9QtPrivate15ConnectionTypesINS_4ListIJRK7QStringEEELb1EE5typesEv
FNDA:0,_ZN9QtPrivate15ConnectionTypesINS_4ListIJRK7QStringEEELb1EE5typesEv
FN:75,_ZN9QtPrivate15ConnectionTypesINS_4ListIJbEEELb1EE5typesEv
FNDA:0,_ZN9QtPrivate15ConnectionTypesINS_4ListIJbEEELb1EE5typesEv
DA:73,0
DA:75,0
DA:75,0
end_of_record
SF:/usr/include/c++/9/ext/alloc_traits.h
FN:97,_ZN9__gnu_cxx14__alloc_traitsISaIiEiE17_S_select_on_copyERKS1_
FNDA:0,_ZN9__gnu_cxx14__alloc_traitsISaIiEiE17_S_select_on_copyERKS1_
DA:97,0
DA:98,0
end_of_record
SF:/usr/include/qt5/QtCore/qobject.h
FN:228,_ZN7QObject7connectIM9QLineEditFvvEM12SearchWidgetFvvEEEN11QMetaObject10ConnectionEPKN9QtPrivate15FunctionPointerIT_E6ObjectESB_PKNSA_IT0_E6ObjectESG_N2Qt14ConnectionTypeE
FNDA:0,_ZN7QObject7connectIM9QLineEditFvvEM12SearchWidgetFvvEEEN11QMetaObject10ConnectionEPKN9QtPrivate15FunctionPointerIT_E6ObjectESB_PKNSA_IT0_E6ObjectESG_N2Qt14ConnectionTypeE
FN:228,_ZN7QObject7connectIM9QLineEditFvRK7QStringEM12SearchWidgetFvS4_EEEN11QMetaObject10ConnectionEPKN9QtPrivate15FunctionPointerIT_E6ObjectESE_PKNSD_IT0_E6ObjectESJ_N2Qt14ConnectionTypeE
FNDA:0,_ZN7QObject7connectIM9QLineEditFvRK7QStringEM12SearchWidgetFvS4_EEEN11QMetaObject10ConnectionEPKN9QtPrivate15FunctionPointerIT_E6ObjectESE_PKNSD_IT0_E6ObjectESJ_N2Qt14ConnectionTypeE
FN:228,_ZN7QObject7connectIM14QPlainTextEditFvvEM12SearchWidgetFvvEEEN11QMetaObject10ConnectionEPKN9QtPrivate15FunctionPointerIT_E6ObjectESB_PKNSA_IT0_E6ObjectESG_N2Qt14ConnectionTypeE
FNDA:0,_ZN7QObject7connectIM14QPlainTextEditFvvEM12SearchWidgetFvvEEEN11QMetaObject10ConnectionEPKN9QtPrivate15FunctionPointerIT_E6ObjectESB_PKNSA_IT0_E6ObjectESG_N2Qt14ConnectionTypeE
FN:228,_ZN7QObject7connectIM15QAbstractButtonFvbEM12SearchWidgetFvvEEEN11QMetaObject10ConnectionEPKN9QtPrivate15FunctionPointerIT_E6ObjectESB_PKNSA_IT0_E6ObjectESG_N2Qt14ConnectionTypeE
FNDA:0,_ZN7QObject7connectIM15QAbstractButtonFvbEM12SearchWidgetFvvEEEN11QMetaObject10ConnectionEPKN9QtPrivate15FunctionPointerIT_E6ObjectESB_PKNSA_IT0_E6ObjectESG_N2Qt14ConnectionTypeE
DA:228,0
DA:246,0
DA:247,0
DA:248,0
DA:252,0
DA:254,0
DA:228,0
DA:246,0
DA:247,0
DA:248,0
DA:252,0
DA:254,0
DA:228,0
DA:246,0
DA:247,0
DA:248,0
DA:252,0
DA:254,0
DA:228,0
DA:246,0
DA:247,0
DA:248,0
DA:252,0
DA:254,0
end_of_record
SF:/usr/include/c++/9/bits/cpp_type_traits.h
FN:428,_ZSt12__miter_baseIN9__gnu_cxx17__normal_iteratorIPKiSt6vectorIiSaIiEEEEET_S8_
FNDA:0,_ZSt12__miter_baseIN9__gnu_cxx17__normal_iteratorIPKiSt6vectorIiSaIiEEEEET_S8_
DA:428,0
DA:429,0
end_of_record
SF:/usr/include/qt5/QtGui/qtextformat.h
FN:360,_ZN11QTextFormat13setBackgroundERK6QBrush
FNDA:0,_ZN11QTextFormat13setBackgroundERK6QBrush
DA:360,0
DA:361,0
end_of_record
SF:/usr/include/qt5/QtCore/qarraydata.h
FN:123,_ZN10QArrayData10sharedNullEv
FNDA:0,_ZN10QArrayData10sharedNullEv
FN:236,_ZN15QTypedArrayDataItE10deallocateEP10QArrayData
FNDA:0,_ZN15QTypedArrayDataItE10deallocateEP10QArrayData
FN:257,_ZN15QTypedArrayDataItE10sharedNullEv
FNDA:0,_ZN15QTypedArrayDataItE10sharedNullEv
DA:123,0
DA:236,0
DA:239,0
DA:240,0
DA:257,0
DA:260,0
end_of_record
SF:/usr/include/qt5/QtCore/qobjectdefs_impl.h
FN:88,_ZN9QtPrivate16ApplyReturnValueIvEC2EPv
FNDA:0,_ZN9QtPrivate16ApplyReturnValueIvEC2EPv
FN:151,_ZN9QtPrivate11FunctorCallINS_11IndexesListIJLi0EEEENS_4ListIJRK7QStringEEEvM12SearchWidgetFvS6_EE4callESA_PS8_PPv
FNDA:0,_ZN9QtPrivate11FunctorCallINS_11IndexesListIJLi0EEEENS_4ListIJRK7QStringEEEvM12SearchWidgetFvS6_EE4callESA_PS8_PPv
FN:151,_ZN9QtPrivate11FunctorCallINS_11IndexesListIJEEENS_4ListIJEEEvM12SearchWidgetFvvEE4callES7_PS5_PPv
FNDA:0,_ZN9QtPrivate11FunctorCallINS_11IndexesListIJEEENS_4ListIJEEEvM12SearchWidgetFvvEE4callES7_PS5_PPv
FN:184,_ZN9QtPrivate15FunctionPointerIM12SearchWidgetFvRK7QStringEE4callINS_4ListIJS4_EEEvEEvS6_PS1_PPv
FNDA:0,_ZN9QtPrivate15FunctionPointerIM12SearchWidgetFvRK7QStringEE4callINS_4ListIJS4_EEEvEEvS6_PS1_PPv
FN:184,_ZN9QtPrivate15FunctionPointerIM12SearchWidgetFvvEE4callINS_4ListIJEEEvEEvS3_PS1_PPv
FNDA:0,_ZN9QtPrivate15FunctionPointerIM12SearchWidgetFvvEE4callINS_4ListIJEEEvEEvS3_PS1_PPv
FN:387,_ZN9QtPrivate15QSlotObjectBaseC2EPFviPS0_P7QObjectPPvPbE
FNDA:0,_ZN9QtPrivate15QSlotObjectBaseC2EPFviPS0_P7QObjectPPvPbE
FN:396,_ZN9QtPrivate15QSlotObjectBaseD2Ev
FNDA:0,_ZN9QtPrivate15QSlotObjectBaseD2Ev
FN:407,_ZN9QtPrivate11QSlotObjectIM12SearchWidgetFvRK7QStringENS_4ListIJS4_EEEvE4implEiPNS_15QSlotObjectBaseEP7QObjectPPvPb
FNDA:0,_ZN9QtPrivate11QSlotObjectIM12SearchWidgetFvRK7QStringENS_4ListIJS4_EEEvE4implEiPNS_15QSlotObjectBaseEP7QObjectPPvPb
FN:407,_ZN9QtPrivate11QSlotObjectIM12SearchWidgetFvvENS_4ListIJEEEvE4implEiPNS_15QSlotObjectBaseEP7QObjectPPvPb
FNDA:0,_ZN9QtPrivate11QSlotObjectIM12SearchWidgetFvvENS_4ListIJEEEvE4implEiPNS_15QSlotObjectBaseEP7QObjectPPvPb
FN:423,_ZN9QtPrivate11QSlotObjectIM12SearchWidgetFvRK7QStringENS_4ListIJS4_EEEvEC2ES6_
FNDA:0,_ZN9QtPrivate11QSlotObjectIM12SearchWidgetFvRK7QStringENS_4ListIJS4_EEEvEC2ES6_
FN:423,_ZN9QtPrivate11QSlotObjectIM12SearchWidgetFvvENS_4ListIJEEEvEC2ES3_
FNDA:0,_ZN9QtPrivate11QSlotObjectIM12SearchWidgetFvvENS_4ListIJEEEvEC2ES3_
DA:88,0
DA:151,0
DA:152,0
DA:153,0
DA:151,0
DA:152,0
DA:153,0
DA:184,0
DA:185,0
DA:186,0
DA:184,0
DA:185,0
DA:186,0
DA:387,0
DA:396,0
DA:407,0
DA:409,0
DA:410,0
DA:411,0
DA:412,0
DA:413,0
DA:414,0
DA:415,0
DA:416,0
DA:417,0
DA:418,0
DA:419,0
DA:421,0
DA:407,0
DA:409,0
DA:410,0
DA:411,0
DA:412,0
DA:413,0
DA:414,0
DA:415,0
DA:416,0
DA:417,0
DA:418,0
DA:419,0
DA:421,0
DA:423,0
DA:423,0
end_of_record
SF:/home/oresky/school/nanonote/nanonote/lcov_build/src/nanonotelib_autogen/include/ui_SearchForm.h
FN:32,_ZN13Ui_SearchForm7setupUiEP7QWidget
FNDA:0,_ZN13Ui_SearchForm7setupUiEP7QWidget
FN:71,_ZN13Ui_SearchForm13retranslateUiEP7QWidget
FNDA:0,_ZN13Ui_SearchForm13retranslateUiEP7QWidget
DA:32,0
DA:34,0
DA:35,0
DA:36,0
DA:37,0
DA:38,0
DA:39,0
DA:40,0
DA:42,0
DA:44,0
DA:45,0
DA:47,0
DA:49,0
DA:50,0
DA:52,0
DA:54,0
DA:55,0
DA:57,0
DA:59,0
DA:60,0
DA:61,0
DA:63,0
DA:66,0
DA:68,0
DA:69,0
DA:71,0
DA:73,0
DA:74,0
DA:75,0
DA:76,0
DA:77,0
DA:78,0
end_of_record
SF:/usr/include/c++/9/bits/stl_vector.h
FN:94,_ZNSt12_Vector_baseIiSaIiEE17_Vector_impl_dataC2Ev
FNDA:0,_ZNSt12_Vector_baseIiSaIiEE17_Vector_impl_dataC2Ev
FN:128,_ZNSt12_Vector_baseIiSaIiEE12_Vector_implC2Ev
FNDA:0,_ZNSt12_Vector_baseIiSaIiEE12_Vector_implC2Ev
FN:133,_ZNSt12_Vector_baseIiSaIiEE12_Vector_implC2ERKS0_
FNDA:0,_ZNSt12_Vector_baseIiSaIiEE12_Vector_implC2ERKS0_
FN:273,_ZNSt12_Vector_baseIiSaIiEE19_M_get_Tp_allocatorEv
FNDA:0,_ZNSt12_Vector_baseIiSaIiEE19_M_get_Tp_allocatorEv
FN:277,_ZNKSt12_Vector_baseIiSaIiEE19_M_get_Tp_allocatorEv
FNDA:0,_ZNKSt12_Vector_baseIiSaIiEE19_M_get_Tp_allocatorEv
FN:285,_ZNSt12_Vector_baseIiSaIiEEC2Ev
FNDA:0,_ZNSt12_Vector_baseIiSaIiEEC2Ev
FN:300,_ZNSt12_Vector_baseIiSaIiEEC2EmRKS0_
FNDA:0,_ZNSt12_Vector_baseIiSaIiEEC2EmRKS0_
FN:330,_ZNSt12_Vector_baseIiSaIiEED2Ev
FNDA:0,_ZNSt12_Vector_baseIiSaIiEED2Ev
FN:340,_ZNSt12_Vector_baseIiSaIiEE11_M_allocateEm
FNDA:0,_ZNSt12_Vector_baseIiSaIiEE11_M_allocateEm
FN:347,_ZNSt12_Vector_baseIiSaIiEE13_M_deallocateEPim
FNDA:0,_ZNSt12_Vector_baseIiSaIiEE13_M_deallocateEPim
FN:356,_ZNSt12_Vector_baseIiSaIiEE17_M_create_storageEm
FNDA:0,_ZNSt12_Vector_baseIiSaIiEE17_M_create_storageEm
FN:450,_ZNSt6vectorIiSaIiEE14_S_do_relocateEPiS2_S2_RS0_St17integral_constantIbLb1EE
FNDA:0,_ZNSt6vectorIiSaIiEE14_S_do_relocateEPiS2_S2_RS0_St17integral_constantIbLb1EE
FN:462,_ZNSt6vectorIiSaIiEE11_S_relocateEPiS2_S2_RS0_
FNDA:0,_ZNSt6vectorIiSaIiEE11_S_relocateEPiS2_S2_RS0_
FN:484,_ZNSt6vectorIiSaIiEEC2Ev
FNDA:0,_ZNSt6vectorIiSaIiEEC2Ev
FN:550,_ZNSt6vectorIiSaIiEEC2ERKS1_
FNDA:0,_ZNSt6vectorIiSaIiEEC2ERKS1_
FN:675,_ZNSt6vectorIiSaIiEED2Ev
FNDA:0,_ZNSt6vectorIiSaIiEED2Ev
FN:808,_ZNSt6vectorIiSaIiEE5beginEv
FNDA:0,_ZNSt6vectorIiSaIiEE5beginEv
FN:817,_ZNKSt6vectorIiSaIiEE5beginEv
FNDA:0,_ZNKSt6vectorIiSaIiEE5beginEv
FN:826,_ZNSt6vectorIiSaIiEE3endEv
FNDA:0,_ZNSt6vectorIiSaIiEE3endEv
FN:835,_ZNKSt6vectorIiSaIiEE3endEv
FNDA:0,_ZNKSt6vectorIiSaIiEE3endEv
FN:915,_ZNKSt6vectorIiSaIiEE4sizeEv
FNDA:0,_ZNKSt6vectorIiSaIiEE4sizeEv
FN:920,_ZNKSt6vectorIiSaIiEE8max_sizeEv
FNDA:0,_ZNKSt6vectorIiSaIiEE8max_sizeEv
FN:1004,_ZNKSt6vectorIiSaIiEE5emptyEv
FNDA:0,_ZNKSt6vectorIiSaIiEE5emptyEv
FN:1040,_ZNSt6vectorIiSaIiEEixEm
FNDA:0,_ZNSt6vectorIiSaIiEEixEm
FN:1067,_ZNKSt6vectorIiSaIiEE14_M_range_checkEm
FNDA:0,_ZNKSt6vectorIiSaIiEE14_M_range_checkEm
FN:1089,_ZNSt6vectorIiSaIiEE2atEm
FNDA:0,_ZNSt6vectorIiSaIiEE2atEm
FN:1140,_ZNSt6vectorIiSaIiEE4backEv
FNDA:0,_ZNSt6vectorIiSaIiEE4backEv
FN:1200,_ZNSt6vectorIiSaIiEE9push_backEOi
FNDA:0,_ZNSt6vectorIiSaIiEE9push_backEOi
FN:1495,_ZNSt6vectorIiSaIiEE5clearEv
FNDA:0,_ZNSt6vectorIiSaIiEE5clearEv
FN:1753,_ZNKSt6vectorIiSaIiEE12_M_check_lenEmPKc
FNDA:0,_ZNKSt6vectorIiSaIiEE12_M_check_lenEmPKc
FN:1773,_ZNSt6vectorIiSaIiEE11_S_max_sizeERKS0_
FNDA:0,_ZNSt6vectorIiSaIiEE11_S_max_sizeERKS0_
FN:1789,_ZNSt6vectorIiSaIiEE15_M_erase_at_endEPi
FNDA:0,_ZNSt6vectorIiSaIiEE15_M_erase_at_endEPi
DA:94,0
DA:95,0
DA:96,0
DA:128,0
DA:130,0
DA:131,0
DA:133,0
DA:134,0
DA:135,0
DA:273,0
DA:274,0
DA:277,0
DA:278,0
DA:285,0
DA:300,0
DA:301,0
DA:302,0
DA:330,0
DA:332,0
DA:333,0
DA:334,0
DA:340,0
DA:343,0
DA:347,0
DA:350,0
DA:351,0
DA:352,0
DA:356,0
DA:358,0
DA:359,0
DA:360,0
DA:361,0
DA:450,0
DA:453,0
DA:462,0
DA:466,0
DA:484,0
DA:550,0
DA:552,0
DA:554,0
DA:555,0
DA:557,0
DA:558,0
DA:675,0
DA:677,0
DA:678,0
DA:680,0
DA:808,0
DA:809,0
DA:817,0
DA:818,0
DA:826,0
DA:827,0
DA:835,0
DA:836,0
DA:915,0
DA:916,0
DA:920,0
DA:921,0
DA:1004,0
DA:1005,0
DA:1040,0
DA:1043,0
DA:1067,0
DA:1069,0
DA:1070,0
DA:1074,0
DA:1089,0
DA:1091,0
DA:1092,0
DA:1140,0
DA:1143,0
DA:1200,0
DA:1201,0
DA:1495,0
DA:1496,0
DA:1753,0
DA:1755,0
DA:1756,0
DA:1758,0
DA:1759,0
DA:1773,0
DA:1778,0
DA:1780,0
DA:1781,0
DA:1789,0
DA:1791,0
DA:1793,0
DA:1794,0
DA:1795,0
DA:1798,0
end_of_record
SF:/usr/include/c++/9/bits/stl_iterator.h
FN:806,_ZN9__gnu_cxx17__normal_iteratorIPKiSt6vectorIiSaIiEEEC2ERKS2_
FNDA:0,_ZN9__gnu_cxx17__normal_iteratorIPKiSt6vectorIiSaIiEEEC2ERKS2_
FN:806,_ZN9__gnu_cxx17__normal_iteratorIPiSt6vectorIiSaIiEEEC2ERKS1_
FNDA:0,_ZN9__gnu_cxx17__normal_iteratorIPiSt6vectorIiSaIiEEEC2ERKS1_
FN:819,_ZNK9__gnu_cxx17__normal_iteratorIPiSt6vectorIiSaIiEEEdeEv
FNDA:0,_ZNK9__gnu_cxx17__normal_iteratorIPiSt6vectorIiSaIiEEEdeEv
FN:827,_ZN9__gnu_cxx17__normal_iteratorIPiSt6vectorIiSaIiEEEppEv
FNDA:0,_ZN9__gnu_cxx17__normal_iteratorIPiSt6vectorIiSaIiEEEppEv
FN:867,_ZNK9__gnu_cxx17__normal_iteratorIPiSt6vectorIiSaIiEEEmiEl
FNDA:0,_ZNK9__gnu_cxx17__normal_iteratorIPiSt6vectorIiSaIiEEEmiEl
FN:871,_ZNK9__gnu_cxx17__normal_iteratorIPKiSt6vectorIiSaIiEEE4baseEv
FNDA:0,_ZNK9__gnu_cxx17__normal_iteratorIPKiSt6vectorIiSaIiEEE4baseEv
FN:871,_ZNK9__gnu_cxx17__normal_iteratorIPiSt6vectorIiSaIiEEE4baseEv
FNDA:0,_ZNK9__gnu_cxx17__normal_iteratorIPiSt6vectorIiSaIiEEE4baseEv
FN:893,_ZN9__gnu_cxxeqIPKiSt6vectorIiSaIiEEEEbRKNS_17__normal_iteratorIT_T0_EESB_
FNDA:0,_ZN9__gnu_cxxeqIPKiSt6vectorIiSaIiEEEEbRKNS_17__normal_iteratorIT_T0_EESB_
FN:907,_ZN9__gnu_cxxneIPiSt6vectorIiSaIiEEEEbRKNS_17__normal_iteratorIT_T0_EESA_
FNDA:0,_ZN9__gnu_cxxneIPiSt6vectorIiSaIiEEEEbRKNS_17__normal_iteratorIT_T0_EESA_
FN:989,_ZN9__gnu_cxxmiIPiSt6vectorIiSaIiEEEENS_17__normal_iteratorIT_T0_E15difference_typeERKS8_SB_
FNDA:0,_ZN9__gnu_cxxmiIPiSt6vectorIiSaIiEEEENS_17__normal_iteratorIT_T0_E15difference_typeERKS8_SB_
FN:1010,_ZSt12__niter_baseIPKiSt6vectorIiSaIiEEET_N9__gnu_cxx17__normal_iteratorIS5_T0_EE
FNDA:0,_ZSt12__niter_baseIPKiSt6vectorIiSaIiEEET_N9__gnu_cxx17__normal_iteratorIS5_T0_EE
DA:806,0
DA:807,0
DA:806,0
DA:807,0
DA:819,0
DA:820,0
DA:827,0
DA:829,0
DA:830,0
DA:867,0
DA:868,0
DA:871,0
DA:872,0
DA:871,0
DA:872,0
DA:893,0
DA:896,0
DA:907,0
DA:910,0
DA:989,0
DA:992,0
DA:1010,0
DA:1012,0
end_of_record
SF:/usr/include/qt5/QtCore/qsize.h
FN:119,_ZN5QSizeC2Eii
FNDA:0,_ZN5QSizeC2Eii
DA:119,0
end_of_record
SF:/usr/include/c++/9/bits/alloc_traits.h
FN:443,_ZNSt16allocator_traitsISaIiEE8allocateERS0_m
FNDA:0,_ZNSt16allocator_traitsISaIiEE8allocateERS0_m
FN:469,_ZNSt16allocator_traitsISaIiEE10deallocateERS0_Pim
FNDA:0,_ZNSt16allocator_traitsISaIiEE10deallocateERS0_Pim
FN:482,_ZNSt16allocator_traitsISaIiEE9constructIiJiEEEvRS0_PT_DpOT0_
FNDA:0,_ZNSt16allocator_traitsISaIiEE9constructIiJiEEEvRS0_PT_DpOT0_
FN:505,_ZNSt16allocator_traitsISaIiEE8max_sizeERKS0_
FNDA:0,_ZNSt16allocator_traitsISaIiEE8max_sizeERKS0_
FN:514,_ZNSt16allocator_traitsISaIiEE37select_on_container_copy_constructionERKS0_
FNDA:0,_ZNSt16allocator_traitsISaIiEE37select_on_container_copy_constructionERKS0_
DA:443,0
DA:444,0
DA:469,0
DA:470,0
DA:482,0
DA:484,0
DA:505,0
DA:506,0
DA:514,0
DA:515,0
end_of_record
SF:/usr/include/c++/9/iostream
end_of_record
SF:/home/oresky/school/nanonote/nanonote/src/SearchWidget.h
end_of_record
SF:/usr/include/qt5/QtCore/qglobal.h
FN:911,_Z5qSwapIP18QTextCursorPrivateEvRT_S3_
FNDA:0,_Z5qSwapIP18QTextCursorPrivateEvRT_S3_
FN:911,_Z5qSwapIP15QTypedArrayDataItEEvRT_S4_
FNDA:0,_Z5qSwapIP15QTypedArrayDataItEEvRT_S4_
DA:911,0
DA:915,0
DA:916,0
DA:911,0
DA:915,0
DA:916,0
end_of_record
SF:/usr/include/qt5/QtCore/qlist.h
FN:75,_ZN19QListSpecialMethodsIN9QTextEdit14ExtraSelectionEED2Ev
FNDA:0,_ZN19QListSpecialMethodsIN9QTextEdit14ExtraSelectionEED2Ev
FN:100,_ZN9QListData7disposeEv
FNDA:0,_ZN9QListData7disposeEv
FN:116,_ZNK9QListData5beginEv
FNDA:0,_ZNK9QListData5beginEv
FN:117,_ZNK9QListData3endEv
FNDA:0,_ZNK9QListData3endEv
FN:151,_ZN5QListIN9QTextEdit14ExtraSelectionEEC2Ev
FNDA:0,_ZN5QListIN9QTextEdit14ExtraSelectionEEC2Ev
FN:436,_ZN5QListIN9QTextEdit14ExtraSelectionEE14node_constructEPNS2_4NodeERKS1_
FNDA:0,_ZN5QListIN9QTextEdit14ExtraSelectionEE14node_constructEPNS2_4NodeERKS1_
FN:459,_ZN5QListIN9QTextEdit14ExtraSelectionEE9node_copyEPNS2_4NodeES4_S4_
FNDA:0,_ZN5QListIN9QTextEdit14ExtraSelectionEE9node_copyEPNS2_4NodeES4_S4_
FN:494,_ZN5QListIN9QTextEdit14ExtraSelectionEE13node_destructEPNS2_4NodeES4_
FNDA:0,_ZN5QListIN9QTextEdit14ExtraSelectionEE13node_destructEPNS2_4NodeES4_
FN:582,_ZN5QListIN9QTextEdit14ExtraSelectionEE6appendERKS1_
FNDA:0,_ZN5QListIN9QTextEdit14ExtraSelectionEE6appendERKS1_
FN:756,_ZN5QListIN9QTextEdit14ExtraSelectionEE18detach_helper_growEii
FNDA:0,_ZN5QListIN9QTextEdit14ExtraSelectionEE18detach_helper_growEii
FN:827,_ZN5QListIN9QTextEdit14ExtraSelectionEED2Ev
FNDA:0,_ZN5QListIN9QTextEdit14ExtraSelectionEED2Ev
FN:866,_ZN5QListIN9QTextEdit14ExtraSelectionEE7deallocEPN9QListData4DataE
FNDA:0,_ZN5QListIN9QTextEdit14ExtraSelectionEE7deallocEPN9QListData4DataE
DA:75,0
DA:100,0
DA:116,0
DA:117,0
DA:151,0
DA:436,0
DA:438,0
DA:449,0
DA:459,0
DA:461,0
DA:464,0
DA:465,0
DA:466,0
DA:467,0
DA:469,0
DA:470,0
DA:471,0
DA:472,0
DA:491,0
DA:494,0
DA:497,0
DA:500,0
DA:582,0
DA:584,0
DA:585,0
DA:587,0
DA:588,0
DA:589,0
DA:590,0
DA:594,0
DA:596,0
DA:597,0
DA:598,0
DA:599,0
DA:613,0
DA:756,0
DA:758,0
DA:759,0
DA:761,0
DA:762,0
DA:763,0
DA:764,0
DA:765,0
DA:766,0
DA:769,0
DA:770,0
DA:771,0
DA:772,0
DA:773,0
DA:774,0
DA:775,0
DA:776,0
DA:779,0
DA:780,0
DA:782,0
DA:827,0
DA:829,0
DA:830,0
DA:831,0
DA:866,0
DA:868,0
DA:869,0
DA:870,0
DA:871,0
end_of_record
TN:
SF:/home/oresky/school/nanonote/nanonote/src/TextEdit.h
end_of_record
SF:/usr/include/qt5/QtGui/qevent.h
FN:527,_ZNK17QContextMenuEvent3posEv
FNDA:0,_ZNK17QContextMenuEvent3posEv
FN:528,_ZNK17QContextMenuEvent9globalPosEv
FNDA:0,_ZNK17QContextMenuEvent9globalPosEv
DA:527,0
DA:528,0
end_of_record
SF:/usr/include/c++/9/tuple
FN:76,_ZNSt10_Head_baseILm1ESt14default_deleteI5QMenuELb1EEC2Ev
FNDA:0,_ZNSt10_Head_baseILm1ESt14default_deleteI5QMenuELb1EEC2Ev
FN:113,_ZNSt10_Head_baseILm1ESt14default_deleteI5QMenuELb1EE7_M_headERS3_
FNDA:0,_ZNSt10_Head_baseILm1ESt14default_deleteI5QMenuELb1EE7_M_headERS3_
FN:122,_ZNSt10_Head_baseILm0EP5QMenuLb0EEC2Ev
FNDA:0,_ZNSt10_Head_baseILm0EP5QMenuLb0EEC2Ev
FN:160,_ZNSt10_Head_baseILm0EP5QMenuLb0EE7_M_headERS2_
FNDA:0,_ZNSt10_Head_baseILm0EP5QMenuLb0EE7_M_headERS2_
FN:163,_ZNSt10_Head_baseILm0EP5QMenuLb0EE7_M_headERKS2_
FNDA:0,_ZNSt10_Head_baseILm0EP5QMenuLb0EE7_M_headERKS2_
FN:195,_ZNSt11_Tuple_implILm0EJP5QMenuSt14default_deleteIS0_EEE7_M_headERS4_
FNDA:0,_ZNSt11_Tuple_implILm0EJP5QMenuSt14default_deleteIS0_EEE7_M_headERS4_
FN:198,_ZNSt11_Tuple_implILm0EJP5QMenuSt14default_deleteIS0_EEE7_M_headERKS4_
FNDA:0,_ZNSt11_Tuple_implILm0EJP5QMenuSt14default_deleteIS0_EEE7_M_headERKS4_
FN:206,_ZNSt11_Tuple_implILm0EJP5QMenuSt14default_deleteIS0_EEEC2Ev
FNDA:0,_ZNSt11_Tuple_implILm0EJP5QMenuSt14default_deleteIS0_EEEC2Ev
FN:334,_ZNSt11_Tuple_implILm1EJSt14default_deleteI5QMenuEEE7_M_headERS3_
FNDA:0,_ZNSt11_Tuple_implILm1EJSt14default_deleteI5QMenuEEE7_M_headERS3_
FN:339,_ZNSt11_Tuple_implILm1EJSt14default_deleteI5QMenuEEEC2Ev
FNDA:0,_ZNSt11_Tuple_implILm1EJSt14default_deleteI5QMenuEEEC2Ev
FN:918,_ZNSt5tupleIJP5QMenuSt14default_deleteIS0_EEEC2IS1_S3_Lb1EEEv
FNDA:0,_ZNSt5tupleIJP5QMenuSt14default_deleteIS0_EEEC2IS1_S3_Lb1EEEv
FN:1309,_ZSt12__get_helperILm1ESt14default_deleteI5QMenuEJEERT0_RSt11_Tuple_implIXT_EJS3_DpT1_EE
FNDA:0,_ZSt12__get_helperILm1ESt14default_deleteI5QMenuEJEERT0_RSt11_Tuple_implIXT_EJS3_DpT1_EE
FN:1309,_ZSt12__get_helperILm0EP5QMenuJSt14default_deleteIS0_EEERT0_RSt11_Tuple_implIXT_EJS4_DpT1_EE
FNDA:0,_ZSt12__get_helperILm0EP5QMenuJSt14default_deleteIS0_EEERT0_RSt11_Tuple_implIXT_EJS4_DpT1_EE
FN:1314,_ZSt12__get_helperILm0EP5QMenuJSt14default_deleteIS0_EEERKT0_RKSt11_Tuple_implIXT_EJS4_DpT1_EE
FNDA:0,_ZSt12__get_helperILm0EP5QMenuJSt14default_deleteIS0_EEERKT0_RKSt11_Tuple_implIXT_EJS4_DpT1_EE
FN:1320,_ZSt3getILm1EJP5QMenuSt14default_deleteIS0_EEERNSt13tuple_elementIXT_ESt5tupleIJDpT0_EEE4typeERS8_
FNDA:0,_ZSt3getILm1EJP5QMenuSt14default_deleteIS0_EEERNSt13tuple_elementIXT_ESt5tupleIJDpT0_EEE4typeERS8_
FN:1320,_ZSt3getILm0EJP5QMenuSt14default_deleteIS0_EEERNSt13tuple_elementIXT_ESt5tupleIJDpT0_EEE4typeERS8_
FNDA:0,_ZSt3getILm0EJP5QMenuSt14default_deleteIS0_EEERNSt13tuple_elementIXT_ESt5tupleIJDpT0_EEE4typeERS8_
FN:1326,_ZSt3getILm0EJP5QMenuSt14default_deleteIS0_EEERKNSt13tuple_elementIXT_ESt5tupleIJDpT0_EEE4typeERKS8_
FNDA:0,_ZSt3getILm0EJP5QMenuSt14default_deleteIS0_EEERKNSt13tuple_elementIXT_ESt5tupleIJDpT0_EEE4typeERKS8_
DA:76,0
DA:77,0
DA:113,0
DA:122,0
DA:123,0
DA:160,0
DA:163,0
DA:195,0
DA:198,0
DA:206,0
DA:207,0
DA:334,0
DA:339,0
DA:340,0
DA:918,0
DA:919,0
DA:1309,0
DA:1310,0
DA:1309,0
DA:1310,0
DA:1314,0
DA:1315,0
DA:1320,0
DA:1321,0
DA:1320,0
DA:1321,0
DA:1326,0
DA:1327,0
end_of_record
SF:/home/oresky/school/nanonote/nanonote/src/TextEdit.cpp
FN:12,_ZN17TextEditExtensionC2EP8TextEdit
FNDA:14,_ZN17TextEditExtensionC2EP8TextEdit
FN:17,_ZN17TextEditExtension22aboutToShowContextMenuEP5QMenuRK6QPoint
FNDA:0,_ZN17TextEditExtension22aboutToShowContextMenuEP5QMenuRK6QPoint
FN:20,_ZN17TextEditExtension8keyPressEP9QKeyEvent
FNDA:0,_ZN17TextEditExtension8keyPressEP9QKeyEvent
FN:24,_ZN17TextEditExtension10keyReleaseEP9QKeyEvent
FNDA:16,_ZN17TextEditExtension10keyReleaseEP9QKeyEvent
FN:28,_ZN17TextEditExtension12mouseReleaseEP11QMouseEvent
FNDA:0,_ZN17TextEditExtension12mouseReleaseEP11QMouseEvent
FN:32,_ZN17TextEditExtension5wheelEP11QWheelEvent
FNDA:0,_ZN17TextEditExtension5wheelEP11QWheelEvent
FN:37,_ZN8TextEditC2EP7QWidget
FNDA:14,_ZN8TextEditC2EP7QWidget
FN:43,_ZN8TextEdit16contextMenuEventEP17QContextMenuEvent
FNDA:0,_ZN8TextEdit16contextMenuEventEP17QContextMenuEvent
FN:54,_ZN8TextEdit13keyPressEventEP9QKeyEvent
FNDA:16,_ZN8TextEdit13keyPressEventEP9QKeyEvent
FN:64,_ZN8TextEdit15keyReleaseEventEP9QKeyEvent
FNDA:16,_ZN8TextEdit15keyReleaseEventEP9QKeyEvent
FN:74,_ZN8TextEdit17mouseReleaseEventEP11QMouseEvent
FNDA:0,_ZN8TextEdit17mouseReleaseEventEP11QMouseEvent
FN:84,_ZN8TextEdit10wheelEventEP11QWheelEvent
FNDA:0,_ZN8TextEdit10wheelEventEP11QWheelEvent
FN:94,_ZN8TextEdit12addExtensionEP17TextEditExtension
FNDA:14,_ZN8TextEdit12addExtensionEP17TextEditExtension
DA:12,14
DA:14,14
DA:15,14
DA:17,0
DA:18,0
DA:20,0
DA:21,0
DA:24,16
DA:25,16
DA:28,0
DA:29,0
DA:32,0
DA:33,0
DA:37,14
DA:38,14
DA:40,14
DA:41,14
DA:43,0
DA:45,0
DA:46,0
DA:47,0
DA:48,0
DA:49,0
DA:51,0
DA:52,0
DA:54,16
DA:56,17
DA:57,16
DA:58,15
DA:61,1
DA:64,16
DA:66,32
DA:67,16
DA:68,0
DA:71,16
DA:74,0
DA:76,0
DA:77,0
DA:78,0
DA:81,0
DA:84,0
DA:86,0
DA:87,0
DA:88,0
DA:91,0
DA:94,14
DA:96,14
DA:97,14
end_of_record
SF:/usr/include/qt5/QtCore/qlist.h
FN:75,_ZN19QListSpecialMethodsIP17TextEditExtensionED2Ev
FNDA:14,_ZN19QListSpecialMethodsIP17TextEditExtensionED2Ev
FN:100,_ZN9QListData7disposeEv
FNDA:0,_ZN9QListData7disposeEv
FN:116,_ZNK9QListData5beginEv
FNDA:0,_ZNK9QListData5beginEv
FN:117,_ZNK9QListData3endEv
FNDA:0,_ZNK9QListData3endEv
FN:142,_ZN5QListIP17TextEditExtensionE4Node1tEv
FNDA:32,_ZN5QListIP17TextEditExtensionE4Node1tEv
FN:151,_ZN5QListIP17TextEditExtensionEC2Ev
FNDA:14,_ZN5QListIP17TextEditExtensionEC2Ev
FN:172,_ZN5QListIP17TextEditExtensionE6detachEv
FNDA:64,_ZN5QListIP17TextEditExtensionE6detachEv
FN:235,_ZN5QListIP17TextEditExtensionE8iteratorC2EPNS2_4NodeE
FNDA:64,_ZN5QListIP17TextEditExtensionE8iteratorC2EPNS2_4NodeE
FN:241,_ZNK5QListIP17TextEditExtensionE8iteratordeEv
FNDA:32,_ZNK5QListIP17TextEditExtensionE8iteratordeEv
FN:245,_ZNK5QListIP17TextEditExtensionE8iteratorneERKS3_
FNDA:49,_ZNK5QListIP17TextEditExtensionE8iteratorneERKS3_
FN:264,_ZN5QListIP17TextEditExtensionE8iteratorppEv
FNDA:17,_ZN5QListIP17TextEditExtensionE8iteratorppEv
FN:324,_ZN5QListIP17TextEditExtensionE5beginEv
FNDA:32,_ZN5QListIP17TextEditExtensionE5beginEv
FN:328,_ZN5QListIP17TextEditExtensionE3endEv
FNDA:32,_ZN5QListIP17TextEditExtensionE3endEv
FN:387,_ZN5QListIP17TextEditExtensionElsERKS1_
FNDA:14,_ZN5QListIP17TextEditExtensionElsERKS1_
FN:436,_ZN5QListIP17TextEditExtensionE14node_constructEPNS2_4NodeERKS1_
FNDA:14,_ZN5QListIP17TextEditExtensionE14node_constructEPNS2_4NodeERKS1_
FN:452,_ZN5QListIP17TextEditExtensionE13node_destructEPNS2_4NodeE
FNDA:0,_ZN5QListIP17TextEditExtensionE13node_destructEPNS2_4NodeE
FN:459,_ZN5QListIP17TextEditExtensionE9node_copyEPNS2_4NodeES4_S4_
FNDA:28,_ZN5QListIP17TextEditExtensionE9node_copyEPNS2_4NodeES4_S4_
FN:494,_ZN5QListIP17TextEditExtensionE13node_destructEPNS2_4NodeES4_
FNDA:14,_ZN5QListIP17TextEditExtensionE13node_destructEPNS2_4NodeES4_
FN:582,_ZN5QListIP17TextEditExtensionE6appendERKS1_
FNDA:14,_ZN5QListIP17TextEditExtensionE6appendERKS1_
FN:756,_ZN5QListIP17TextEditExtensionE18detach_helper_growEii
FNDA:14,_ZN5QListIP17TextEditExtensionE18detach_helper_growEii
FN:786,_ZN5QListIP17TextEditExtensionE13detach_helperEi
FNDA:0,_ZN5QListIP17TextEditExtensionE13detach_helperEi
FN:803,_ZN5QListIP17TextEditExtensionE13detach_helperEv
FNDA:0,_ZN5QListIP17TextEditExtensionE13detach_helperEv
FN:827,_ZN5QListIP17TextEditExtensionED2Ev
FNDA:14,_ZN5QListIP17TextEditExtensionED2Ev
FN:866,_ZN5QListIP17TextEditExtensionE7deallocEPN9QListData4DataE
FNDA:14,_ZN5QListIP17TextEditExtensionE7deallocEPN9QListData4DataE
DA:75,14
DA:100,0
DA:116,0
DA:117,0
DA:142,32
DA:144,32
DA:151,14
DA:172,64
DA:235,64
DA:241,32
DA:245,49
DA:264,17
DA:324,32
DA:328,32
DA:387,14
DA:388,14
DA:436,14
DA:444,14
DA:449,14
DA:452,0
DA:456,0
DA:459,28
DA:461,28
DA:488,28
DA:489,0
DA:491,28
DA:494,14
DA:500,14
DA:582,14
DA:584,14
DA:585,14
DA:587,14
DA:588,0
DA:589,0
DA:590,0
DA:603,0
DA:605,0
DA:606,0
DA:607,0
DA:608,0
DA:610,0
DA:613,14
DA:756,14
DA:758,14
DA:759,14
DA:761,14
DA:762,14
DA:763,0
DA:764,0
DA:765,0
DA:766,0
DA:769,14
DA:770,14
DA:771,0
DA:772,0
DA:773,0
DA:774,0
DA:775,0
DA:776,0
DA:779,14
DA:780,0
DA:782,14
DA:786,0
DA:788,0
DA:789,0
DA:791,0
DA:792,0
DA:793,0
DA:794,0
DA:795,0
DA:798,0
DA:799,0
DA:800,0
DA:803,0
DA:805,0
DA:806,0
DA:827,14
DA:829,14
DA:830,14
DA:831,14
DA:866,14
DA:868,14
DA:869,14
DA:870,14
DA:871,14
end_of_record
SF:/usr/include/qt5/QtCore/qatomic_cxx11.h
FN:225,_ZN10QAtomicOpsIiE4loadIiEET_RKSt6atomicIS2_E
FNDA:0,_ZN10QAtomicOpsIiE4loadIiEET_RKSt6atomicIS2_E
FN:269,_ZN10QAtomicOpsIiE5derefIiEEbRSt6atomicIT_E
FNDA:0,_ZN10QAtomicOpsIiE5derefIiEEbRSt6atomicIT_E
DA:225,0
DA:227,0
DA:269,0
DA:271,0
end_of_record
SF:/usr/include/c++/9/bits/move.h
FN:99,_ZSt4moveIRP5QMenuEONSt16remove_referenceIT_E4typeEOS4_
FNDA:0,_ZSt4moveIRP5QMenuEONSt16remove_referenceIT_E4typeEOS4_
DA:99,0
DA:100,0
end_of_record
SF:/usr/include/qt5/QtCore/qrefcount.h
FN:65,_ZN9QtPrivate8RefCount5derefEv
FNDA:0,_ZN9QtPrivate8RefCount5derefEv
FN:99,_ZNK9QtPrivate8RefCount8isSharedEv
FNDA:0,_ZNK9QtPrivate8RefCount8isSharedEv
DA:65,0
DA:66,0
DA:68,0
DA:69,0
DA:71,0
DA:72,0
DA:73,0
DA:99,0
DA:101,0
DA:102,0
end_of_record
SF:/usr/include/c++/9/bits/unique_ptr.h
FN:75,_ZNKSt14default_deleteI5QMenuEclEPS0_
FNDA:0,_ZNKSt14default_deleteI5QMenuEclEPS0_
FN:147,_ZNSt15__uniq_ptr_implI5QMenuSt14default_deleteIS0_EEC2EPS0_
FNDA:0,_ZNSt15__uniq_ptr_implI5QMenuSt14default_deleteIS0_EEC2EPS0_
FN:153,_ZNSt15__uniq_ptr_implI5QMenuSt14default_deleteIS0_EE6_M_ptrEv
FNDA:0,_ZNSt15__uniq_ptr_implI5QMenuSt14default_deleteIS0_EE6_M_ptrEv
FN:154,_ZNKSt15__uniq_ptr_implI5QMenuSt14default_deleteIS0_EE6_M_ptrEv
FNDA:0,_ZNKSt15__uniq_ptr_implI5QMenuSt14default_deleteIS0_EE6_M_ptrEv
FN:155,_ZNSt15__uniq_ptr_implI5QMenuSt14default_deleteIS0_EE10_M_deleterEv
FNDA:0,_ZNSt15__uniq_ptr_implI5QMenuSt14default_deleteIS0_EE10_M_deleterEv
FN:203,_ZNSt10unique_ptrI5QMenuSt14default_deleteIS0_EEC2IS2_vEEPS0_
FNDA:0,_ZNSt10unique_ptrI5QMenuSt14default_deleteIS0_EEC2IS2_vEEPS0_
FN:278,_ZNSt10unique_ptrI5QMenuSt14default_deleteIS0_EED2Ev
FNDA:0,_ZNSt10unique_ptrI5QMenuSt14default_deleteIS0_EED2Ev
FN:344,_ZNKSt10unique_ptrI5QMenuSt14default_deleteIS0_EEptEv
FNDA:0,_ZNKSt10unique_ptrI5QMenuSt14default_deleteIS0_EEptEv
FN:352,_ZNKSt10unique_ptrI5QMenuSt14default_deleteIS0_EE3getEv
FNDA:0,_ZNKSt10unique_ptrI5QMenuSt14default_deleteIS0_EE3getEv
FN:357,_ZNSt10unique_ptrI5QMenuSt14default_deleteIS0_EE11get_deleterEv
FNDA:0,_ZNSt10unique_ptrI5QMenuSt14default_deleteIS0_EE11get_deleterEv
DA:75,0
DA:81,0
DA:82,0
DA:147,0
DA:153,0
DA:154,0
DA:155,0
DA:203,0
DA:204,0
DA:205,0
DA:278,0
DA:282,0
DA:283,0
DA:284,0
DA:285,0
DA:286,0
DA:344,0
DA:347,0
DA:352,0
DA:353,0
DA:357,0
DA:358,0
end_of_record
SF:/usr/include/qt5/QtCore/qbasicatomic.h
FN:103,_ZNK19QBasicAtomicIntegerIiE4loadEv
FNDA:0,_ZNK19QBasicAtomicIntegerIiE4loadEv
FN:115,_ZN19QBasicAtomicIntegerIiE5derefEv
FNDA:0,_ZN19QBasicAtomicIntegerIiE5derefEv
DA:103,0
DA:115,0
end_of_record
SF:/usr/include/c++/9/bits/atomic_base.h
FN:99,_ZStanSt12memory_orderSt23__memory_order_modifier
FNDA:0,_ZStanSt12memory_orderSt23__memory_order_modifier
FN:326,_ZNSt13__atomic_baseIiEmmEv
FNDA:0,_ZNSt13__atomic_baseIiEmmEv
DA:99,0
DA:101,0
DA:326,0
DA:327,0
DA:415,0
DA:419,0
end_of_record
TN:
SF:/usr/include/c++/9/new
FN:173,_ZnwmPv
FNDA:0,_ZnwmPv
FN:179,_ZdlPvS_
FNDA:0,_ZdlPvS_
DA:173,0
DA:174,0
DA:179,0
end_of_record
SF:/usr/include/qt5/QtCore/qrefcount.h
FN:54,_ZN9QtPrivate8RefCount3refEv
FNDA:0,_ZN9QtPrivate8RefCount3refEv
FN:65,_ZN9QtPrivate8RefCount5derefEv
FNDA:0,_ZN9QtPrivate8RefCount5derefEv
FN:99,_ZNK9QtPrivate8RefCount8isSharedEv
FNDA:0,_ZNK9QtPrivate8RefCount8isSharedEv
DA:54,0
DA:55,0
DA:57,0
DA:58,0
DA:60,0
DA:61,0
DA:62,0
DA:65,0
DA:66,0
DA:68,0
DA:69,0
DA:71,0
DA:72,0
DA:73,0
DA:99,0
DA:101,0
DA:102,0
end_of_record
SF:/usr/include/c++/9/bits/stl_algobase.h
FN:198,_ZSt3minIiERKT_S2_S2_
FNDA:0,_ZSt3minIiERKT_S2_S2_
FN:280,_ZSt12__niter_baseISt20back_insert_iteratorI5QListI12QKeySequenceEEET_S5_
FNDA:14,_ZSt12__niter_baseISt20back_insert_iteratorI5QListI12QKeySequenceEEET_S5_
FN:280,_ZSt12__niter_baseIPK12QKeySequenceET_S3_
FNDA:28,_ZSt12__niter_baseIPK12QKeySequenceET_S3_
FN:295,_ZSt12__niter_wrapISt20back_insert_iteratorI5QListI12QKeySequenceEEET_RKS5_S5_
FNDA:14,_ZSt12__niter_wrapISt20back_insert_iteratorI5QListI12QKeySequenceEEET_RKS5_S5_
FN:337,_ZNSt11__copy_moveILb0ELb0ESt26random_access_iterator_tagE8__copy_mIPK12QKeySequenceSt20back_insert_iteratorI5QListIS3_EEEET0_T_SB_SA_
FNDA:14,_ZNSt11__copy_moveILb0ELb0ESt26random_access_iterator_tagE8__copy_mIPK12QKeySequenceSt20back_insert_iteratorI5QListIS3_EEEET0_T_SB_SA_
FN:393,_ZSt13__copy_move_aILb0EPK12QKeySequenceSt20back_insert_iteratorI5QListIS0_EEET1_T0_S8_S7_
FNDA:14,_ZSt13__copy_move_aILb0EPK12QKeySequenceSt20back_insert_iteratorI5QListIS0_EEET1_T0_S8_S7_
FN:438,_ZSt14__copy_move_a2ILb0EPK12QKeySequenceSt20back_insert_iteratorI5QListIS0_EEET1_T0_S8_S7_
FNDA:14,_ZSt14__copy_move_a2ILb0EPK12QKeySequenceSt20back_insert_iteratorI5QListIS0_EEET1_T0_S8_S7_
FN:465,_ZSt4copyIPK12QKeySequenceSt20back_insert_iteratorI5QListIS0_EEET0_T_S8_S7_
FNDA:14,_ZSt4copyIPK12QKeySequenceSt20back_insert_iteratorI5QListIS0_EEET0_T_S8_S7_
DA:198,0
DA:203,0
DA:204,0
DA:205,0
DA:280,14
DA:282,14
DA:280,28
DA:282,28
DA:295,14
DA:296,14
DA:337,14
DA:340,42
DA:342,28
DA:343,28
DA:344,28
DA:346,14
DA:393,14
DA:398,14
DA:404,14
DA:438,14
DA:440,14
DA:443,14
DA:465,14
DA:474,14
end_of_record
SF:/usr/include/qt5/QtCore/qbasicatomic.h
FN:103,_ZNK19QBasicAtomicIntegerIiE4loadEv
FNDA:0,_ZNK19QBasicAtomicIntegerIiE4loadEv
FN:114,_ZN19QBasicAtomicIntegerIiE3refEv
FNDA:0,_ZN19QBasicAtomicIntegerIiE3refEv
FN:115,_ZN19QBasicAtomicIntegerIiE5derefEv
FNDA:0,_ZN19QBasicAtomicIntegerIiE5derefEv
FN:221,_ZN19QBasicAtomicIntegerIiEC2Ei
FNDA:0,_ZN19QBasicAtomicIntegerIiEC2Ei
DA:103,0
DA:114,0
DA:115,0
DA:221,0
end_of_record
SF:/usr/include/c++/9/bits/atomic_base.h
FN:99,_ZStanSt12memory_orderSt23__memory_order_modifier
FNDA:0,_ZStanSt12memory_orderSt23__memory_order_modifier
FN:279,_ZNSt13__atomic_baseIiEC2Ei
FNDA:0,_ZNSt13__atomic_baseIiEC2Ei
FN:318,_ZNSt13__atomic_baseIiEppEv
FNDA:0,_ZNSt13__atomic_baseIiEppEv
FN:326,_ZNSt13__atomic_baseIiEmmEv
FNDA:0,_ZNSt13__atomic_baseIiEmmEv
DA:99,0
DA:101,0
DA:279,0
DA:318,0
DA:319,0
DA:326,0
DA:327,0
DA:415,0
DA:419,0
end_of_record
SF:/usr/include/qt5/QtCore/qstring.h
FN:234,_ZN7QStringC2EOS_
FNDA:1,_ZN7QStringC2EOS_
FN:235,_ZN7QStringaSEOS_
FNDA:0,_ZN7QStringaSEOS_
FN:239,_ZNK7QString4sizeEv
FNDA:0,_ZNK7QString4sizeEv
FN:468,_ZN7QString7prependE5QChar
FNDA:1,_ZN7QString7prependE5QChar
FN:699,_ZN7QStringC2EPKc
FNDA:0,_ZN7QStringC2EPKc
FN:933,_ZNK7QString6lengthEv
FNDA:0,_ZNK7QString6lengthEv
FN:935,_ZNK7QString2atEi
FNDA:12,_ZNK7QString2atEi
FN:937,_ZNK7QStringixEi
FNDA:15,_ZNK7QStringixEi
FN:957,_ZN7QStringC2ERKS_
FNDA:0,_ZN7QStringC2ERKS_
FN:1134,_ZN7QStringC2Ev
FNDA:0,_ZN7QStringC2Ev
FN:1135,_ZN7QStringD2Ev
FNDA:0,_ZN7QStringD2Ev
FN:1190,_ZNK7QString8containsE5QCharN2Qt15CaseSensitivityE
FNDA:10,_ZNK7QString8containsE5QCharN2Qt15CaseSensitivityE
FN:1360,_ZplcRK7QString
FNDA:1,_ZplcRK7QString
FN:1454,_ZN10QStringRefD2Ev
FNDA:7,_ZN10QStringRefD2Ev
DA:234,1
DA:235,0
DA:236,0
DA:239,0
DA:468,1
DA:699,0
DA:700,0
DA:701,0
DA:933,0
DA:934,0
DA:935,12
DA:936,12
DA:937,15
DA:938,15
DA:957,0
DA:958,0
DA:1134,0
DA:1135,0
DA:1190,10
DA:1191,10
DA:1360,1
DA:1361,1
DA:1454,7
end_of_record
SF:/usr/include/c++/9/atomic
FN:759,_ZNSt6atomicIiEC2Ei
FNDA:0,_ZNSt6atomicIiEC2Ei
DA:759,0
end_of_record
SF:/usr/include/qt5/QtCore/qatomic.h
FN:60,_ZN14QAtomicIntegerIiEC2Ei
FNDA:0,_ZN14QAtomicIntegerIiEC2Ei
FN:162,_ZN10QAtomicIntC2Ei
FNDA:0,_ZN10QAtomicIntC2Ei
DA:60,0
DA:162,0
end_of_record
SF:/usr/include/qt5/QtGui/qtextobject.h
FN:206,_ZN10QTextBlockC2Ev
FNDA:20,_ZN10QTextBlockC2Ev
FN:208,_ZN10QTextBlockaSERKS_
FNDA:22,_ZN10QTextBlockaSERKS_
FN:213,_ZNK10QTextBlockneERKS_
FNDA:21,_ZNK10QTextBlockneERKS_
DA:206,20
DA:208,22
DA:213,21
end_of_record
SF:/usr/include/qt5/QtCore/qchar.h
FN:82,_ZN5QCharC2Et
FNDA:0,_ZN5QCharC2Et
FN:86,_ZN5QCharC2Ei
FNDA:32,_ZN5QCharC2Ei
FN:87,_ZN5QCharC2ENS_16SpecialCharacterE
FNDA:10,_ZN5QCharC2ENS_16SpecialCharacterE
FN:460,_ZN5QChar10fromLatin1Ec
FNDA:0,_ZN5QChar10fromLatin1Ec
FN:600,_Zeq5QCharS_
FNDA:27,_Zeq5QCharS_
FN:603,_Zne5QCharS_
FNDA:15,_Zne5QCharS_
DA:82,0
DA:86,32
DA:87,10
DA:460,0
DA:600,27
DA:603,15
end_of_record
SF:/usr/include/c++/9/initializer_list
FN:71,_ZNKSt16initializer_listI12QKeySequenceE4sizeEv
FNDA:28,_ZNKSt16initializer_listI12QKeySequenceE4sizeEv
FN:71,_ZNKSt16initializer_listI7QStringE4sizeEv
FNDA:5,_ZNKSt16initializer_listI7QStringE4sizeEv
FN:75,_ZNKSt16initializer_listI12QKeySequenceE5beginEv
FNDA:28,_ZNKSt16initializer_listI12QKeySequenceE5beginEv
FN:75,_ZNKSt16initializer_listI7QStringE5beginEv
FNDA:5,_ZNKSt16initializer_listI7QStringE5beginEv
FN:79,_ZNKSt16initializer_listI12QKeySequenceE3endEv
FNDA:14,_ZNKSt16initializer_listI12QKeySequenceE3endEv
FN:79,_ZNKSt16initializer_listI7QStringE3endEv
FNDA:4,_ZNKSt16initializer_listI7QStringE3endEv
DA:71,28
DA:71,5
DA:75,28
DA:75,5
DA:79,14
DA:79,4
end_of_record
SF:/usr/include/qt5/QtCore/qatomic_cxx11.h
FN:225,_ZN10QAtomicOpsIiE4loadIiEET_RKSt6atomicIS2_E
FNDA:0,_ZN10QAtomicOpsIiE4loadIiEET_RKSt6atomicIS2_E
FN:263,_ZN10QAtomicOpsIiE3refIiEEbRSt6atomicIT_E
FNDA:0,_ZN10QAtomicOpsIiE3refIiEEbRSt6atomicIT_E
FN:269,_ZN10QAtomicOpsIiE5derefIiEEbRSt6atomicIT_E
FNDA:0,_ZN10QAtomicOpsIiE5derefIiEEbRSt6atomicIT_E
DA:225,0
DA:227,0
DA:263,0
DA:265,0
DA:269,0
DA:271,0
end_of_record
SF:/usr/include/c++/9/bits/move.h
FN:47,_ZSt11__addressofI5QListI12QKeySequenceEEPT_RS3_
FNDA:14,_ZSt11__addressofI5QListI12QKeySequenceEEPT_RS3_
FN:47,_ZSt11__addressofIKPFvR11QTextCursorEEPT_RS5_
FNDA:14,_ZSt11__addressofIKPFvR11QTextCursorEEPT_RS5_
FN:74,_ZSt7forwardIR11QTextCursorEOT_RNSt16remove_referenceIS2_E4typeE
FNDA:28,_ZSt7forwardIR11QTextCursorEOT_RNSt16remove_referenceIS2_E4typeE
FN:99,_ZSt4moveIRZN15IndentExtensionC4EP8TextEditEUlvE0_EONSt16remove_referenceIT_E4typeEOS6_
FNDA:28,_ZSt4moveIRZN15IndentExtensionC4EP8TextEditEUlvE0_EONSt16remove_referenceIT_E4typeEOS6_
FN:99,_ZSt4moveIRZN15IndentExtensionC4EP8TextEditEUlvE_EONSt16remove_referenceIT_E4typeEOS6_
FNDA:28,_ZSt4moveIRZN15IndentExtensionC4EP8TextEditEUlvE_EONSt16remove_referenceIT_E4typeEOS6_
FN:99,_ZSt4moveIRPFvR11QTextCursorEEONSt16remove_referenceIT_E4typeEOS6_
FNDA:30,_ZSt4moveIRPFvR11QTextCursorEEONSt16remove_referenceIT_E4typeEOS6_
FN:99,_ZSt4moveIRP15QTypedArrayDataItEEONSt16remove_referenceIT_E4typeEOS5_
FNDA:0,_ZSt4moveIRP15QTypedArrayDataItEEONSt16remove_referenceIT_E4typeEOS5_
FN:99,_ZSt4moveIRiEONSt16remove_referenceIT_E4typeEOS2_
FNDA:0,_ZSt4moveIRiEONSt16remove_referenceIT_E4typeEOS2_
FN:182,_ZSt4swapIP15QTypedArrayDataItEENSt9enable_ifIXsrSt6__and_IJSt6__not_ISt15__is_tuple_likeIT_EESt21is_move_constructibleIS7_ESt18is_move_assignableIS7_EEE5valueEvE4typeERS7_SH_
FNDA:0,_ZSt4swapIP15QTypedArrayDataItEENSt9enable_ifIXsrSt6__and_IJSt6__not_ISt15__is_tuple_likeIT_EESt21is_move_constructibleIS7_ESt18is_move_assignableIS7_EEE5valueEvE4typeERS7_SH_
FN:182,_ZSt4swapIiENSt9enable_ifIXsrSt6__and_IJSt6__not_ISt15__is_tuple_likeIT_EESt21is_move_constructibleIS4_ESt18is_move_assignableIS4_EEE5valueEvE4typeERS4_SE_
FNDA:0,_ZSt4swapIiENSt9enable_ifIXsrSt6__and_IJSt6__not_ISt15__is_tuple_likeIT_EESt21is_move_constructibleIS4_ESt18is_move_assignableIS4_EEE5valueEvE4typeERS4_SE_
DA:47,14
DA:48,14
DA:47,14
DA:48,14
DA:74,28
DA:75,28
DA:99,28
DA:100,28
DA:99,28
DA:100,28
DA:99,30
DA:100,30
DA:99,0
DA:100,0
DA:99,0
DA:100,0
DA:182,0
DA:193,0
DA:194,0
DA:195,0
DA:196,0
DA:182,0
DA:193,0
DA:194,0
DA:195,0
DA:196,0
end_of_record
SF:/usr/include/qt5/QtCore/qset.h
FN:61,_ZN4QSetI7QStringEC2ESt16initializer_listIS0_E
FNDA:1,_ZN4QSetI7QStringEC2ESt16initializer_listIS0_E
FN:117,_ZN4QSetI7QStringE8iteratorC2EN5QHashIS0_15QHashDummyValueE8iteratorE
FNDA:17,_ZN4QSetI7QStringE8iteratorC2EN5QHashIS0_15QHashDummyValueE8iteratorE
FN:120,_ZNK4QSetI7QStringE8iteratordeEv
FNDA:16,_ZNK4QSetI7QStringE8iteratordeEv
FN:123,_ZNK4QSetI7QStringE8iteratorneERKS2_
FNDA:18,_ZNK4QSetI7QStringE8iteratorneERKS2_
FN:128,_ZN4QSetI7QStringE8iteratorppEv
FNDA:11,_ZN4QSetI7QStringE8iteratorppEv
FN:178,_ZN4QSetI7QStringE5beginEv
FNDA:7,_ZN4QSetI7QStringE5beginEv
FN:182,_ZN4QSetI7QStringE3endEv
FNDA:7,_ZN4QSetI7QStringE3endEv
FN:206,_ZN4QSetI7QStringE6insertERKS0_
FNDA:3,_ZN4QSetI7QStringE6insertERKS0_
FN:278,_ZN4QSetI7QStringE7reserveEi
FNDA:1,_ZN4QSetI7QStringE7reserveEi
DA:61,1
DA:62,1
DA:63,1
DA:64,4
DA:65,3
DA:66,1
DA:117,17
DA:120,16
DA:123,18
DA:128,11
DA:178,7
DA:182,7
DA:206,3
DA:207,3
DA:278,1
end_of_record
SF:/usr/include/qt5/QtCore/qflags.h
FN:137,_ZNK6QFlagsIN2Qt16KeyboardModifierEEcvjEv
FNDA:0,_ZNK6QFlagsIN2Qt16KeyboardModifierEEcvjEv
DA:137,0
end_of_record
SF:/usr/include/c++/9/bits/stl_iterator.h
FN:490,_ZNSt20back_insert_iteratorI5QListI12QKeySequenceEEC2ERS2_
FNDA:14,_ZNSt20back_insert_iteratorI5QListI12QKeySequenceEEC2ERS2_
FN:513,_ZNSt20back_insert_iteratorI5QListI12QKeySequenceEEaSERKS1_
FNDA:28,_ZNSt20back_insert_iteratorI5QListI12QKeySequenceEEaSERKS1_
FN:529,_ZNSt20back_insert_iteratorI5QListI12QKeySequenceEEdeEv
FNDA:28,_ZNSt20back_insert_iteratorI5QListI12QKeySequenceEEdeEv
FN:534,_ZNSt20back_insert_iteratorI5QListI12QKeySequenceEEppEv
FNDA:28,_ZNSt20back_insert_iteratorI5QListI12QKeySequenceEEppEv
FN:556,_ZSt13back_inserterI5QListI12QKeySequenceEESt20back_insert_iteratorIT_ERS4_
FNDA:14,_ZSt13back_inserterI5QListI12QKeySequenceEESt20back_insert_iteratorIT_ERS4_
DA:490,14
DA:491,14
DA:513,28
DA:515,28
DA:516,28
DA:529,28
DA:530,28
DA:534,28
DA:535,28
DA:556,14
DA:557,14
end_of_record
SF:/home/oresky/school/nanonote/nanonote/src/IndentExtension.cpp
FN:10,_ZL14findBulletSizeRK10QStringRef
FNDA:7,_ZL14findBulletSizeRK10QStringRef
FN:25,_ZL16findCommonPrefixRK7QString
FNDA:7,_ZL16findCommonPrefixRK7QString
FN:40,_ZL10indentLineR11QTextCursor
FNDA:11,_ZL10indentLineR11QTextCursor
FN:46,_ZL12unindentLineR11QTextCursor
FNDA:3,_ZL12unindentLineR11QTextCursor
FN:54,_ZN15IndentExtensionC2EP8TextEdit
FNDA:14,_ZN15IndentExtensionC2EP8TextEdit
FN:61,_ZZN15IndentExtensionC4EP8TextEditENKUlvE_clEv
FNDA:0,_ZZN15IndentExtensionC4EP8TextEditENKUlvE_clEv
FN:68,_ZZN15IndentExtensionC4EP8TextEditENKUlvE0_clEv
FNDA:0,_ZZN15IndentExtensionC4EP8TextEditENKUlvE0_clEv
FN:74,_ZN15IndentExtension22aboutToShowContextMenuEP5QMenuRK6QPoint
FNDA:0,_ZN15IndentExtension22aboutToShowContextMenuEP5QMenuRK6QPoint
FN:81,_ZN15IndentExtension8keyPressEP9QKeyEvent
FNDA:16,_ZN15IndentExtension8keyPressEP9QKeyEvent
FN:102,_ZNK15IndentExtension20canRemoveIndentationEv
FNDA:0,_ZNK15IndentExtension20canRemoveIndentationEv
FN:118,_ZNK15IndentExtension19isAtStartOfListLineEv
FNDA:8,_ZNK15IndentExtension19isAtStartOfListLineEv
FN:131,_ZNK15IndentExtension13isAtEndOfLineEv
FNDA:3,_ZNK15IndentExtension13isAtEndOfLineEv
FN:136,_ZNK15IndentExtension14isIndentedLineEv
FNDA:2,_ZNK15IndentExtension14isIndentedLineEv
FN:142,_ZN15IndentExtension17insertIndentationEv
FNDA:2,_ZN15IndentExtension17insertIndentationEv
FN:149,_ZN15IndentExtension16processSelectionESt8functionIFvR11QTextCursorEE
FNDA:10,_ZN15IndentExtension16processSelectionESt8functionIFvR11QTextCursorEE
FN:182,_ZN15IndentExtension12onTabPressedEv
FNDA:10,_ZN15IndentExtension12onTabPressedEv
FN:193,_ZN15IndentExtension14onEnterPressedEv
FNDA:4,_ZN15IndentExtension14onEnterPressedEv
FN:214,_ZN15IndentExtension17removeIndentationEv
FNDA:0,_ZN15IndentExtension17removeIndentationEv
FN:223,_ZN15IndentExtension18insertIndentedLineEv
FNDA:2,_ZN15IndentExtension18insertIndentedLineEv
DA:10,7
DA:11,10
DA:12,18
DA:13,16
DA:14,5
DA:17,2
DA:25,7
DA:28,15
DA:29,15
DA:30,7
DA:33,7
DA:34,7
DA:35,7
DA:36,7
DA:37,7
DA:40,11
DA:42,11
DA:43,11
DA:44,11
DA:46,3
DA:48,6
DA:49,15
DA:50,12
DA:52,3
DA:54,14
DA:56,14
DA:57,28
DA:59,14
DA:60,14
DA:61,14
DA:62,0
DA:63,0
DA:64,14
DA:66,14
DA:67,42
DA:68,14
DA:69,0
DA:70,0
DA:71,14
DA:72,14
DA:74,0
DA:76,0
DA:77,0
DA:78,0
DA:79,0
DA:81,16
DA:83,16
DA:84,10
DA:85,10
DA:87,6
DA:88,1
DA:89,1
DA:91,5
DA:92,4
DA:93,4
DA:95,1
DA:96,0
DA:97,0
DA:99,1
DA:102,0
DA:104,0
DA:105,0
DA:106,0
DA:107,0
DA:109,0
DA:110,0
DA:111,0
DA:112,0
DA:115,0
DA:118,8
DA:120,16
DA:121,8
DA:122,8
DA:123,2
DA:125,12
DA:126,6
DA:128,6
DA:131,3
DA:133,3
DA:136,2
DA:138,2
DA:139,4
DA:142,2
DA:144,2
DA:145,2
DA:146,2
DA:147,2
DA:149,10
DA:151,20
DA:152,10
DA:153,10
DA:154,10
DA:155,6
DA:156,6
DA:157,6
DA:158,0
DA:160,6
DA:161,6
DA:163,6
DA:164,2
DA:167,4
DA:168,4
DA:171,20
DA:172,10
DA:173,21
DA:174,14
DA:175,14
DA:176,3
DA:179,10
DA:180,10
DA:182,10
DA:184,20
DA:185,20
DA:186,20
DA:187,8
DA:189,2
DA:191,10
DA:193,4
DA:195,4
DA:196,4
DA:197,1
DA:198,1
DA:200,3
DA:201,3
DA:202,3
DA:203,2
DA:204,1
DA:206,1
DA:207,1
DA:210,1
DA:214,0
DA:216,0
DA:217,0
DA:218,0
DA:219,0
DA:220,0
DA:221,0
DA:223,2
DA:225,4
DA:226,2
DA:227,2
DA:228,1
DA:229,1
DA:231,1
DA:233,2
DA:234,2
end_of_record
SF:/home/oresky/school/nanonote/nanonote/src/IndentExtension.h
FN:10,_ZN15IndentExtension2trEPKcS1_i
FNDA:28,_ZN15IndentExtension2trEPKcS1_i
DA:10,28
end_of_record
SF:/usr/include/qt5/QtCore/qglobal.h
FN:596,_Z4qMaxIiERKT_S2_S2_
FNDA:5,_Z4qMaxIiERKT_S2_S2_
FN:911,_Z5qSwapIP15QTypedArrayDataItEEvRT_S4_
FNDA:0,_Z5qSwapIP15QTypedArrayDataItEEvRT_S4_
DA:596,5
DA:911,0
DA:915,0
DA:916,0
end_of_record
SF:/usr/include/qt5/QtCore/qlist.h
FN:75,_ZN19QListSpecialMethodsI12QKeySequenceED2Ev
FNDA:14,_ZN19QListSpecialMethodsI12QKeySequenceED2Ev
FN:100,_ZN9QListData7disposeEv
FNDA:0,_ZN9QListData7disposeEv
FN:116,_ZNK9QListData5beginEv
FNDA:130,_ZNK9QListData5beginEv
FN:117,_ZNK9QListData3endEv
FNDA:60,_ZNK9QListData3endEv
FN:163,_ZN5QListI12QKeySequenceEC2ESt16initializer_listIS0_E
FNDA:14,_ZN5QListI12QKeySequenceEC2ESt16initializer_listIS0_E
FN:363,_ZN5QListI12QKeySequenceE9push_backERKS0_
FNDA:28,_ZN5QListI12QKeySequenceE9push_backERKS0_
FN:436,_ZN5QListI12QKeySequenceE14node_constructEPNS1_4NodeERKS0_
FNDA:28,_ZN5QListI12QKeySequenceE14node_constructEPNS1_4NodeERKS0_
FN:452,_ZN5QListI12QKeySequenceE13node_destructEPNS1_4NodeE
FNDA:0,_ZN5QListI12QKeySequenceE13node_destructEPNS1_4NodeE
FN:459,_ZN5QListI12QKeySequenceE9node_copyEPNS1_4NodeES3_S3_
FNDA:14,_ZN5QListI12QKeySequenceE9node_copyEPNS1_4NodeES3_S3_
FN:494,_ZN5QListI12QKeySequenceE13node_destructEPNS1_4NodeES3_
FNDA:14,_ZN5QListI12QKeySequenceE13node_destructEPNS1_4NodeES3_
FN:571,_ZN5QListI12QKeySequenceE7reserveEi
FNDA:14,_ZN5QListI12QKeySequenceE7reserveEi
FN:582,_ZN5QListI12QKeySequenceE6appendERKS0_
FNDA:28,_ZN5QListI12QKeySequenceE6appendERKS0_
FN:756,_ZN5QListI12QKeySequenceE18detach_helper_growEii
FNDA:0,_ZN5QListI12QKeySequenceE18detach_helper_growEii
FN:786,_ZN5QListI12QKeySequenceE13detach_helperEi
FNDA:14,_ZN5QListI12QKeySequenceE13detach_helperEi
FN:827,_ZN5QListI12QKeySequenceED2Ev
FNDA:14,_ZN5QListI12QKeySequenceED2Ev
FN:866,_ZN5QListI12QKeySequenceE7deallocEPN9QListData4DataE
FNDA:14,_ZN5QListI12QKeySequenceE7deallocEPN9QListData4DataE
DA:75,14
DA:100,0
DA:116,130
DA:117,60
DA:163,14
DA:164,0
DA:165,14
DA:363,28
DA:436,28
DA:439,28
DA:449,28
DA:452,0
DA:455,0
DA:456,0
DA:459,14
DA:461,14
DA:477,14
DA:478,0
DA:479,0
DA:480,0
DA:482,0
DA:483,0
DA:484,0
DA:485,0
DA:491,14
DA:494,14
DA:499,42
DA:500,14
DA:571,14
DA:573,14
DA:574,14
DA:575,14
DA:577,0
DA:579,14
DA:582,28
DA:584,28
DA:585,0
DA:587,0
DA:588,0
DA:589,0
DA:590,0
DA:603,28
DA:605,28
DA:606,0
DA:607,0
DA:608,0
DA:610,28
DA:613,28
DA:756,0
DA:758,0
DA:759,0
DA:761,0
DA:762,0
DA:763,0
DA:764,0
DA:765,0
DA:766,0
DA:769,0
DA:770,0
DA:771,0
DA:772,0
DA:773,0
DA:774,0
DA:775,0
DA:776,0
DA:779,0
DA:780,0
DA:782,0
DA:786,14
DA:788,14
DA:789,14
DA:791,14
DA:792,0
DA:793,0
DA:794,0
DA:795,0
DA:798,14
DA:799,0
DA:800,14
DA:827,14
DA:829,14
DA:830,14
DA:831,14
DA:866,14
DA:868,14
DA:869,14
DA:870,14
DA:871,14
end_of_record
SF:/usr/include/qt5/QtCore/qobject_impl.h
FN:75,_ZN9QtPrivate15ConnectionTypesINS_4ListIJbEEELb1EE5typesEv
FNDA:0,_ZN9QtPrivate15ConnectionTypesINS_4ListIJbEEELb1EE5typesEv
DA:75,0
end_of_record
SF:/usr/include/c++/9/bits/std_function.h
FN:87,_ZNSt9_Any_data9_M_accessEv
FNDA:0,_ZNSt9_Any_data9_M_accessEv
FN:88,_ZNKSt9_Any_data9_M_accessEv
FNDA:0,_ZNKSt9_Any_data9_M_accessEv
FN:92,_ZNSt9_Any_data9_M_accessIPFvR11QTextCursorEEERT_v
FNDA:10,_ZNSt9_Any_data9_M_accessIPFvR11QTextCursorEEERT_v
FN:92,_ZNSt9_Any_data9_M_accessIPPFvR11QTextCursorEEERT_v
FNDA:0,_ZNSt9_Any_data9_M_accessIPPFvR11QTextCursorEEERT_v
FN:92,_ZNSt9_Any_data9_M_accessIPKSt9type_infoEERT_v
FNDA:0,_ZNSt9_Any_data9_M_accessIPKSt9type_infoEERT_v
FN:97,_ZNKSt9_Any_data9_M_accessIPFvR11QTextCursorEEERKT_v
FNDA:14,_ZNKSt9_Any_data9_M_accessIPFvR11QTextCursorEEERKT_v
FN:151,_ZNSt14_Function_base13_Base_managerIPFvR11QTextCursorEE14_M_get_pointerERKSt9_Any_data
FNDA:14,_ZNSt14_Function_base13_Base_managerIPFvR11QTextCursorEE14_M_get_pointerERKSt9_Any_data
FN:165,_ZNSt14_Function_base13_Base_managerIPFvR11QTextCursorEE8_M_cloneERSt9_Any_dataRKS6_St17integral_constantIbLb1EE
FNDA:0,_ZNSt14_Function_base13_Base_managerIPFvR11QTextCursorEE8_M_cloneERSt9_Any_dataRKS6_St17integral_constantIbLb1EE
FN:182,_ZNSt14_Function_base13_Base_managerIPFvR11QTextCursorEE10_M_destroyERSt9_Any_dataSt17integral_constantIbLb1EE
FNDA:10,_ZNSt14_Function_base13_Base_managerIPFvR11QTextCursorEE10_M_destroyERSt9_Any_dataSt17integral_constantIbLb1EE
FN:196,_ZNSt14_Function_base13_Base_managerIPFvR11QTextCursorEE10_M_managerERSt9_Any_dataRKS6_St18_Manager_operation
FNDA:10,_ZNSt14_Function_base13_Base_managerIPFvR11QTextCursorEE10_M_managerERSt9_Any_dataRKS6_St18_Manager_operation
FN:222,_ZNSt14_Function_base13_Base_managerIPFvR11QTextCursorEE15_M_init_functorERSt9_Any_dataOS4_
FNDA:10,_ZNSt14_Function_base13_Base_managerIPFvR11QTextCursorEE15_M_init_functorERSt9_Any_dataOS4_
FN:232,_ZNSt14_Function_base13_Base_managerIPFvR11QTextCursorEE21_M_not_empty_functionIS3_EEbPT_
FNDA:10,_ZNSt14_Function_base13_Base_managerIPFvR11QTextCursorEE21_M_not_empty_functionIS3_EEbPT_
FN:247,_ZNSt14_Function_base13_Base_managerIPFvR11QTextCursorEE15_M_init_functorERSt9_Any_dataOS4_St17integral_constantIbLb1EE
FNDA:10,_ZNSt14_Function_base13_Base_managerIPFvR11QTextCursorEE15_M_init_functorERSt9_Any_dataOS4_St17integral_constantIbLb1EE
FN:255,_ZNSt14_Function_baseC2Ev
FNDA:0,_ZNSt14_Function_baseC2Ev
FN:257,_ZNSt14_Function_baseD2Ev
FNDA:0,_ZNSt14_Function_baseD2Ev
FN:263,_ZNKSt14_Function_base8_M_emptyEv
FNDA:0,_ZNKSt14_Function_base8_M_emptyEv
FN:298,_ZNSt17_Function_handlerIFvR11QTextCursorEPS2_E9_M_invokeERKSt9_Any_dataS1_
FNDA:14,_ZNSt17_Function_handlerIFvR11QTextCursorEPS2_E9_M_invokeERKSt9_Any_dataS1_
FN:669,_ZNSt8functionIFvR11QTextCursorEEC2IPS2_vvEET_
FNDA:10,_ZNSt8functionIFvR11QTextCursorEEC2IPS2_vvEET_
FN:685,_ZNKSt8functionIFvR11QTextCursorEEclES1_
FNDA:14,_ZNKSt8functionIFvR11QTextCursorEEclES1_
DA:87,0
DA:88,0
DA:92,10
DA:93,10
DA:92,0
DA:93,0
DA:92,0
DA:93,0
DA:97,14
DA:98,14
DA:151,14
DA:155,14
DA:156,14
DA:165,0
DA:167,0
DA:168,0
DA:182,10
DA:184,10
DA:185,10
DA:196,10
DA:199,10
DA:202,0
DA:203,0
DA:204,0
DA:206,0
DA:207,0
DA:208,0
DA:210,0
DA:211,0
DA:212,0
DA:214,10
DA:215,10
DA:216,10
DA:218,10
DA:222,10
DA:223,10
DA:232,10
DA:233,10
DA:247,10
DA:248,10
DA:255,0
DA:257,0
DA:258,0
DA:259,0
DA:260,0
DA:261,0
DA:263,0
DA:298,14
DA:300,14
DA:302,14
DA:669,10
DA:671,10
DA:675,10
DA:677,10
DA:678,10
DA:679,10
DA:681,10
DA:685,14
DA:688,14
DA:689,0
DA:690,14
end_of_record
SF:/usr/include/qt5/QtCore/qobject.h
FN:308,_ZN7QObject7connectIM7QActionFvbEZN15IndentExtensionC4EP8TextEditEUlvE0_EENSt9enable_ifIXeqsrN9QtPrivate15FunctionPointerIT0_EE13ArgumentCountLin1EEN11QMetaObject10ConnectionEE4typeEPKNSA_IT_E6ObjectESH_PKS_SB_N2Qt14ConnectionTypeE
FNDA:14,_ZN7QObject7connectIM7QActionFvbEZN15IndentExtensionC4EP8TextEditEUlvE0_EENSt9enable_ifIXeqsrN9QtPrivate15FunctionPointerIT0_EE13ArgumentCountLin1EEN11QMetaObject10ConnectionEE4typeEPKNSA_IT_E6ObjectESH_PKS_SB_N2Qt14ConnectionTypeE
FN:308,_ZN7QObject7connectIM7QActionFvbEZN15IndentExtensionC4EP8TextEditEUlvE_EENSt9enable_ifIXeqsrN9QtPrivate15FunctionPointerIT0_EE13ArgumentCountLin1EEN11QMetaObject10ConnectionEE4typeEPKNSA_IT_E6ObjectESH_PKS_SB_N2Qt14ConnectionTypeE
FNDA:14,_ZN7QObject7connectIM7QActionFvbEZN15IndentExtensionC4EP8TextEditEUlvE_EENSt9enable_ifIXeqsrN9QtPrivate15FunctionPointerIT0_EE13ArgumentCountLin1EEN11QMetaObject10ConnectionEE4typeEPKNSA_IT_E6ObjectESH_PKS_SB_N2Qt14ConnectionTypeE
DA:308,14
DA:312,14
DA:316,14
DA:325,14
DA:326,14
DA:327,0
DA:330,14
DA:332,14
DA:333,28
DA:308,14
DA:312,14
DA:316,14
DA:325,14
DA:326,14
DA:327,0
DA:330,14
DA:332,14
DA:333,28
end_of_record
SF:/usr/include/c++/9/bits/cpp_type_traits.h
FN:428,_ZSt12__miter_baseIPK12QKeySequenceET_S3_
FNDA:28,_ZSt12__miter_baseIPK12QKeySequenceET_S3_
DA:428,28
DA:429,28
end_of_record
SF:/usr/include/qt5/QtCore/qarraydata.h
FN:57,_ZN10QArrayData4dataEv
FNDA:0,_ZN10QArrayData4dataEv
FN:123,_ZN10QArrayData10sharedNullEv
FNDA:0,_ZN10QArrayData10sharedNullEv
FN:208,_ZN15QTypedArrayDataItE4dataEv
FNDA:0,_ZN15QTypedArrayDataItE4dataEv
FN:236,_ZN15QTypedArrayDataItE10deallocateEP10QArrayData
FNDA:0,_ZN15QTypedArrayDataItE10deallocateEP10QArrayData
FN:257,_ZN15QTypedArrayDataItE10sharedNullEv
FNDA:0,_ZN15QTypedArrayDataItE10sharedNullEv
DA:57,0
DA:61,0
DA:123,0
DA:208,0
DA:236,0
DA:239,0
DA:240,0
DA:257,0
DA:260,0
end_of_record
SF:/home/oresky/school/nanonote/nanonote/src/TextEdit.h
end_of_record
SF:/usr/include/qt5/QtGui/qevent.h
FN:350,_ZNK9QKeyEvent3keyEv
FNDA:33,_ZNK9QKeyEvent3keyEv
DA:350,33
end_of_record
SF:/usr/include/qt5/QtCore/qobjectdefs_impl.h
FN:88,_ZN9QtPrivate16ApplyReturnValueIvEC2EPv
FNDA:0,_ZN9QtPrivate16ApplyReturnValueIvEC2EPv
FN:145,_ZN9QtPrivate11FunctorCallINS_11IndexesListIJEEENS_4ListIJEEEvZN15IndentExtensionC4EP8TextEditEUlvE0_E4callERS8_PPv
FNDA:0,_ZN9QtPrivate11FunctorCallINS_11IndexesListIJEEENS_4ListIJEEEvZN15IndentExtensionC4EP8TextEditEUlvE0_E4callERS8_PPv
FN:145,_ZN9QtPrivate11FunctorCallINS_11IndexesListIJEEENS_4ListIJEEEvZN15IndentExtensionC4EP8TextEditEUlvE_E4callERS8_PPv
FNDA:0,_ZN9QtPrivate11FunctorCallINS_11IndexesListIJEEENS_4ListIJEEEvZN15IndentExtensionC4EP8TextEditEUlvE_E4callERS8_PPv
FN:255,_ZN9QtPrivate7FunctorIZN15IndentExtensionC4EP8TextEditEUlvE0_Li0EE4callINS_4ListIJEEEvEEvRS4_PvPSA_
FNDA:0,_ZN9QtPrivate7FunctorIZN15IndentExtensionC4EP8TextEditEUlvE0_Li0EE4callINS_4ListIJEEEvEEvRS4_PvPSA_
FN:255,_ZN9QtPrivate7FunctorIZN15IndentExtensionC4EP8TextEditEUlvE_Li0EE4callINS_4ListIJEEEvEEvRS4_PvPSA_
FNDA:0,_ZN9QtPrivate7FunctorIZN15IndentExtensionC4EP8TextEditEUlvE_Li0EE4callINS_4ListIJEEEvEEvRS4_PvPSA_
FN:387,_ZN9QtPrivate15QSlotObjectBaseC2EPFviPS0_P7QObjectPPvPbE
FNDA:0,_ZN9QtPrivate15QSlotObjectBaseC2EPFviPS0_P7QObjectPPvPbE
FN:396,_ZN9QtPrivate15QSlotObjectBaseD2Ev
FNDA:0,_ZN9QtPrivate15QSlotObjectBaseD2Ev
FN:432,_ZN9QtPrivate18QFunctorSlotObjectIZN15IndentExtensionC4EP8TextEditEUlvE0_Li0ENS_4ListIJEEEvE4implEiPNS_15QSlotObjectBaseEP7QObjectPPvPb
FNDA:14,_ZN9QtPrivate18QFunctorSlotObjectIZN15IndentExtensionC4EP8TextEditEUlvE0_Li0ENS_4ListIJEEEvE4implEiPNS_15QSlotObjectBaseEP7QObjectPPvPb
FN:432,_ZN9QtPrivate18QFunctorSlotObjectIZN15IndentExtensionC4EP8TextEditEUlvE_Li0ENS_4ListIJEEEvE4implEiPNS_15QSlotObjectBaseEP7QObjectPPvPb
FNDA:14,_ZN9QtPrivate18QFunctorSlotObjectIZN15IndentExtensionC4EP8TextEditEUlvE_Li0ENS_4ListIJEEEvE4implEiPNS_15QSlotObjectBaseEP7QObjectPPvPb
FN:447,_ZN9QtPrivate18QFunctorSlotObjectIZN15IndentExtensionC4EP8TextEditEUlvE0_Li0ENS_4ListIJEEEvEC2ES4_
FNDA:14,_ZN9QtPrivate18QFunctorSlotObjectIZN15IndentExtensionC4EP8TextEditEUlvE0_Li0ENS_4ListIJEEEvEC2ES4_
FN:447,_ZN9QtPrivate18QFunctorSlotObjectIZN15IndentExtensionC4EP8TextEditEUlvE_Li0ENS_4ListIJEEEvEC2ES4_
FNDA:14,_ZN9QtPrivate18QFunctorSlotObjectIZN15IndentExtensionC4EP8TextEditEUlvE_Li0ENS_4ListIJEEEvEC2ES4_
DA:88,0
DA:145,0
DA:146,0
DA:147,0
DA:145,0
DA:146,0
DA:147,0
DA:255,0
DA:256,0
DA:257,0
DA:255,0
DA:256,0
DA:257,0
DA:387,0
DA:396,0
DA:432,14
DA:434,14
DA:435,14
DA:436,14
DA:437,14
DA:438,0
DA:439,0
DA:440,0
DA:441,14
DA:445,14
DA:432,14
DA:434,14
DA:435,14
DA:436,14
DA:437,14
DA:438,0
DA:439,0
DA:440,0
DA:441,14
DA:445,14
DA:447,14
DA:447,14
end_of_record
SF:/usr/include/qt5/QtCore/qhash.h
FN:103,_ZN9QHashData8willGrowEv
FNDA:3,_ZN9QHashData8willGrowEv
FN:124,_ZN9QHashData9firstNodeEv
FNDA:7,_ZN9QHashData9firstNodeEv
FN:175,_ZN9QHashNodeI7QString15QHashDummyValueEC2ERKS0_RKS1_jPS2_
FNDA:3,_ZN9QHashNodeI7QString15QHashDummyValueEC2ERKS0_RKS1_jPS2_
FN:177,_ZNK9QHashNodeI7QString15QHashDummyValueE8same_keyEjRKS0_
FNDA:0,_ZNK9QHashNodeI7QString15QHashDummyValueE8same_keyEjRKS0_
FN:236,_ZN5QHashI7QString15QHashDummyValueE8concreteEPN9QHashData4NodeE
FNDA:19,_ZN5QHashI7QString15QHashDummyValueE8concreteEPN9QHashData4NodeE
FN:240,_ZN5QHashI7QString15QHashDummyValueE11alignOfNodeEv
FNDA:4,_ZN5QHashI7QString15QHashDummyValueE11alignOfNodeEv
FN:243,_ZN5QHashI7QString15QHashDummyValueEC2Ev
FNDA:1,_ZN5QHashI7QString15QHashDummyValueEC2Ev
FN:254,_ZN5QHashI7QString15QHashDummyValueED2Ev
FNDA:1,_ZN5QHashI7QString15QHashDummyValueED2Ev
FN:275,_ZN5QHashI7QString15QHashDummyValueE6detachEv
FNDA:18,_ZN5QHashI7QString15QHashDummyValueE6detachEv
FN:319,_ZN5QHashI7QString15QHashDummyValueE8iteratorC2EPv
FNDA:17,_ZN5QHashI7QString15QHashDummyValueE8iteratorC2EPv
FN:321,_ZNK5QHashI7QString15QHashDummyValueE8iterator3keyEv
FNDA:16,_ZNK5QHashI7QString15QHashDummyValueE8iterator3keyEv
FN:326,_ZNK5QHashI7QString15QHashDummyValueE8iteratorneERKS3_
FNDA:18,_ZNK5QHashI7QString15QHashDummyValueE8iteratorneERKS3_
FN:328,_ZN5QHashI7QString15QHashDummyValueE8iteratorppEv
FNDA:11,_ZN5QHashI7QString15QHashDummyValueE8iteratorppEv
FN:458,_ZN5QHashI7QString15QHashDummyValueE5beginEv
FNDA:7,_ZN5QHashI7QString15QHashDummyValueE5beginEv
FN:462,_ZN5QHashI7QString15QHashDummyValueE3endEv
FNDA:7,_ZN5QHashI7QString15QHashDummyValueE3endEv
FN:542,_ZN5QHashI7QString15QHashDummyValueE11deleteNode2EPN9QHashData4NodeE
FNDA:3,_ZN5QHashI7QString15QHashDummyValueE11deleteNode2EPN9QHashData4NodeE
FN:552,_ZN5QHashI7QString15QHashDummyValueE13duplicateNodeEPN9QHashData4NodeEPv
FNDA:0,_ZN5QHashI7QString15QHashDummyValueE13duplicateNodeEPN9QHashData4NodeEPv
FN:560,_ZN5QHashI7QString15QHashDummyValueE10createNodeEjRKS0_RKS1_PP9QHashNodeIS0_S1_E
FNDA:3,_ZN5QHashI7QString15QHashDummyValueE10createNodeEjRKS0_RKS1_PP9QHashNodeIS0_S1_E
FN:585,_ZN5QHashI7QString15QHashDummyValueE8freeDataEP9QHashData
FNDA:1,_ZN5QHashI7QString15QHashDummyValueE8freeDataEP9QHashData
FN:597,_ZN5QHashI7QString15QHashDummyValueE13detach_helperEv
FNDA:1,_ZN5QHashI7QString15QHashDummyValueE13detach_helperEv
FN:768,_ZN5QHashI7QString15QHashDummyValueE6insertERKS0_RKS1_
FNDA:3,_ZN5QHashI7QString15QHashDummyValueE6insertERKS0_RKS1_
FN:880,_ZN5QHashI7QString15QHashDummyValueE7reserveEi
FNDA:1,_ZN5QHashI7QString15QHashDummyValueE7reserveEi
FN:912,_ZNK5QHashI7QString15QHashDummyValueE8findNodeERKS0_j
FNDA:3,_ZNK5QHashI7QString15QHashDummyValueE8findNodeERKS0_j
FN:928,_ZNK5QHashI7QString15QHashDummyValueE8findNodeERKS0_Pj
FNDA:3,_ZNK5QHashI7QString15QHashDummyValueE8findNodeERKS0_Pj
DA:103,3
DA:105,3
DA:106,0
DA:107,0
DA:109,3
DA:124,7
DA:126,7
DA:127,7
DA:128,7
DA:129,63
DA:130,63
DA:131,7
DA:132,56
DA:134,0
DA:175,3
DA:176,3
DA:177,0
DA:236,19
DA:237,19
DA:240,4
DA:243,1
DA:254,1
DA:275,18
DA:319,17
DA:321,16
DA:326,18
DA:328,11
DA:329,11
DA:330,11
DA:458,7
DA:462,7
DA:542,3
DA:547,3
DA:549,3
DA:552,0
DA:554,0
DA:555,0
DA:556,0
DA:560,3
DA:562,3
DA:563,3
DA:564,3
DA:565,3
DA:585,1
DA:587,1
DA:588,1
DA:597,1
DA:599,1
DA:600,1
DA:601,0
DA:602,1
DA:603,1
DA:768,3
DA:771,3
DA:774,3
DA:775,3
DA:776,3
DA:777,0
DA:778,3
DA:783,0
DA:880,1
DA:882,1
DA:883,1
DA:884,1
DA:912,3
DA:916,3
DA:917,3
DA:919,3
DA:920,0
DA:922,0
DA:924,3
DA:928,3
DA:931,3
DA:933,3
DA:934,3
DA:935,3
DA:936,3
DA:938,3
end_of_record
TN:
SF:/home/oresky/school/nanonote/nanonote/src/LinkSyntaxHighlighter.h
end_of_record
SF:/usr/include/qt5/QtGui/qtextformat.h
FN:367,_ZN11QTextFormat13setForegroundERK6QBrush
FNDA:66,_ZN11QTextFormat13setForegroundERK6QBrush
FN:475,_ZN15QTextCharFormat17setUnderlineColorERK6QColor
FNDA:66,_ZN15QTextCharFormat17setUnderlineColorERK6QColor
DA:367,66
DA:368,66
DA:475,66
DA:476,66
end_of_record
SF:/usr/include/qt5/QtCore/qarraydata.h
FN:236,_ZN15QTypedArrayDataItE10deallocateEP10QArrayData
FNDA:0,_ZN15QTypedArrayDataItE10deallocateEP10QArrayData
DA:236,0
DA:239,0
DA:240,0
end_of_record
SF:/usr/include/qt5/QtCore/qbasicatomic.h
FN:103,_ZNK19QBasicAtomicIntegerIiE4loadEv
FNDA:0,_ZNK19QBasicAtomicIntegerIiE4loadEv
FN:115,_ZN19QBasicAtomicIntegerIiE5derefEv
FNDA:0,_ZN19QBasicAtomicIntegerIiE5derefEv
DA:103,0
DA:115,0
end_of_record
SF:/usr/include/qt5/QtCore/qrefcount.h
FN:65,_ZN9QtPrivate8RefCount5derefEv
FNDA:0,_ZN9QtPrivate8RefCount5derefEv
DA:65,0
DA:66,0
DA:68,0
DA:69,0
DA:71,0
DA:72,0
DA:73,0
end_of_record
SF:/usr/include/qt5/QtCore/qstring.h
FN:699,_ZN7QStringC2EPKc
FNDA:0,_ZN7QStringC2EPKc
FN:1135,_ZN7QStringD2Ev
FNDA:0,_ZN7QStringD2Ev
DA:699,0
DA:700,0
DA:701,0
DA:1135,0
end_of_record
SF:/usr/include/c++/9/bits/atomic_base.h
FN:99,_ZStanSt12memory_orderSt23__memory_order_modifier
FNDA:0,_ZStanSt12memory_orderSt23__memory_order_modifier
FN:326,_ZNSt13__atomic_baseIiEmmEv
FNDA:0,_ZNSt13__atomic_baseIiEmmEv
DA:99,0
DA:101,0
DA:326,0
DA:327,0
DA:415,0
DA:419,0
end_of_record
SF:/usr/include/qt5/QtCore/qscopedpointer.h
FN:116,_ZNK14QScopedPointerI10QBrushData24QBrushDataPointerDeleterEptEv
FNDA:66,_ZNK14QScopedPointerI10QBrushData24QBrushDataPointerDeleterEptEv
DA:116,66
DA:118,66
end_of_record
SF:/usr/include/qt5/QtCore/qatomic_cxx11.h
FN:225,_ZN10QAtomicOpsIiE4loadIiEET_RKSt6atomicIS2_E
FNDA:0,_ZN10QAtomicOpsIiE4loadIiEET_RKSt6atomicIS2_E
FN:269,_ZN10QAtomicOpsIiE5derefIiEEbRSt6atomicIT_E
FNDA:0,_ZN10QAtomicOpsIiE5derefIiEEbRSt6atomicIT_E
DA:225,0
DA:227,0
DA:269,0
DA:271,0
end_of_record
SF:/usr/include/qt5/QtGui/qbrush.h
FN:161,_ZNK6QBrush5colorEv
FNDA:66,_ZNK6QBrush5colorEv
DA:161,66
end_of_record
SF:/usr/include/qt5/QtCore/qflags.h
FN:120,_ZN6QFlagsIN18QRegularExpression11MatchOptionEEC2ES1_
FNDA:69,_ZN6QFlagsIN18QRegularExpression11MatchOptionEEC2ES1_
FN:120,_ZN6QFlagsIN18QRegularExpression13PatternOptionEEC2ES1_
FNDA:69,_ZN6QFlagsIN18QRegularExpression13PatternOptionEEC2ES1_
DA:120,69
DA:120,69
end_of_record
SF:/home/oresky/school/nanonote/nanonote/src/LinkSyntaxHighlighter.cpp
FN:16,_ZN21LinkSyntaxHighlighterC2EP13QTextDocument
FNDA:14,_ZN21LinkSyntaxHighlighterC2EP13QTextDocument
FN:21,_ZN21LinkSyntaxHighlighter14highlightBlockERK7QString
FNDA:66,_ZN21LinkSyntaxHighlighter14highlightBlockERK7QString
FN:36,_ZN21LinkSyntaxHighlighter9getLinkAtERK7QStringi
FNDA:3,_ZN21LinkSyntaxHighlighter9getLinkAtERK7QStringi
DA:16,14
DA:17,14
DA:19,14
DA:21,66
DA:23,132
DA:24,66
DA:25,66
DA:26,66
DA:27,66
DA:29,132
DA:30,66
DA:31,0
DA:32,0
DA:34,66
DA:36,3
DA:38,6
DA:39,5
DA:40,3
DA:41,3
DA:42,2
DA:45,2
end_of_record
SF:/usr/include/qt5/QtGui/qcolor.h
FN:301,_ZN6QColorC2ERKS_
FNDA:66,_ZN6QColorC2ERKS_
DA:301,66
DA:302,66
DA:303,66
end_of_record
SF:/usr/include/qt5/QtGui/qpalette.h
FN:108,_ZNK8QPalette5colorENS_10ColorGroupENS_9ColorRoleE
FNDA:66,_ZNK8QPalette5colorENS_10ColorGroupENS_9ColorRoleE
FN:122,_ZNK8QPalette5colorENS_9ColorRoleE
FNDA:66,_ZNK8QPalette5colorENS_9ColorRoleE
DA:108,66
DA:109,66
DA:122,66
end_of_record
TN:
SF:/usr/include/c++/9/bits/stl_iterator.h
FN:490,_ZNSt20back_insert_iteratorI5QListI4QUrlEEC2ERS2_
FNDA:0,_ZNSt20back_insert_iteratorI5QListI4QUrlEEC2ERS2_
FN:513,_ZNSt20back_insert_iteratorI5QListI4QUrlEEaSERKS1_
FNDA:0,_ZNSt20back_insert_iteratorI5QListI4QUrlEEaSERKS1_
FN:529,_ZNSt20back_insert_iteratorI5QListI4QUrlEEdeEv
FNDA:0,_ZNSt20back_insert_iteratorI5QListI4QUrlEEdeEv
FN:534,_ZNSt20back_insert_iteratorI5QListI4QUrlEEppEv
FNDA:0,_ZNSt20back_insert_iteratorI5QListI4QUrlEEppEv
FN:556,_ZSt13back_inserterI5QListI4QUrlEESt20back_insert_iteratorIT_ERS4_
FNDA:0,_ZSt13back_inserterI5QListI4QUrlEESt20back_insert_iteratorIT_ERS4_
DA:490,0
DA:491,0
DA:513,0
DA:515,0
DA:516,0
DA:529,0
DA:530,0
DA:534,0
DA:535,0
DA:556,0
DA:557,0
end_of_record
SF:/usr/include/qt5/QtWidgets/qmenu.h
FN:102,_ZN5QMenu9addActionI13LinkExtensionZNS1_22aboutToShowContextMenuEPS_RK6QPointEUlvE0_EENSt9enable_ifIXaantsrSt7is_sameIPKcT0_E5valuesrN9QtPrivate33IsPointerToTypeDerivedFromQObjectIPT_EE5ValueEP7QActionE4typeERK7QStringPKSF_SB_RK12QKeySequence
FNDA:0,_ZN5QMenu9addActionI13LinkExtensionZNS1_22aboutToShowContextMenuEPS_RK6QPointEUlvE0_EENSt9enable_ifIXaantsrSt7is_sameIPKcT0_E5valuesrN9QtPrivate33IsPointerToTypeDerivedFromQObjectIPT_EE5ValueEP7QActionE4typeERK7QStringPKSF_SB_RK12QKeySequence
FN:102,_ZN5QMenu9addActionI13LinkExtensionZNS1_22aboutToShowContextMenuEPS_RK6QPointEUlvE_EENSt9enable_ifIXaantsrSt7is_sameIPKcT0_E5valuesrN9QtPrivate33IsPointerToTypeDerivedFromQObjectIPT_EE5ValueEP7QActionE4typeERK7QStringPKSF_SB_RK12QKeySequence
FNDA:0,_ZN5QMenu9addActionI13LinkExtensionZNS1_22aboutToShowContextMenuEPS_RK6QPointEUlvE_EENSt9enable_ifIXaantsrSt7is_sameIPKcT0_E5valuesrN9QtPrivate33IsPointerToTypeDerivedFromQObjectIPT_EE5ValueEP7QActionE4typeERK7QStringPKSF_SB_RK12QKeySequence
DA:102,0
DA:104,0
DA:108,0
DA:110,0
DA:111,0
DA:102,0
DA:104,0
DA:108,0
DA:110,0
DA:111,0
end_of_record
SF:/usr/include/qt5/QtCore/qlist.h
FN:75,_ZN19QListSpecialMethodsI4QUrlED2Ev
FNDA:0,_ZN19QListSpecialMethodsI4QUrlED2Ev
FN:100,_ZN9QListData7disposeEv
FNDA:0,_ZN9QListData7disposeEv
FN:116,_ZNK9QListData5beginEv
FNDA:0,_ZNK9QListData5beginEv
FN:117,_ZNK9QListData3endEv
FNDA:0,_ZNK9QListData3endEv
FN:163,_ZN5QListI4QUrlEC2ESt16initializer_listIS0_E
FNDA:0,_ZN5QListI4QUrlEC2ESt16initializer_listIS0_E
FN:363,_ZN5QListI4QUrlE9push_backERKS0_
FNDA:0,_ZN5QListI4QUrlE9push_backERKS0_
FN:436,_ZN5QListI4QUrlE14node_constructEPNS1_4NodeERKS0_
FNDA:0,_ZN5QListI4QUrlE14node_constructEPNS1_4NodeERKS0_
FN:452,_ZN5QListI4QUrlE13node_destructEPNS1_4NodeE
FNDA:0,_ZN5QListI4QUrlE13node_destructEPNS1_4NodeE
FN:459,_ZN5QListI4QUrlE9node_copyEPNS1_4NodeES3_S3_
FNDA:0,_ZN5QListI4QUrlE9node_copyEPNS1_4NodeES3_S3_
FN:494,_ZN5QListI4QUrlE13node_destructEPNS1_4NodeES3_
FNDA:0,_ZN5QListI4QUrlE13node_destructEPNS1_4NodeES3_
FN:571,_ZN5QListI4QUrlE7reserveEi
FNDA:0,_ZN5QListI4QUrlE7reserveEi
FN:582,_ZN5QListI4QUrlE6appendERKS0_
FNDA:0,_ZN5QListI4QUrlE6appendERKS0_
FN:756,_ZN5QListI4QUrlE18detach_helper_growEii
FNDA:0,_ZN5QListI4QUrlE18detach_helper_growEii
FN:786,_ZN5QListI4QUrlE13detach_helperEi
FNDA:0,_ZN5QListI4QUrlE13detach_helperEi
FN:827,_ZN5QListI4QUrlED2Ev
FNDA:0,_ZN5QListI4QUrlED2Ev
FN:866,_ZN5QListI4QUrlE7deallocEPN9QListData4DataE
FNDA:0,_ZN5QListI4QUrlE7deallocEPN9QListData4DataE
DA:75,0
DA:100,0
DA:116,0
DA:117,0
DA:163,0
DA:164,0
DA:165,0
DA:363,0
DA:436,0
DA:439,0
DA:449,0
DA:452,0
DA:455,0
DA:456,0
DA:459,0
DA:461,0
DA:477,0
DA:478,0
DA:479,0
DA:480,0
DA:482,0
DA:483,0
DA:484,0
DA:485,0
DA:491,0
DA:494,0
DA:499,0
DA:500,0
DA:571,0
DA:573,0
DA:574,0
DA:575,0
DA:577,0
DA:579,0
DA:582,0
DA:584,0
DA:585,0
DA:587,0
DA:588,0
DA:589,0
DA:590,0
DA:603,0
DA:605,0
DA:606,0
DA:607,0
DA:608,0
DA:610,0
DA:613,0
DA:756,0
DA:758,0
DA:759,0
DA:761,0
DA:762,0
DA:763,0
DA:764,0
DA:765,0
DA:766,0
DA:769,0
DA:770,0
DA:771,0
DA:772,0
DA:773,0
DA:774,0
DA:775,0
DA:776,0
DA:779,0
DA:780,0
DA:782,0
DA:786,0
DA:788,0
DA:789,0
DA:791,0
DA:792,0
DA:793,0
DA:794,0
DA:795,0
DA:798,0
DA:799,0
DA:800,0
DA:827,0
DA:829,0
DA:830,0
DA:831,0
DA:866,0
DA:868,0
DA:869,0
DA:870,0
DA:871,0
end_of_record
SF:/usr/include/qt5/QtCore/qobject.h
FN:308,_ZN7QObject7connectIM7QActionFvbEZN13LinkExtension22aboutToShowContextMenuEP5QMenuRK6QPointEUlvE0_EENSt9enable_ifIXeqsrN9QtPrivate15FunctionPointerIT0_EE13ArgumentCountLin1EEN11QMetaObject10ConnectionEE4typeEPKNSD_IT_E6ObjectESK_PKS_SE_N2Qt14ConnectionTypeE
FNDA:0,_ZN7QObject7connectIM7QActionFvbEZN13LinkExtension22aboutToShowContextMenuEP5QMenuRK6QPointEUlvE0_EENSt9enable_ifIXeqsrN9QtPrivate15FunctionPointerIT0_EE13ArgumentCountLin1EEN11QMetaObject10ConnectionEE4typeEPKNSD_IT_E6ObjectESK_PKS_SE_N2Qt14ConnectionTypeE
FN:308,_ZN7QObject7connectIM7QActionFvbEZN13LinkExtension22aboutToShowContextMenuEP5QMenuRK6QPointEUlvE_EENSt9enable_ifIXeqsrN9QtPrivate15FunctionPointerIT0_EE13ArgumentCountLin1EEN11QMetaObject10ConnectionEE4typeEPKNSD_IT_E6ObjectESK_PKS_SE_N2Qt14ConnectionTypeE
FNDA:0,_ZN7QObject7connectIM7QActionFvbEZN13LinkExtension22aboutToShowContextMenuEP5QMenuRK6QPointEUlvE_EENSt9enable_ifIXeqsrN9QtPrivate15FunctionPointerIT0_EE13ArgumentCountLin1EEN11QMetaObject10ConnectionEE4typeEPKNSD_IT_E6ObjectESK_PKS_SE_N2Qt14ConnectionTypeE
DA:308,0
DA:312,0
DA:316,0
DA:325,0
DA:326,0
DA:327,0
DA:330,0
DA:332,0
DA:333,0
DA:308,0
DA:312,0
DA:316,0
DA:325,0
DA:326,0
DA:327,0
DA:330,0
DA:332,0
DA:333,0
end_of_record
SF:/usr/include/qt5/QtCore/qobject_impl.h
FN:75,_ZN9QtPrivate15ConnectionTypesINS_4ListIJbEEELb1EE5typesEv
FNDA:0,_ZN9QtPrivate15ConnectionTypesINS_4ListIJbEEELb1EE5typesEv
DA:75,0
end_of_record
SF:/usr/include/c++/9/bits/cpp_type_traits.h
FN:428,_ZSt12__miter_baseIPK4QUrlET_S3_
FNDA:0,_ZSt12__miter_baseIPK4QUrlET_S3_
DA:428,0
DA:429,0
end_of_record
SF:/usr/include/qt5/QtCore/qarraydata.h
FN:236,_ZN15QTypedArrayDataItE10deallocateEP10QArrayData
FNDA:0,_ZN15QTypedArrayDataItE10deallocateEP10QArrayData
DA:236,0
DA:239,0
DA:240,0
end_of_record
SF:/home/oresky/school/nanonote/nanonote/src/LinkExtension.h
FN:8,_ZN13LinkExtension2trEPKcS1_i
FNDA:0,_ZN13LinkExtension2trEPKcS1_i
DA:8,0
end_of_record
SF:/usr/include/qt5/QtCore/qobjectdefs_impl.h
FN:88,_ZN9QtPrivate16ApplyReturnValueIvEC2EPv
FNDA:0,_ZN9QtPrivate16ApplyReturnValueIvEC2EPv
FN:145,_ZN9QtPrivate11FunctorCallINS_11IndexesListIJEEENS_4ListIJEEEvZN13LinkExtension22aboutToShowContextMenuEP5QMenuRK6QPointEUlvE0_E4callERSB_PPv
FNDA:0,_ZN9QtPrivate11FunctorCallINS_11IndexesListIJEEENS_4ListIJEEEvZN13LinkExtension22aboutToShowContextMenuEP5QMenuRK6QPointEUlvE0_E4callERSB_PPv
FN:145,_ZN9QtPrivate11FunctorCallINS_11IndexesListIJEEENS_4ListIJEEEvZN13LinkExtension22aboutToShowContextMenuEP5QMenuRK6QPointEUlvE_E4callERSB_PPv
FNDA:0,_ZN9QtPrivate11FunctorCallINS_11IndexesListIJEEENS_4ListIJEEEvZN13LinkExtension22aboutToShowContextMenuEP5QMenuRK6QPointEUlvE_E4callERSB_PPv
FN:255,_ZN9QtPrivate7FunctorIZN13LinkExtension22aboutToShowContextMenuEP5QMenuRK6QPointEUlvE0_Li0EE4callINS_4ListIJEEEvEEvRS7_PvPSD_
FNDA:0,_ZN9QtPrivate7FunctorIZN13LinkExtension22aboutToShowContextMenuEP5QMenuRK6QPointEUlvE0_Li0EE4callINS_4ListIJEEEvEEvRS7_PvPSD_
FN:255,_ZN9QtPrivate7FunctorIZN13LinkExtension22aboutToShowContextMenuEP5QMenuRK6QPointEUlvE_Li0EE4callINS_4ListIJEEEvEEvRS7_PvPSD_
FNDA:0,_ZN9QtPrivate7FunctorIZN13LinkExtension22aboutToShowContextMenuEP5QMenuRK6QPointEUlvE_Li0EE4callINS_4ListIJEEEvEEvRS7_PvPSD_
FN:387,_ZN9QtPrivate15QSlotObjectBaseC2EPFviPS0_P7QObjectPPvPbE
FNDA:0,_ZN9QtPrivate15QSlotObjectBaseC2EPFviPS0_P7QObjectPPvPbE
FN:396,_ZN9QtPrivate15QSlotObjectBaseD2Ev
FNDA:0,_ZN9QtPrivate15QSlotObjectBaseD2Ev
FN:432,_ZN9QtPrivate18QFunctorSlotObjectIZN13LinkExtension22aboutToShowContextMenuEP5QMenuRK6QPointEUlvE0_Li0ENS_4ListIJEEEvE4implEiPNS_15QSlotObjectBaseEP7QObjectPPvPb
FNDA:0,_ZN9QtPrivate18QFunctorSlotObjectIZN13LinkExtension22aboutToShowContextMenuEP5QMenuRK6QPointEUlvE0_Li0ENS_4ListIJEEEvE4implEiPNS_15QSlotObjectBaseEP7QObjectPPvPb
FN:432,_ZN9QtPrivate18QFunctorSlotObjectIZN13LinkExtension22aboutToShowContextMenuEP5QMenuRK6QPointEUlvE_Li0ENS_4ListIJEEEvE4implEiPNS_15QSlotObjectBaseEP7QObjectPPvPb
FNDA:0,_ZN9QtPrivate18QFunctorSlotObjectIZN13LinkExtension22aboutToShowContextMenuEP5QMenuRK6QPointEUlvE_Li0ENS_4ListIJEEEvE4implEiPNS_15QSlotObjectBaseEP7QObjectPPvPb
FN:447,_ZN9QtPrivate18QFunctorSlotObjectIZN13LinkExtension22aboutToShowContextMenuEP5QMenuRK6QPointEUlvE0_Li0ENS_4ListIJEEEvEC2ES7_
FNDA:0,_ZN9QtPrivate18QFunctorSlotObjectIZN13LinkExtension22aboutToShowContextMenuEP5QMenuRK6QPointEUlvE0_Li0ENS_4ListIJEEEvEC2ES7_
FN:447,_ZN9QtPrivate18QFunctorSlotObjectIZN13LinkExtension22aboutToShowContextMenuEP5QMenuRK6QPointEUlvE_Li0ENS_4ListIJEEEvEC2ES7_
FNDA:0,_ZN9QtPrivate18QFunctorSlotObjectIZN13LinkExtension22aboutToShowContextMenuEP5QMenuRK6QPointEUlvE_Li0ENS_4ListIJEEEvEC2ES7_
DA:88,0
DA:145,0
DA:146,0
DA:147,0
DA:145,0
DA:146,0
DA:147,0
DA:255,0
DA:256,0
DA:257,0
DA:255,0
DA:256,0
DA:257,0
DA:387,0
DA:396,0
DA:432,0
DA:434,0
DA:435,0
DA:436,0
DA:437,0
DA:438,0
DA:439,0
DA:440,0
DA:441,0
DA:445,0
DA:432,0
DA:434,0
DA:435,0
DA:436,0
DA:437,0
DA:438,0
DA:439,0
DA:440,0
DA:441,0
DA:445,0
DA:447,0
DA:447,0
end_of_record
SF:/usr/include/qt5/QtGui/qevent.h
FN:73,_ZNK11QInputEvent9modifiersEv
FNDA:0,_ZNK11QInputEvent9modifiersEv
FN:350,_ZNK9QKeyEvent3keyEv
FNDA:0,_ZNK9QKeyEvent3keyEv
DA:73,0
DA:350,0
end_of_record
SF:/usr/include/c++/9/new
FN:173,_ZnwmPv
FNDA:0,_ZnwmPv
FN:179,_ZdlPvS_
FNDA:0,_ZdlPvS_
DA:173,0
DA:174,0
DA:179,0
end_of_record
SF:/usr/include/qt5/QtCore/qrefcount.h
FN:65,_ZN9QtPrivate8RefCount5derefEv
FNDA:0,_ZN9QtPrivate8RefCount5derefEv
FN:99,_ZNK9QtPrivate8RefCount8isSharedEv
FNDA:0,_ZNK9QtPrivate8RefCount8isSharedEv
DA:65,0
DA:66,0
DA:68,0
DA:69,0
DA:71,0
DA:72,0
DA:73,0
DA:99,0
DA:101,0
DA:102,0
end_of_record
SF:/usr/include/c++/9/bits/stl_algobase.h
FN:280,_ZSt12__niter_baseISt20back_insert_iteratorI5QListI4QUrlEEET_S5_
FNDA:0,_ZSt12__niter_baseISt20back_insert_iteratorI5QListI4QUrlEEET_S5_
FN:280,_ZSt12__niter_baseIPK4QUrlET_S3_
FNDA:0,_ZSt12__niter_baseIPK4QUrlET_S3_
FN:295,_ZSt12__niter_wrapISt20back_insert_iteratorI5QListI4QUrlEEET_RKS5_S5_
FNDA:0,_ZSt12__niter_wrapISt20back_insert_iteratorI5QListI4QUrlEEET_RKS5_S5_
FN:337,_ZNSt11__copy_moveILb0ELb0ESt26random_access_iterator_tagE8__copy_mIPK4QUrlSt20back_insert_iteratorI5QListIS3_EEEET0_T_SB_SA_
FNDA:0,_ZNSt11__copy_moveILb0ELb0ESt26random_access_iterator_tagE8__copy_mIPK4QUrlSt20back_insert_iteratorI5QListIS3_EEEET0_T_SB_SA_
FN:393,_ZSt13__copy_move_aILb0EPK4QUrlSt20back_insert_iteratorI5QListIS0_EEET1_T0_S8_S7_
FNDA:0,_ZSt13__copy_move_aILb0EPK4QUrlSt20back_insert_iteratorI5QListIS0_EEET1_T0_S8_S7_
FN:438,_ZSt14__copy_move_a2ILb0EPK4QUrlSt20back_insert_iteratorI5QListIS0_EEET1_T0_S8_S7_
FNDA:0,_ZSt14__copy_move_a2ILb0EPK4QUrlSt20back_insert_iteratorI5QListIS0_EEET1_T0_S8_S7_
FN:465,_ZSt4copyIPK4QUrlSt20back_insert_iteratorI5QListIS0_EEET0_T_S8_S7_
FNDA:0,_ZSt4copyIPK4QUrlSt20back_insert_iteratorI5QListIS0_EEET0_T_S8_S7_
DA:280,0
DA:282,0
DA:280,0
DA:282,0
DA:295,0
DA:296,0
DA:337,0
DA:340,0
DA:342,0
DA:343,0
DA:344,0
DA:346,0
DA:393,0
DA:398,0
DA:404,0
DA:438,0
DA:440,0
DA:443,0
DA:465,0
DA:474,0
end_of_record
SF:/usr/include/qt5/QtCore/qbasicatomic.h
FN:103,_ZNK19QBasicAtomicIntegerIiE4loadEv
FNDA:0,_ZNK19QBasicAtomicIntegerIiE4loadEv
FN:115,_ZN19QBasicAtomicIntegerIiE5derefEv
FNDA:0,_ZN19QBasicAtomicIntegerIiE5derefEv
FN:221,_ZN19QBasicAtomicIntegerIiEC2Ei
FNDA:0,_ZN19QBasicAtomicIntegerIiEC2Ei
DA:103,0
DA:115,0
DA:221,0
end_of_record
SF:/usr/include/qt5/QtCore/qurl.h
FN:186,_ZN4QUrlC2EOS_
FNDA:0,_ZN4QUrlC2EOS_
DA:186,0
DA:187,0
end_of_record
SF:/usr/include/qt5/QtCore/qstring.h
FN:1135,_ZN7QStringD2Ev
FNDA:0,_ZN7QStringD2Ev
DA:1135,0
end_of_record
SF:/usr/include/c++/9/atomic
FN:759,_ZNSt6atomicIiEC2Ei
FNDA:0,_ZNSt6atomicIiEC2Ei
DA:759,0
end_of_record
SF:/usr/include/qt5/QtCore/qatomic.h
FN:60,_ZN14QAtomicIntegerIiEC2Ei
FNDA:0,_ZN14QAtomicIntegerIiEC2Ei
FN:162,_ZN10QAtomicIntC2Ei
FNDA:0,_ZN10QAtomicIntC2Ei
DA:60,0
DA:162,0
end_of_record
SF:/usr/include/c++/9/bits/atomic_base.h
FN:99,_ZStanSt12memory_orderSt23__memory_order_modifier
FNDA:0,_ZStanSt12memory_orderSt23__memory_order_modifier
FN:279,_ZNSt13__atomic_baseIiEC2Ei
FNDA:0,_ZNSt13__atomic_baseIiEC2Ei
FN:326,_ZNSt13__atomic_baseIiEmmEv
FNDA:0,_ZNSt13__atomic_baseIiEmmEv
DA:99,0
DA:101,0
DA:279,0
DA:326,0
DA:327,0
DA:415,0
DA:419,0
end_of_record
SF:/usr/include/qt5/QtCore/qcoreapplication.h
FN:116,_ZN16QCoreApplication8instanceEv
FNDA:0,_ZN16QCoreApplication8instanceEv
DA:116,0
end_of_record
SF:/usr/include/c++/9/initializer_list
FN:71,_ZNKSt16initializer_listI4QUrlE4sizeEv
FNDA:0,_ZNKSt16initializer_listI4QUrlE4sizeEv
FN:75,_ZNKSt16initializer_listI4QUrlE5beginEv
FNDA:0,_ZNKSt16initializer_listI4QUrlE5beginEv
FN:79,_ZNKSt16initializer_listI4QUrlE3endEv
FNDA:0,_ZNKSt16initializer_listI4QUrlE3endEv
DA:71,0
DA:75,0
DA:79,0
end_of_record
SF:/usr/include/qt5/QtCore/qatomic_cxx11.h
FN:225,_ZN10QAtomicOpsIiE4loadIiEET_RKSt6atomicIS2_E
FNDA:0,_ZN10QAtomicOpsIiE4loadIiEET_RKSt6atomicIS2_E
FN:269,_ZN10QAtomicOpsIiE5derefIiEEbRSt6atomicIT_E
FNDA:0,_ZN10QAtomicOpsIiE5derefIiEEbRSt6atomicIT_E
DA:225,0
DA:227,0
DA:269,0
DA:271,0
end_of_record
SF:/usr/include/c++/9/bits/move.h
FN:47,_ZSt11__addressofI5QListI4QUrlEEPT_RS3_
FNDA:0,_ZSt11__addressofI5QListI4QUrlEEPT_RS3_
FN:99,_ZSt4moveIRZN13LinkExtension22aboutToShowContextMenuEP5QMenuRK6QPointEUlvE0_EONSt16remove_referenceIT_E4typeEOS9_
FNDA:0,_ZSt4moveIRZN13LinkExtension22aboutToShowContextMenuEP5QMenuRK6QPointEUlvE0_EONSt16remove_referenceIT_E4typeEOS9_
FN:99,_ZSt4moveIRZN13LinkExtension22aboutToShowContextMenuEP5QMenuRK6QPointEUlvE_EONSt16remove_referenceIT_E4typeEOS9_
FNDA:0,_ZSt4moveIRZN13LinkExtension22aboutToShowContextMenuEP5QMenuRK6QPointEUlvE_EONSt16remove_referenceIT_E4typeEOS9_
DA:47,0
DA:48,0
DA:99,0
DA:100,0
DA:99,0
DA:100,0
end_of_record
SF:/home/oresky/school/nanonote/nanonote/src/LinkExtension.cpp
FN:11,_ZL18getLinkUnderCursorRK11QTextCursor
FNDA:0,_ZL18getLinkUnderCursorRK11QTextCursor
FN:16,_ZN13LinkExtensionC2EP8TextEdit
FNDA:0,_ZN13LinkExtensionC2EP8TextEdit
FN:20,_ZN13LinkExtension22aboutToShowContextMenuEP5QMenuRK6QPoint
FNDA:0,_ZN13LinkExtension22aboutToShowContextMenuEP5QMenuRK6QPoint
FN:27,_ZZN13LinkExtension22aboutToShowContextMenuEP5QMenuRK6QPointENKUlvE_clEv
FNDA:0,_ZZN13LinkExtension22aboutToShowContextMenuEP5QMenuRK6QPointENKUlvE_clEv
FN:32,_ZZN13LinkExtension22aboutToShowContextMenuEP5QMenuRK6QPointENKUlvE0_clEv
FNDA:0,_ZZN13LinkExtension22aboutToShowContextMenuEP5QMenuRK6QPointENKUlvE0_clEv
FN:37,_ZN13LinkExtension8keyPressEP9QKeyEvent
FNDA:0,_ZN13LinkExtension8keyPressEP9QKeyEvent
FN:51,_ZN13LinkExtension10keyReleaseEP9QKeyEvent
FNDA:0,_ZN13LinkExtension10keyReleaseEP9QKeyEvent
FN:59,_ZN13LinkExtension12mouseReleaseEP11QMouseEvent
FNDA:0,_ZN13LinkExtension12mouseReleaseEP11QMouseEvent
FN:67,_ZN13LinkExtension19openLinkUnderCursorEv
FNDA:0,_ZN13LinkExtension19openLinkUnderCursorEv
DA:11,0
DA:13,0
DA:16,0
DA:17,0
DA:18,0
DA:20,0
DA:22,0
DA:23,0
DA:24,0
DA:25,0
DA:27,0
DA:28,0
DA:29,0
DA:30,0
DA:31,0
DA:32,0
DA:33,0
DA:34,0
DA:37,0
DA:39,0
DA:40,0
DA:41,0
DA:42,0
DA:44,0
DA:45,0
DA:46,0
DA:48,0
DA:51,0
DA:53,0
DA:54,0
DA:56,0
DA:59,0
DA:61,0
DA:62,0
DA:64,0
DA:67,0
DA:69,0
DA:70,0
DA:71,0
DA:73,0
end_of_record
SF:/usr/include/qt5/QtCore/qflags.h
FN:137,_ZNK6QFlagsIN2Qt16KeyboardModifierEEcvjEv
FNDA:0,_ZNK6QFlagsIN2Qt16KeyboardModifierEEcvjEv
DA:137,0
end_of_record
TN:
SF:/usr/include/qt5/QtCore/qatomic_cxx11.h
FN:225,_ZN10QAtomicOpsIiE4loadIiEET_RKSt6atomicIS2_E
FNDA:0,_ZN10QAtomicOpsIiE4loadIiEET_RKSt6atomicIS2_E
FN:269,_ZN10QAtomicOpsIiE5derefIiEEbRSt6atomicIT_E
FNDA:0,_ZN10QAtomicOpsIiE5derefIiEEbRSt6atomicIT_E
DA:225,0
DA:227,0
DA:269,0
DA:271,0
end_of_record
SF:/usr/include/qt5/QtWidgets/qwidget.h
FN:757,_ZNK7QWidget11windowFlagsEv
FNDA:0,_ZNK7QWidget11windowFlagsEv
FN:829,_ZNK7QWidget9isVisibleEv
FNDA:0,_ZNK7QWidget9isVisibleEv
FN:847,_ZNK7QWidget8geometryEv
FNDA:0,_ZNK7QWidget8geometryEv
FN:865,_ZNK7QWidget13testAttributeEN2Qt15WidgetAttributeE
FNDA:0,_ZNK7QWidget13testAttributeEN2Qt15WidgetAttributeE
DA:757,0
DA:758,0
DA:829,0
DA:830,0
DA:847,0
DA:848,0
DA:865,0
DA:867,0
DA:868,0
DA:869,0
end_of_record
SF:/usr/include/c++/9/bits/move.h
FN:99,_ZSt4moveIRP7QObjectEONSt16remove_referenceIT_E4typeEOS4_
FNDA:0,_ZSt4moveIRP7QObjectEONSt16remove_referenceIT_E4typeEOS4_
FN:99,_ZSt4moveIRPN15QtSharedPointer20ExternalRefCountDataEEONSt16remove_referenceIT_E4typeEOS5_
FNDA:0,_ZSt4moveIRPN15QtSharedPointer20ExternalRefCountDataEEONSt16remove_referenceIT_E4typeEOS5_
FN:99,_ZSt4moveIR12QWeakPointerI7QObjectEEONSt16remove_referenceIT_E4typeEOS5_
FNDA:0,_ZSt4moveIR12QWeakPointerI7QObjectEEONSt16remove_referenceIT_E4typeEOS5_
FN:99,_ZSt4moveIRZN10MainWindow12setupActionsEvEUlvE0_EONSt16remove_referenceIT_E4typeEOS4_
FNDA:0,_ZSt4moveIRZN10MainWindow12setupActionsEvEUlvE0_EONSt16remove_referenceIT_E4typeEOS4_
FN:99,_ZSt4moveIRZN10MainWindow12setupActionsEvEUlvE_EONSt16remove_referenceIT_E4typeEOS4_
FNDA:0,_ZSt4moveIRZN10MainWindow12setupActionsEvEUlvE_EONSt16remove_referenceIT_E4typeEOS4_
FN:99,_ZSt4moveIRZN10MainWindow18setupAutoSaveTimerEvEUlvE_EONSt16remove_referenceIT_E4typeEOS4_
FNDA:0,_ZSt4moveIRZN10MainWindow18setupAutoSaveTimerEvEUlvE_EONSt16remove_referenceIT_E4typeEOS4_
FN:182,_ZSt4swapIP7QObjectENSt9enable_ifIXsrSt6__and_IJSt6__not_ISt15__is_tuple_likeIT_EESt21is_move_constructibleIS6_ESt18is_move_assignableIS6_EEE5valueEvE4typeERS6_SG_
FNDA:0,_ZSt4swapIP7QObjectENSt9enable_ifIXsrSt6__and_IJSt6__not_ISt15__is_tuple_likeIT_EESt21is_move_constructibleIS6_ESt18is_move_assignableIS6_EEE5valueEvE4typeERS6_SG_
FN:182,_ZSt4swapIPN15QtSharedPointer20ExternalRefCountDataEENSt9enable_ifIXsrSt6__and_IJSt6__not_ISt15__is_tuple_likeIT_EESt21is_move_constructibleIS7_ESt18is_move_assignableIS7_EEE5valueEvE4typeERS7_SH_
FNDA:0,_ZSt4swapIPN15QtSharedPointer20ExternalRefCountDataEENSt9enable_ifIXsrSt6__and_IJSt6__not_ISt15__is_tuple_likeIT_EESt21is_move_constructibleIS7_ESt18is_move_assignableIS7_EEE5valueEvE4typeERS7_SH_
DA:99,0
DA:100,0
DA:99,0
DA:100,0
DA:99,0
DA:100,0
DA:99,0
DA:100,0
DA:99,0
DA:100,0
DA:99,0
DA:100,0
DA:182,0
DA:193,0
DA:194,0
DA:195,0
DA:196,0
DA:182,0
DA:193,0
DA:194,0
DA:195,0
DA:196,0
end_of_record
SF:/usr/include/qt5/QtCore/qbytearray.h
FN:76,_Z8qstrnlenPKcj
FNDA:0,_Z8qstrnlenPKcj
FN:476,_ZN10QByteArrayD2Ev
FNDA:0,_ZN10QByteArrayD2Ev
FN:477,_ZNK10QByteArray4sizeEv
FNDA:0,_ZNK10QByteArray4sizeEv
FN:497,_ZNK10QByteArray4dataEv
FNDA:0,_ZNK10QByteArray4dataEv
FN:499,_ZNK10QByteArray9constDataEv
FNDA:0,_ZNK10QByteArray9constDataEv
DA:76,0
DA:78,0
DA:79,0
DA:80,0
DA:81,0
DA:83,0
DA:476,0
DA:477,0
DA:478,0
DA:497,0
DA:498,0
DA:499,0
DA:500,0
end_of_record
SF:/usr/include/qt5/QtCore/qflags.h
FN:120,_ZN6QFlagsIN9QIODevice12OpenModeFlagEEC2ES1_
FNDA:0,_ZN6QFlagsIN9QIODevice12OpenModeFlagEEC2ES1_
FN:121,_ZN6QFlagsIN2Qt10WindowTypeEEC2EMNS2_7PrivateEi
FNDA:0,_ZN6QFlagsIN2Qt10WindowTypeEEC2EMNS2_7PrivateEi
FN:130,_ZN6QFlagsIN2Qt10WindowTypeEEaNEj
FNDA:0,_ZN6QFlagsIN2Qt10WindowTypeEEaNEj
FN:133,_ZN6QFlagsIN2Qt10WindowTypeEEoRES1_
FNDA:0,_ZN6QFlagsIN2Qt10WindowTypeEEoRES1_
FN:151,_ZN6QFlagsIN2Qt10WindowTypeEE7setFlagES1_b
FNDA:0,_ZN6QFlagsIN2Qt10WindowTypeEE7setFlagES1_b
DA:120,0
DA:121,0
DA:130,0
DA:133,0
DA:151,0
DA:153,0
end_of_record
SF:/usr/include/qt5/QtCore/qlogging.h
FN:68,_ZN18QMessageLogContextC2EPKciS1_S1_
FNDA:0,_ZN18QMessageLogContextC2EPKciS1_S1_
FN:91,_ZN14QMessageLoggerC2EPKciS1_
FNDA:0,_ZN14QMessageLoggerC2EPKciS1_
DA:68,0
DA:69,0
DA:91,0
DA:92,0
end_of_record
SF:/usr/include/qt5/QtWidgets/qplaintextedit.h
FN:153,_ZNK14QPlainTextEdit11toPlainTextEv
FNDA:0,_ZNK14QPlainTextEdit11toPlainTextEv
DA:153,0
DA:154,0
end_of_record
SF:/usr/include/qt5/QtCore/qrefcount.h
FN:65,_ZN9QtPrivate8RefCount5derefEv
FNDA:0,_ZN9QtPrivate8RefCount5derefEv
DA:65,0
DA:66,0
DA:68,0
DA:69,0
DA:71,0
DA:72,0
DA:73,0
end_of_record
SF:/usr/include/qt5/QtCore/qbasicatomic.h
FN:103,_ZNK19QBasicAtomicIntegerIiE4loadEv
FNDA:0,_ZNK19QBasicAtomicIntegerIiE4loadEv
FN:115,_ZN19QBasicAtomicIntegerIiE5derefEv
FNDA:0,_ZN19QBasicAtomicIntegerIiE5derefEv
FN:221,_ZN19QBasicAtomicIntegerIiEC2Ei
FNDA:0,_ZN19QBasicAtomicIntegerIiEC2Ei
DA:103,0
DA:115,0
DA:221,0
end_of_record
SF:/usr/include/qt5/QtCore/qrect.h
FN:199,_ZNK5QRect7isValidEv
FNDA:0,_ZNK5QRect7isValidEv
FN:202,_ZNK5QRect4leftEv
FNDA:0,_ZNK5QRect4leftEv
FN:205,_ZNK5QRect3topEv
FNDA:0,_ZNK5QRect3topEv
FN:208,_ZNK5QRect5rightEv
FNDA:0,_ZNK5QRect5rightEv
FN:211,_ZNK5QRect6bottomEv
FNDA:0,_ZNK5QRect6bottomEv
FN:315,_ZN5QRect8moveLeftEi
FNDA:0,_ZN5QRect8moveLeftEi
FN:318,_ZN5QRect7moveTopEi
FNDA:0,_ZN5QRect7moveTopEi
FN:321,_ZN5QRect9moveRightEi
FNDA:0,_ZN5QRect9moveRightEi
FN:327,_ZN5QRect10moveBottomEi
FNDA:0,_ZN5QRect10moveBottomEi
DA:199,0
DA:200,0
DA:202,0
DA:203,0
DA:205,0
DA:206,0
DA:208,0
DA:209,0
DA:211,0
DA:212,0
DA:315,0
DA:316,0
DA:318,0
DA:319,0
DA:321,0
DA:323,0
DA:324,0
DA:325,0
DA:327,0
DA:329,0
DA:330,0
DA:331,0
end_of_record
SF:/home/oresky/school/nanonote/nanonote/src/MainWindow.h
FN:34,_ZN10MainWindow2trEPKcS1_i
FNDA:0,_ZN10MainWindow2trEPKcS1_i
DA:34,0
end_of_record
SF:/usr/include/qt5/QtCore/qcoreapplication.h
FN:116,_ZN16QCoreApplication8instanceEv
FNDA:0,_ZN16QCoreApplication8instanceEv
DA:116,0
end_of_record
SF:/usr/include/c++/9/bits/atomic_base.h
FN:99,_ZStanSt12memory_orderSt23__memory_order_modifier
FNDA:0,_ZStanSt12memory_orderSt23__memory_order_modifier
FN:279,_ZNSt13__atomic_baseIiEC2Ei
FNDA:0,_ZNSt13__atomic_baseIiEC2Ei
FN:326,_ZNSt13__atomic_baseIiEmmEv
FNDA:0,_ZNSt13__atomic_baseIiEmmEv
DA:99,0
DA:101,0
DA:279,0
DA:326,0
DA:327,0
DA:415,0
DA:419,0
end_of_record
SF:/usr/include/c++/9/atomic
FN:759,_ZNSt6atomicIiEC2Ei
FNDA:0,_ZNSt6atomicIiEC2Ei
DA:759,0
end_of_record
SF:/usr/include/qt5/QtCore/qstring.h
FN:551,_ZNO7QString6toUtf8Ev
FNDA:0,_ZNO7QString6toUtf8Ev
FN:570,_ZN7QString8fromUtf8EPKci
FNDA:0,_ZN7QString8fromUtf8EPKci
FN:580,_ZN7QString8fromUtf8ERK10QByteArray
FNDA:0,_ZN7QString8fromUtf8ERK10QByteArray
FN:699,_ZN7QStringC2EPKc
FNDA:0,_ZN7QStringC2EPKc
FN:933,_ZNK7QString6lengthEv
FNDA:0,_ZNK7QString6lengthEv
FN:949,_ZNK7QString9constDataEv
FNDA:0,_ZNK7QString9constDataEv
FN:1134,_ZN7QStringC2Ev
FNDA:0,_ZN7QStringC2Ev
FN:1135,_ZN7QStringD2Ev
FNDA:0,_ZN7QStringD2Ev
DA:551,0
DA:552,0
DA:570,0
DA:572,0
DA:580,0
DA:581,0
DA:699,0
DA:700,0
DA:701,0
DA:933,0
DA:934,0
DA:949,0
DA:950,0
DA:1134,0
DA:1135,0
end_of_record
SF:/usr/include/qt5/QtCore/qiodevice.h
FN:136,_ZN9QIODevice5writeERK10QByteArray
FNDA:0,_ZN9QIODevice5writeERK10QByteArray
DA:136,0
DA:137,0
end_of_record
SF:/usr/include/qt5/QtCore/qatomic.h
FN:60,_ZN14QAtomicIntegerIiEC2Ei
FNDA:0,_ZN14QAtomicIntegerIiEC2Ei
FN:162,_ZN10QAtomicIntC2Ei
FNDA:0,_ZN10QAtomicIntC2Ei
DA:60,0
DA:162,0
end_of_record
SF:/usr/include/c++/9/chrono
FN:162,_ZNSt6chrono20__duration_cast_implINS_8durationIlSt5ratioILl1ELl1000EEEES2_ILl1000ELl1EElLb0ELb1EE6__castIlS2_ILl1ELl1EEEES4_RKNS1_IT_T0_EE
FNDA:0,_ZNSt6chrono20__duration_cast_implINS_8durationIlSt5ratioILl1ELl1000EEEES2_ILl1000ELl1EElLb0ELb1EE6__castIlS2_ILl1ELl1EEEES4_RKNS1_IT_T0_EE
FN:191,_ZNSt6chrono13duration_castINS_8durationIlSt5ratioILl1ELl1000EEEElS2_ILl1ELl1EEEENSt9enable_ifIXsrNS_13__is_durationIT_EE5valueES8_E4typeERKNS1_IT0_T1_EE
FNDA:0,_ZNSt6chrono13duration_castINS_8durationIlSt5ratioILl1ELl1000EEEElS2_ILl1ELl1EEEENSt9enable_ifIXsrNS_13__is_durationIT_EE5valueES8_E4typeERKNS1_IT0_T1_EE
FN:331,_ZNSt6chrono8durationIlSt5ratioILl1ELl1000EEEC2IlvEERKT_
FNDA:0,_ZNSt6chrono8durationIlSt5ratioILl1ELl1000EEEC2IlvEERKT_
FN:338,_ZNSt6chrono8durationIlSt5ratioILl1ELl1000EEEC2IlS1_ILl1ELl1EEvEERKNS0_IT_T0_EE
FNDA:0,_ZNSt6chrono8durationIlSt5ratioILl1ELl1000EEEC2IlS1_ILl1ELl1EEvEERKNS0_IT_T0_EE
FN:346,_ZNKSt6chrono8durationIlSt5ratioILl1ELl1000EEE5countEv
FNDA:0,_ZNKSt6chrono8durationIlSt5ratioILl1ELl1000EEE5countEv
FN:346,_ZNKSt6chrono8durationIlSt5ratioILl1ELl1EEE5countEv
FNDA:0,_ZNKSt6chrono8durationIlSt5ratioILl1ELl1EEE5countEv
DA:162,0
DA:166,0
DA:191,0
DA:200,0
DA:331,0
DA:332,0
DA:338,0
DA:339,0
DA:346,0
DA:347,0
DA:346,0
DA:347,0
end_of_record
SF:/usr/include/qt5/QtCore/qobject_impl.h
FN:71,_ZN9QtPrivate15ConnectionTypesINS_4ListIJN6QTimer14QPrivateSignalEEEELb0EE5typesEv
FNDA:0,_ZN9QtPrivate15ConnectionTypesINS_4ListIJN6QTimer14QPrivateSignalEEEELb0EE5typesEv
FN:73,_ZN9QtPrivate15ConnectionTypesINS_4ListIJEEELb1EE5typesEv
FNDA:0,_ZN9QtPrivate15ConnectionTypesINS_4ListIJEEELb1EE5typesEv
FN:75,_ZN9QtPrivate15ConnectionTypesINS_4ListIJRK5QFontEEELb1EE5typesEv
FNDA:0,_ZN9QtPrivate15ConnectionTypesINS_4ListIJRK5QFontEEELb1EE5typesEv
FN:75,_ZN9QtPrivate15ConnectionTypesINS_4ListIJbEEELb1EE5typesEv
FNDA:0,_ZN9QtPrivate15ConnectionTypesINS_4ListIJbEEELb1EE5typesEv
FN:75,_ZN9QtPrivate15ConnectionTypesINS_4ListIJiEEELb1EE5typesEv
FNDA:0,_ZN9QtPrivate15ConnectionTypesINS_4ListIJiEEELb1EE5typesEv
FN:83,_ZN9QtPrivate17QStaticSlotObjectIPFvvENS_4ListIJEEEvE4implEiPNS_15QSlotObjectBaseEP7QObjectPPvPb
FNDA:0,_ZN9QtPrivate17QStaticSlotObjectIPFvvENS_4ListIJEEEvE4implEiPNS_15QSlotObjectBaseEP7QObjectPPvPb
FN:98,_ZN9QtPrivate17QStaticSlotObjectIPFvvENS_4ListIJEEEvEC2ES2_
FNDA:0,_ZN9QtPrivate17QStaticSlotObjectIPFvvENS_4ListIJEEEvEC2ES2_
DA:71,0
DA:73,0
DA:75,0
DA:75,0
DA:75,0
DA:83,0
DA:85,0
DA:86,0
DA:87,0
DA:88,0
DA:89,0
DA:90,0
DA:91,0
DA:92,0
DA:96,0
DA:98,0
end_of_record
SF:/usr/include/qt5/QtCore/qobject.h
FN:228,_ZN7QObject7connectIM12SearchWidgetFvvEM10MainWindowFvvEEEN11QMetaObject10ConnectionEPKN9QtPrivate15FunctionPointerIT_E6ObjectESB_PKNSA_IT0_E6ObjectESG_N2Qt14ConnectionTypeE
FNDA:0,_ZN7QObject7connectIM12SearchWidgetFvvEM10MainWindowFvvEEEN11QMetaObject10ConnectionEPKN9QtPrivate15FunctionPointerIT_E6ObjectESB_PKNSA_IT0_E6ObjectESG_N2Qt14ConnectionTypeE
FN:228,_ZN7QObject7connectIM12BaseSettingsFvRK5QFontEM7QWidgetFvS4_EEEN11QMetaObject10ConnectionEPKN9QtPrivate15FunctionPointerIT_E6ObjectESE_PKNSD_IT0_E6ObjectESJ_N2Qt14ConnectionTypeE
FNDA:0,_ZN7QObject7connectIM12BaseSettingsFvRK5QFontEM7QWidgetFvS4_EEEN11QMetaObject10ConnectionEPKN9QtPrivate15FunctionPointerIT_E6ObjectESE_PKNSD_IT0_E6ObjectESJ_N2Qt14ConnectionTypeE
FN:228,_ZN7QObject7connectIM7QActionFvbEM10MainWindowFvbEEEN11QMetaObject10ConnectionEPKN9QtPrivate15FunctionPointerIT_E6ObjectESB_PKNSA_IT0_E6ObjectESG_N2Qt14ConnectionTypeE
FNDA:0,_ZN7QObject7connectIM7QActionFvbEM10MainWindowFvbEEEN11QMetaObject10ConnectionEPKN9QtPrivate15FunctionPointerIT_E6ObjectESB_PKNSA_IT0_E6ObjectESG_N2Qt14ConnectionTypeE
FN:228,_ZN7QObject7connectIM7QActionFvbEM10MainWindowFvvEEEN11QMetaObject10ConnectionEPKN9QtPrivate15FunctionPointerIT_E6ObjectESB_PKNSA_IT0_E6ObjectESG_N2Qt14ConnectionTypeE
FNDA:0,_ZN7QObject7connectIM7QActionFvbEM10MainWindowFvvEEEN11QMetaObject10ConnectionEPKN9QtPrivate15FunctionPointerIT_E6ObjectESB_PKNSA_IT0_E6ObjectESG_N2Qt14ConnectionTypeE
FN:228,_ZN7QObject7connectIM6QTimerFvNS1_14QPrivateSignalEEM10MainWindowFvvEEEN11QMetaObject10ConnectionEPKN9QtPrivate15FunctionPointerIT_E6ObjectESC_PKNSB_IT0_E6ObjectESH_N2Qt14ConnectionTypeE
FNDA:0,_ZN7QObject7connectIM6QTimerFvNS1_14QPrivateSignalEEM10MainWindowFvvEEEN11QMetaObject10ConnectionEPKN9QtPrivate15FunctionPointerIT_E6ObjectESC_PKNSB_IT0_E6ObjectESH_N2Qt14ConnectionTypeE
FN:228,_ZN7QObject7connectIM18WheelZoomExtensionFviEM10MainWindowFviEEEN11QMetaObject10ConnectionEPKN9QtPrivate15FunctionPointerIT_E6ObjectESB_PKNSA_IT0_E6ObjectESG_N2Qt14ConnectionTypeE
FNDA:0,_ZN7QObject7connectIM18WheelZoomExtensionFviEM10MainWindowFviEEEN11QMetaObject10ConnectionEPKN9QtPrivate15FunctionPointerIT_E6ObjectESB_PKNSA_IT0_E6ObjectESG_N2Qt14ConnectionTypeE
FN:269,_ZN7QObject7connectIM7QActionFvbEPFvvEEENSt9enable_ifIXaagecvisrN9QtPrivate15FunctionPointerIT0_EE13ArgumentCountLi0EntsrSA_25IsPointerToMemberFunctionEN11QMetaObject10ConnectionEE4typeEPKNS8_IT_E6ObjectESF_PKS_S9_N2Qt14ConnectionTypeE
FNDA:0,_ZN7QObject7connectIM7QActionFvbEPFvvEEENSt9enable_ifIXaagecvisrN9QtPrivate15FunctionPointerIT0_EE13ArgumentCountLi0EntsrSA_25IsPointerToMemberFunctionEN11QMetaObject10ConnectionEE4typeEPKNS8_IT_E6ObjectESF_PKS_S9_N2Qt14ConnectionTypeE
FN:308,_ZN7QObject7connectIM7QActionFvbEZN10MainWindow12setupActionsEvEUlvE0_EENSt9enable_ifIXeqsrN9QtPrivate15FunctionPointerIT0_EE13ArgumentCountLin1EEN11QMetaObject10ConnectionEE4typeEPKNS8_IT_E6ObjectESF_PKS_S9_N2Qt14ConnectionTypeE
FNDA:0,_ZN7QObject7connectIM7QActionFvbEZN10MainWindow12setupActionsEvEUlvE0_EENSt9enable_ifIXeqsrN9QtPrivate15FunctionPointerIT0_EE13ArgumentCountLin1EEN11QMetaObject10ConnectionEE4typeEPKNS8_IT_E6ObjectESF_PKS_S9_N2Qt14ConnectionTypeE
FN:308,_ZN7QObject7connectIM7QActionFvbEZN10MainWindow12setupActionsEvEUlvE_EENSt9enable_ifIXeqsrN9QtPrivate15FunctionPointerIT0_EE13ArgumentCountLin1EEN11QMetaObject10ConnectionEE4typeEPKNS8_IT_E6ObjectESF_PKS_S9_N2Qt14ConnectionTypeE
FNDA:0,_ZN7QObject7connectIM7QActionFvbEZN10MainWindow12setupActionsEvEUlvE_EENSt9enable_ifIXeqsrN9QtPrivate15FunctionPointerIT0_EE13ArgumentCountLin1EEN11QMetaObject10ConnectionEE4typeEPKNS8_IT_E6ObjectESF_PKS_S9_N2Qt14ConnectionTypeE
FN:308,_ZN7QObject7connectIM14QPlainTextEditFvvEZN10MainWindow18setupAutoSaveTimerEvEUlvE_EENSt9enable_ifIXeqsrN9QtPrivate15FunctionPointerIT0_EE13ArgumentCountLin1EEN11QMetaObject10ConnectionEE4typeEPKNS8_IT_E6ObjectESF_PKS_S9_N2Qt14ConnectionTypeE
FNDA:0,_ZN7QObject7connectIM14QPlainTextEditFvvEZN10MainWindow18setupAutoSaveTimerEvEUlvE_EENSt9enable_ifIXeqsrN9QtPrivate15FunctionPointerIT0_EE13ArgumentCountLin1EEN11QMetaObject10ConnectionEE4typeEPKNS8_IT_E6ObjectESF_PKS_S9_N2Qt14ConnectionTypeE
DA:228,0
DA:246,0
DA:247,0
DA:248,0
DA:252,0
DA:254,0
DA:228,0
DA:246,0
DA:247,0
DA:248,0
DA:252,0
DA:254,0
DA:228,0
DA:246,0
DA:247,0
DA:248,0
DA:252,0
DA:254,0
DA:228,0
DA:246,0
DA:247,0
DA:248,0
DA:252,0
DA:254,0
DA:228,0
DA:246,0
DA:247,0
DA:248,0
DA:252,0
DA:254,0
DA:228,0
DA:246,0
DA:247,0
DA:248,0
DA:252,0
DA:254,0
DA:269,0
DA:286,0
DA:287,0
DA:288,0
DA:291,0
DA:294,0
DA:308,0
DA:312,0
DA:316,0
DA:325,0
DA:326,0
DA:327,0
DA:330,0
DA:332,0
DA:333,0
DA:308,0
DA:312,0
DA:316,0
DA:325,0
DA:326,0
DA:327,0
DA:330,0
DA:332,0
DA:333,0
DA:308,0
DA:312,0
DA:316,0
DA:325,0
DA:326,0
DA:327,0
DA:330,0
DA:332,0
DA:333,0
end_of_record
SF:/usr/include/qt5/QtCore/qsharedpointer_impl.h
FN:155,_ZN15QtSharedPointer20ExternalRefCountDataD2Ev
FNDA:0,_ZN15QtSharedPointer20ExternalRefCountDataD2Ev
FN:167,_ZN15QtSharedPointer20ExternalRefCountDatadlEPv
FNDA:0,_ZN15QtSharedPointer20ExternalRefCountDatadlEPv
FN:569,_ZNK12QWeakPointerI7QObjectE4dataEv
FNDA:0,_ZNK12QWeakPointerI7QObjectE4dataEv
FN:571,_ZN12QWeakPointerI7QObjectEC2Ev
FNDA:0,_ZN12QWeakPointerI7QObjectEC2Ev
FN:572,_ZN12QWeakPointerI7QObjectED2Ev
FNDA:0,_ZN12QWeakPointerI7QObjectED2Ev
FN:592,_ZN12QWeakPointerI7QObjectEC2EOS1_
FNDA:0,_ZN12QWeakPointerI7QObjectEC2EOS1_
FN:598,_ZN12QWeakPointerI7QObjectEaSEOS1_
FNDA:0,_ZN12QWeakPointerI7QObjectEaSEOS1_
FN:608,_ZN12QWeakPointerI7QObjectE4swapERS1_
FNDA:0,_ZN12QWeakPointerI7QObjectE4swapERS1_
FN:683,_ZN12QWeakPointerI7QObjectE6assignIS0_EERS1_PT_
FNDA:0,_ZN12QWeakPointerI7QObjectE6assignIS0_EERS1_PT_
FN:688,_ZN12QWeakPointerI7QObjectEC2IS0_EEPT_b
FNDA:0,_ZN12QWeakPointerI7QObjectEC2IS0_EEPT_b
DA:155,0
DA:167,0
DA:569,0
DA:571,0
DA:572,0
DA:592,0
DA:593,0
DA:595,0
DA:596,0
DA:597,0
DA:598,0
DA:599,0
DA:608,0
DA:610,0
DA:611,0
DA:612,0
DA:683,0
DA:684,0
DA:688,0
DA:689,0
end_of_record
SF:/home/oresky/school/nanonote/nanonote/src/MainWindow.cpp
FN:36,_ZN19MainWindowExtensionC2EP10MainWindow
FNDA:0,_ZN19MainWindowExtensionC2EP10MainWindow
FN:41,_ZN19MainWindowExtension22aboutToShowContextMenuEP5QMenuRK6QPoint
FNDA:0,_ZN19MainWindowExtension22aboutToShowContextMenuEP5QMenuRK6QPoint
FN:53,_ZN10MainWindowC2EP7QWidget
FNDA:0,_ZN10MainWindowC2EP7QWidget
FN:79,_ZN10MainWindowD2Ev
FNDA:0,_ZN10MainWindowD2Ev
FN:79,_ZN10MainWindowD0Ev
FNDA:0,_ZN10MainWindowD0Ev
FN:85,_ZN10MainWindow13setupTextEditEv
FNDA:0,_ZN10MainWindow13setupTextEditEv
FN:98,_ZN10MainWindow18setupAutoSaveTimerEv
FNDA:0,_ZN10MainWindow18setupAutoSaveTimerEv
FN:104,_ZZN10MainWindow18setupAutoSaveTimerEvENKUlvE_clEv
FNDA:0,_ZZN10MainWindow18setupAutoSaveTimerEvENKUlvE_clEv
FN:109,_ZN10MainWindow12setupActionsEv
FNDA:0,_ZN10MainWindow12setupActionsEv
FN:122,_ZZN10MainWindow12setupActionsEvENKUlvE_clEv
FNDA:0,_ZZN10MainWindow12setupActionsEvENKUlvE_clEv
FN:123,_ZZN10MainWindow12setupActionsEvENKUlvE0_clEv
FNDA:0,_ZZN10MainWindow12setupActionsEvENKUlvE0_clEv
FN:157,_ZN10MainWindow9loadNotesEv
FNDA:0,_ZN10MainWindow9loadNotesEv
FN:196,_ZN10MainWindow9saveNotesEv
FNDA:0,_ZN10MainWindow9saveNotesEv
FN:215,_ZL9clampRectRK5QRectS1_
FNDA:0,_ZL9clampRectRK5QRectS1_
FN:233,_ZN10MainWindow12loadSettingsEv
FNDA:0,_ZN10MainWindow12loadSettingsEv
FN:252,_ZN10MainWindow12saveSettingsEv
FNDA:0,_ZN10MainWindow12saveSettingsEv
FN:258,_ZN10MainWindow14adjustFontSizeEi
FNDA:0,_ZN10MainWindow14adjustFontSizeEi
FN:266,_ZN10MainWindow13resetFontSizeEv
FNDA:0,_ZN10MainWindow13resetFontSizeEv
FN:275,_ZN10MainWindow14setAlwaysOnTopEb
FNDA:0,_ZN10MainWindow14setAlwaysOnTopEb
FN:285,_ZN10MainWindow18showSettingsDialogEv
FNDA:0,_ZN10MainWindow18showSettingsDialogEv
FN:293,_ZN10MainWindow16loadSearchWidgetEv
FNDA:0,_ZN10MainWindow16loadSearchWidgetEv
FN:307,_ZN10MainWindow13showSearchBarEv
FNDA:0,_ZN10MainWindow13showSearchBarEv
FN:316,_ZN10MainWindow13hideSearchBarEv
FNDA:0,_ZN10MainWindow13hideSearchBarEv
DA:36,0
DA:38,0
DA:39,0
DA:41,0
DA:43,0
DA:44,0
DA:45,0
DA:46,0
DA:47,0
DA:48,0
DA:49,0
DA:50,0
DA:53,0
DA:55,0
DA:56,0
DA:57,0
DA:58,0
DA:59,0
DA:60,0
DA:61,0
DA:62,0
DA:63,0
DA:64,0
DA:66,0
DA:68,0
DA:70,0
DA:72,0
DA:73,0
DA:74,0
DA:75,0
DA:76,0
DA:77,0
DA:79,0
DA:83,0
DA:79,0
DA:81,0
DA:82,0
DA:83,0
DA:85,0
DA:87,0
DA:88,0
DA:89,0
DA:91,0
DA:92,0
DA:93,0
DA:95,0
DA:96,0
DA:98,0
DA:100,0
DA:101,0
DA:102,0
DA:104,0
DA:105,0
DA:106,0
DA:107,0
DA:109,0
DA:111,0
DA:113,0
DA:114,0
DA:116,0
DA:117,0
DA:119,0
DA:120,0
DA:122,0
DA:123,0
DA:124,0
DA:126,0
DA:127,0
DA:128,0
DA:130,0
DA:131,0
DA:132,0
DA:133,0
DA:135,0
DA:136,0
DA:137,0
DA:140,0
DA:141,0
DA:142,0
DA:143,0
DA:145,0
DA:146,0
DA:147,0
DA:148,0
DA:151,0
DA:152,0
DA:153,0
DA:154,0
DA:155,0
DA:157,0
DA:159,0
DA:160,0
DA:161,0
DA:162,0
DA:186,0
DA:188,0
DA:189,0
DA:190,0
DA:192,0
DA:193,0
DA:196,0
DA:198,0
DA:199,0
DA:200,0
DA:201,0
DA:202,0
DA:204,0
DA:205,0
DA:206,0
DA:207,0
DA:209,0
DA:210,0
DA:211,0
DA:215,0
DA:217,0
DA:218,0
DA:219,0
DA:221,0
DA:222,0
DA:224,0
DA:225,0
DA:227,0
DA:228,0
DA:230,0
DA:233,0
DA:235,0
DA:237,0
DA:238,0
DA:239,0
DA:240,0
DA:241,0
DA:244,0
DA:246,0
DA:248,0
DA:250,0
DA:252,0
DA:254,0
DA:255,0
DA:256,0
DA:258,0
DA:260,0
DA:261,0
DA:262,0
DA:263,0
DA:264,0
DA:266,0
DA:268,0
DA:269,0
DA:270,0
DA:271,0
DA:272,0
DA:273,0
DA:275,0
DA:277,0
DA:278,0
DA:279,0
DA:280,0
DA:281,0
DA:282,0
DA:283,0
DA:285,0
DA:287,0
DA:288,0
DA:290,0
DA:291,0
DA:293,0
DA:295,0
DA:296,0
DA:297,0
DA:299,0
DA:300,0
DA:301,0
DA:302,0
DA:303,0
DA:305,0
DA:307,0
DA:309,0
DA:310,0
DA:311,0
DA:313,0
DA:316,0
DA:318,0
DA:319,0
DA:320,0
DA:322,0
end_of_record
SF:/home/oresky/school/nanonote/nanonote/src/TextEdit.h
end_of_record
SF:/usr/include/qt5/QtCore/qarraydata.h
FN:57,_ZN10QArrayData4dataEv
FNDA:0,_ZN10QArrayData4dataEv
FN:123,_ZN10QArrayData10sharedNullEv
FNDA:0,_ZN10QArrayData10sharedNullEv
FN:208,_ZN15QTypedArrayDataItE4dataEv
FNDA:0,_ZN15QTypedArrayDataItE4dataEv
FN:208,_ZN15QTypedArrayDataIcE4dataEv
FNDA:0,_ZN15QTypedArrayDataIcE4dataEv
FN:236,_ZN15QTypedArrayDataItE10deallocateEP10QArrayData
FNDA:0,_ZN15QTypedArrayDataItE10deallocateEP10QArrayData
FN:236,_ZN15QTypedArrayDataIcE10deallocateEP10QArrayData
FNDA:0,_ZN15QTypedArrayDataIcE10deallocateEP10QArrayData
FN:257,_ZN15QTypedArrayDataItE10sharedNullEv
FNDA:0,_ZN15QTypedArrayDataItE10sharedNullEv
DA:57,0
DA:61,0
DA:123,0
DA:208,0
DA:208,0
DA:236,0
DA:239,0
DA:240,0
DA:236,0
DA:239,0
DA:240,0
DA:257,0
DA:260,0
end_of_record
SF:/usr/include/qt5/QtCore/qobjectdefs_impl.h
FN:88,_ZN9QtPrivate16ApplyReturnValueIvEC2EPv
FNDA:0,_ZN9QtPrivate16ApplyReturnValueIvEC2EPv
FN:145,_ZN9QtPrivate11FunctorCallINS_11IndexesListIJEEENS_4ListIJEEEvPFvvEE4callERS6_PPv
FNDA:0,_ZN9QtPrivate11FunctorCallINS_11IndexesListIJEEENS_4ListIJEEEvPFvvEE4callERS6_PPv
FN:145,_ZN9QtPrivate11FunctorCallINS_11IndexesListIJEEENS_4ListIJEEEvZN10MainWindow12setupActionsEvEUlvE0_E4callERS6_PPv
FNDA:0,_ZN9QtPrivate11FunctorCallINS_11IndexesListIJEEENS_4ListIJEEEvZN10MainWindow12setupActionsEvEUlvE0_E4callERS6_PPv
FN:145,_ZN9QtPrivate11FunctorCallINS_11IndexesListIJEEENS_4ListIJEEEvZN10MainWindow12setupActionsEvEUlvE_E4callERS6_PPv
FNDA:0,_ZN9QtPrivate11FunctorCallINS_11IndexesListIJEEENS_4ListIJEEEvZN10MainWindow12setupActionsEvEUlvE_E4callERS6_PPv
FN:145,_ZN9QtPrivate11FunctorCallINS_11IndexesListIJEEENS_4ListIJEEEvZN10MainWindow18setupAutoSaveTimerEvEUlvE_E4callERS6_PPv
FNDA:0,_ZN9QtPrivate11FunctorCallINS_11IndexesListIJEEENS_4ListIJEEEvZN10MainWindow18setupAutoSaveTimerEvEUlvE_E4callERS6_PPv
FN:151,_ZN9QtPrivate11FunctorCallINS_11IndexesListIJLi0EEEENS_4ListIJRK5QFontEEEvM7QWidgetFvS6_EE4callESA_PS8_PPv
FNDA:0,_ZN9QtPrivate11FunctorCallINS_11IndexesListIJLi0EEEENS_4ListIJRK5QFontEEEvM7QWidgetFvS6_EE4callESA_PS8_PPv
FN:151,_ZN9QtPrivate11FunctorCallINS_11IndexesListIJLi0EEEENS_4ListIJbEEEvM10MainWindowFvbEE4callES7_PS5_PPv
FNDA:0,_ZN9QtPrivate11FunctorCallINS_11IndexesListIJLi0EEEENS_4ListIJbEEEvM10MainWindowFvbEE4callES7_PS5_PPv
FN:151,_ZN9QtPrivate11FunctorCallINS_11IndexesListIJEEENS_4ListIJEEEvM10MainWindowFvvEE4callES7_PS5_PPv
FNDA:0,_ZN9QtPrivate11FunctorCallINS_11IndexesListIJEEENS_4ListIJEEEvM10MainWindowFvvEE4callES7_PS5_PPv
FN:151,_ZN9QtPrivate11FunctorCallINS_11IndexesListIJLi0EEEENS_4ListIJiEEEvM10MainWindowFviEE4callES7_PS5_PPv
FNDA:0,_ZN9QtPrivate11FunctorCallINS_11IndexesListIJLi0EEEENS_4ListIJiEEEvM10MainWindowFviEE4callES7_PS5_PPv
FN:184,_ZN9QtPrivate15FunctionPointerIM10MainWindowFviEE4callINS_4ListIJiEEEvEEvS3_PS1_PPv
FNDA:0,_ZN9QtPrivate15FunctionPointerIM10MainWindowFviEE4callINS_4ListIJiEEEvEEvS3_PS1_PPv
FN:184,_ZN9QtPrivate15FunctionPointerIM10MainWindowFvvEE4callINS_4ListIJEEEvEEvS3_PS1_PPv
FNDA:0,_ZN9QtPrivate15FunctionPointerIM10MainWindowFvvEE4callINS_4ListIJEEEvEEvS3_PS1_PPv
FN:184,_ZN9QtPrivate15FunctionPointerIM7QWidgetFvRK5QFontEE4callINS_4ListIJS4_EEEvEEvS6_PS1_PPv
FNDA:0,_ZN9QtPrivate15FunctionPointerIM7QWidgetFvRK5QFontEE4callINS_4ListIJS4_EEEvEEvS6_PS1_PPv
FN:184,_ZN9QtPrivate15FunctionPointerIM10MainWindowFvbEE4callINS_4ListIJbEEEvEEvS3_PS1_PPv
FNDA:0,_ZN9QtPrivate15FunctionPointerIM10MainWindowFvbEE4callINS_4ListIJbEEEvEEvS3_PS1_PPv
FN:208,_ZN9QtPrivate15FunctionPointerIPFvvEE4callINS_4ListIJEEEvEEvS2_PvPS7_
FNDA:0,_ZN9QtPrivate15FunctionPointerIPFvvEE4callINS_4ListIJEEEvEEvS2_PvPS7_
FN:255,_ZN9QtPrivate7FunctorIZN10MainWindow12setupActionsEvEUlvE0_Li0EE4callINS_4ListIJEEEvEEvRS2_PvPS8_
FNDA:0,_ZN9QtPrivate7FunctorIZN10MainWindow12setupActionsEvEUlvE0_Li0EE4callINS_4ListIJEEEvEEvRS2_PvPS8_
FN:255,_ZN9QtPrivate7FunctorIZN10MainWindow12setupActionsEvEUlvE_Li0EE4callINS_4ListIJEEEvEEvRS2_PvPS8_
FNDA:0,_ZN9QtPrivate7FunctorIZN10MainWindow12setupActionsEvEUlvE_Li0EE4callINS_4ListIJEEEvEEvRS2_PvPS8_
FN:255,_ZN9QtPrivate7FunctorIZN10MainWindow18setupAutoSaveTimerEvEUlvE_Li0EE4callINS_4ListIJEEEvEEvRS2_PvPS8_
FNDA:0,_ZN9QtPrivate7FunctorIZN10MainWindow18setupAutoSaveTimerEvEUlvE_Li0EE4callINS_4ListIJEEEvEEvRS2_PvPS8_
FN:387,_ZN9QtPrivate15QSlotObjectBaseC2EPFviPS0_P7QObjectPPvPbE
FNDA:0,_ZN9QtPrivate15QSlotObjectBaseC2EPFviPS0_P7QObjectPPvPbE
FN:396,_ZN9QtPrivate15QSlotObjectBaseD2Ev
FNDA:0,_ZN9QtPrivate15QSlotObjectBaseD2Ev
FN:407,_ZN9QtPrivate11QSlotObjectIM10MainWindowFvbENS_4ListIJbEEEvE4implEiPNS_15QSlotObjectBaseEP7QObjectPPvPb
FNDA:0,_ZN9QtPrivate11QSlotObjectIM10MainWindowFvbENS_4ListIJbEEEvE4implEiPNS_15QSlotObjectBaseEP7QObjectPPvPb
FN:407,_ZN9QtPrivate11QSlotObjectIM10MainWindowFvvENS_4ListIJEEEvE4implEiPNS_15QSlotObjectBaseEP7QObjectPPvPb
FNDA:0,_ZN9QtPrivate11QSlotObjectIM10MainWindowFvvENS_4ListIJEEEvE4implEiPNS_15QSlotObjectBaseEP7QObjectPPvPb
FN:407,_ZN9QtPrivate11QSlotObjectIM10MainWindowFviENS_4ListIJiEEEvE4implEiPNS_15QSlotObjectBaseEP7QObjectPPvPb
FNDA:0,_ZN9QtPrivate11QSlotObjectIM10MainWindowFviENS_4ListIJiEEEvE4implEiPNS_15QSlotObjectBaseEP7QObjectPPvPb
FN:407,_ZN9QtPrivate11QSlotObjectIM7QWidgetFvRK5QFontENS_4ListIJS4_EEEvE4implEiPNS_15QSlotObjectBaseEP7QObjectPPvPb
FNDA:0,_ZN9QtPrivate11QSlotObjectIM7QWidgetFvRK5QFontENS_4ListIJS4_EEEvE4implEiPNS_15QSlotObjectBaseEP7QObjectPPvPb
FN:423,_ZN9QtPrivate11QSlotObjectIM7QWidgetFvRK5QFontENS_4ListIJS4_EEEvEC2ES6_
FNDA:0,_ZN9QtPrivate11QSlotObjectIM7QWidgetFvRK5QFontENS_4ListIJS4_EEEvEC2ES6_
FN:423,_ZN9QtPrivate11QSlotObjectIM10MainWindowFvbENS_4ListIJbEEEvEC2ES3_
FNDA:0,_ZN9QtPrivate11QSlotObjectIM10MainWindowFvbENS_4ListIJbEEEvEC2ES3_
FN:423,_ZN9QtPrivate11QSlotObjectIM10MainWindowFvvENS_4ListIJEEEvEC2ES3_
FNDA:0,_ZN9QtPrivate11QSlotObjectIM10MainWindowFvvENS_4ListIJEEEvEC2ES3_
FN:423,_ZN9QtPrivate11QSlotObjectIM10MainWindowFviENS_4ListIJiEEEvEC2ES3_
FNDA:0,_ZN9QtPrivate11QSlotObjectIM10MainWindowFviENS_4ListIJiEEEvEC2ES3_
FN:432,_ZN9QtPrivate18QFunctorSlotObjectIZN10MainWindow12setupActionsEvEUlvE0_Li0ENS_4ListIJEEEvE4implEiPNS_15QSlotObjectBaseEP7QObjectPPvPb
FNDA:0,_ZN9QtPrivate18QFunctorSlotObjectIZN10MainWindow12setupActionsEvEUlvE0_Li0ENS_4ListIJEEEvE4implEiPNS_15QSlotObjectBaseEP7QObjectPPvPb
FN:432,_ZN9QtPrivate18QFunctorSlotObjectIZN10MainWindow12setupActionsEvEUlvE_Li0ENS_4ListIJEEEvE4implEiPNS_15QSlotObjectBaseEP7QObjectPPvPb
FNDA:0,_ZN9QtPrivate18QFunctorSlotObjectIZN10MainWindow12setupActionsEvEUlvE_Li0ENS_4ListIJEEEvE4implEiPNS_15QSlotObjectBaseEP7QObjectPPvPb
FN:432,_ZN9QtPrivate18QFunctorSlotObjectIZN10MainWindow18setupAutoSaveTimerEvEUlvE_Li0ENS_4ListIJEEEvE4implEiPNS_15QSlotObjectBaseEP7QObjectPPvPb
FNDA:0,_ZN9QtPrivate18QFunctorSlotObjectIZN10MainWindow18setupAutoSaveTimerEvEUlvE_Li0ENS_4ListIJEEEvE4implEiPNS_15QSlotObjectBaseEP7QObjectPPvPb
FN:447,_ZN9QtPrivate18QFunctorSlotObjectIZN10MainWindow12setupActionsEvEUlvE0_Li0ENS_4ListIJEEEvEC2ES2_
FNDA:0,_ZN9QtPrivate18QFunctorSlotObjectIZN10MainWindow12setupActionsEvEUlvE0_Li0ENS_4ListIJEEEvEC2ES2_
FN:447,_ZN9QtPrivate18QFunctorSlotObjectIZN10MainWindow12setupActionsEvEUlvE_Li0ENS_4ListIJEEEvEC2ES2_
FNDA:0,_ZN9QtPrivate18QFunctorSlotObjectIZN10MainWindow12setupActionsEvEUlvE_Li0ENS_4ListIJEEEvEC2ES2_
FN:447,_ZN9QtPrivate18QFunctorSlotObjectIZN10MainWindow18setupAutoSaveTimerEvEUlvE_Li0ENS_4ListIJEEEvEC2ES2_
FNDA:0,_ZN9QtPrivate18QFunctorSlotObjectIZN10MainWindow18setupAutoSaveTimerEvEUlvE_Li0ENS_4ListIJEEEvEC2ES2_
DA:88,0
DA:145,0
DA:146,0
DA:147,0
DA:145,0
DA:146,0
DA:147,0
DA:145,0
DA:146,0
DA:147,0
DA:145,0
DA:146,0
DA:147,0
DA:151,0
DA:152,0
DA:153,0
DA:151,0
DA:152,0
DA:153,0
DA:151,0
DA:152,0
DA:153,0
DA:151,0
DA:152,0
DA:153,0
DA:184,0
DA:185,0
DA:186,0
DA:184,0
DA:185,0
DA:186,0
DA:184,0
DA:185,0
DA:186,0
DA:184,0
DA:185,0
DA:186,0
DA:208,0
DA:209,0
DA:210,0
DA:255,0
DA:256,0
DA:257,0
DA:255,0
DA:256,0
DA:257,0
DA:255,0
DA:256,0
DA:257,0
DA:387,0
DA:396,0
DA:407,0
DA:409,0
DA:410,0
DA:411,0
DA:412,0
DA:413,0
DA:414,0
DA:415,0
DA:416,0
DA:417,0
DA:418,0
DA:419,0
DA:421,0
DA:407,0
DA:409,0
DA:410,0
DA:411,0
DA:412,0
DA:413,0
DA:414,0
DA:415,0
DA:416,0
DA:417,0
DA:418,0
DA:419,0
DA:421,0
DA:407,0
DA:409,0
DA:410,0
DA:411,0
DA:412,0
DA:413,0
DA:414,0
DA:415,0
DA:416,0
DA:417,0
DA:418,0
DA:419,0
DA:421,0
DA:407,0
DA:409,0
DA:410,0
DA:411,0
DA:412,0
DA:413,0
DA:414,0
DA:415,0
DA:416,0
DA:417,0
DA:418,0
DA:419,0
DA:421,0
DA:423,0
DA:423,0
DA:423,0
DA:423,0
DA:432,0
DA:434,0
DA:435,0
DA:436,0
DA:437,0
DA:438,0
DA:439,0
DA:440,0
DA:441,0
DA:445,0
DA:432,0
DA:434,0
DA:435,0
DA:436,0
DA:437,0
DA:438,0
DA:439,0
DA:440,0
DA:441,0
DA:445,0
DA:432,0
DA:434,0
DA:435,0
DA:436,0
DA:437,0
DA:438,0
DA:439,0
DA:440,0
DA:441,0
DA:445,0
DA:447,0
DA:447,0
DA:447,0
end_of_record
SF:/usr/include/qt5/QtCore/qtimer.h
FN:181,_ZN6QTimer11setIntervalENSt6chrono8durationIlSt5ratioILl1ELl1000EEEE
FNDA:0,_ZN6QTimer11setIntervalENSt6chrono8durationIlSt5ratioILl1ELl1000EEEE
FN:245,_ZN6QTimer13setSingleShotEb
FNDA:0,_ZN6QTimer13setSingleShotEb
DA:181,0
DA:183,0
DA:184,0
DA:245,0
end_of_record
SF:/usr/include/qt5/QtCore/qdebug.h
FN:125,_ZN6QDebug10maybeSpaceEv
FNDA:0,_ZN6QDebug10maybeSpaceEv
FN:153,_ZN6QDebuglsEPKc
FNDA:0,_ZN6QDebuglsEPKc
FN:155,_ZN6QDebuglsERK7QString
FNDA:0,_ZN6QDebuglsERK7QString
DA:125,0
DA:153,0
DA:155,0
end_of_record
SF:/usr/include/qt5/QtCore/qpointer.h
FN:70,_ZN8QPointerI14SettingsDialogEC2Ev
FNDA:0,_ZN8QPointerI14SettingsDialogEC2Ev
FN:82,_ZN8QPointerI14SettingsDialogEaSEPS0_
FNDA:0,_ZN8QPointerI14SettingsDialogEaSEPS0_
FN:85,_ZNK8QPointerI14SettingsDialogE4dataEv
FNDA:0,_ZNK8QPointerI14SettingsDialogE4dataEv
FN:87,_ZNK8QPointerI14SettingsDialogEptEv
FNDA:0,_ZNK8QPointerI14SettingsDialogEptEv
FN:91,_ZNK8QPointerI14SettingsDialogEcvPS0_Ev
FNDA:0,_ZNK8QPointerI14SettingsDialogEcvPS0_Ev
DA:70,0
DA:82,0
DA:83,0
DA:85,0
DA:86,0
DA:87,0
DA:88,0
DA:91,0
DA:92,0
end_of_record
SF:/usr/include/qt5/QtCore/qglobal.h
FN:911,_Z5qSwapIP7QObjectEvRT_S3_
FNDA:0,_Z5qSwapIP7QObjectEvRT_S3_
FN:911,_Z5qSwapIPN15QtSharedPointer20ExternalRefCountDataEEvRT_S4_
FNDA:0,_Z5qSwapIPN15QtSharedPointer20ExternalRefCountDataEEvRT_S4_
DA:911,0
DA:915,0
DA:916,0
DA:911,0
DA:915,0
DA:916,0
end_of_record
TN:
SF:/usr/include/qt5/QtCore/qflags.h
FN:137,_ZNK6QFlagsIN2Qt16KeyboardModifierEEcvjEv
FNDA:0,_ZNK6QFlagsIN2Qt16KeyboardModifierEEcvjEv
DA:137,0
end_of_record
SF:/usr/include/qt5/QtCore/qpoint.h
FN:130,_ZNK6QPoint1yEv
FNDA:0,_ZNK6QPoint1yEv
DA:130,0
DA:131,0
end_of_record
SF:/home/oresky/school/nanonote/nanonote/src/WheelZoomExtension.cpp
FN:7,_ZN18WheelZoomExtensionC2EP8TextEdit
FNDA:0,_ZN18WheelZoomExtensionC2EP8TextEdit
FN:11,_ZN18WheelZoomExtension5wheelEP11QWheelEvent
FNDA:0,_ZN18WheelZoomExtension5wheelEP11QWheelEvent
DA:7,0
DA:8,0
DA:9,0
DA:11,0
DA:13,0
DA:14,0
DA:17,0
DA:18,0
DA:19,0
DA:22,0
DA:23,0
DA:24,0
DA:27,0
DA:28,0
DA:29,0
DA:30,0
DA:31,0
DA:33,0
DA:34,0
end_of_record
SF:/usr/include/qt5/QtGui/qevent.h
FN:73,_ZNK11QInputEvent9modifiersEv
FNDA:0,_ZNK11QInputEvent9modifiersEv
FN:204,_ZNK11QWheelEvent10angleDeltaEv
FNDA:0,_ZNK11QWheelEvent10angleDeltaEv
DA:73,0
DA:204,0
end_of_record
TN:
SF:/home/oresky/school/nanonote/nanonote/lcov_build/src/BaseSettings.cpp
FN:4,_ZN12BaseSettingsC2EP7QObject
FNDA:0,_ZN12BaseSettingsC2EP7QObject
FN:9,_ZNK12BaseSettings11alwaysOnTopEv
FNDA:0,_ZNK12BaseSettings11alwaysOnTopEv
FN:12,_ZN12BaseSettings14setAlwaysOnTopEb
FNDA:0,_ZN12BaseSettings14setAlwaysOnTopEb
FN:22,_ZNK12BaseSettings4fontEv
FNDA:0,_ZNK12BaseSettings4fontEv
FN:25,_ZN12BaseSettings7setFontERK5QFont
FNDA:0,_ZN12BaseSettings7setFontERK5QFont
FN:35,_ZNK12BaseSettings8geometryEv
FNDA:0,_ZNK12BaseSettings8geometryEv
FN:38,_ZN12BaseSettings11setGeometryERK5QRect
FNDA:0,_ZN12BaseSettings11setGeometryERK5QRect
DA:4,0
DA:5,0
DA:6,0
DA:9,0
DA:10,0
DA:12,0
DA:14,0
DA:16,0
DA:18,0
DA:19,0
DA:22,0
DA:23,0
DA:25,0
DA:27,0
DA:29,0
DA:31,0
DA:32,0
DA:35,0
DA:36,0
DA:38,0
DA:40,0
DA:42,0
DA:44,0
DA:45,0
end_of_record
SF:/usr/include/qt5/QtCore/qrect.h
FN:60,_ZN5QRectC2Ev
FNDA:0,_ZN5QRectC2Ev
FN:454,_ZeqRK5QRectS1_
FNDA:0,_ZeqRK5QRectS1_
DA:60,0
DA:454,0
DA:456,0
end_of_record
TN:
SF:/usr/include/qt5/QtCore/qrect.h
FN:60,_ZN5QRectC2Ev
FNDA:0,_ZN5QRectC2Ev
DA:60,0
end_of_record
SF:/usr/include/qt5/QtCore/qbasicatomic.h
FN:103,_ZNK19QBasicAtomicIntegerIiE4loadEv
FNDA:0,_ZNK19QBasicAtomicIntegerIiE4loadEv
FN:115,_ZN19QBasicAtomicIntegerIiE5derefEv
FNDA:0,_ZN19QBasicAtomicIntegerIiE5derefEv
FN:221,_ZN19QBasicAtomicIntegerIiEC2Ei
FNDA:0,_ZN19QBasicAtomicIntegerIiEC2Ei
DA:103,0
DA:115,0
DA:221,0
end_of_record
SF:/home/oresky/school/nanonote/nanonote/lcov_build/src/nanonotelib_autogen/include/ui_SettingsDialog.h
FN:47,_ZN17Ui_SettingsDialog7setupUiEP7QDialog
FNDA:0,_ZN17Ui_SettingsDialog7setupUiEP7QDialog
FN:139,_ZN17Ui_SettingsDialog13retranslateUiEP7QDialog
FNDA:0,_ZN17Ui_SettingsDialog13retranslateUiEP7QDialog
DA:47,0
DA:49,0
DA:50,0
DA:51,0
DA:52,0
DA:53,0
DA:54,0
DA:55,0
DA:56,0
DA:57,0
DA:58,0
DA:59,0
DA:60,0
DA:61,0
DA:63,0
DA:65,0
DA:66,0
DA:67,0
DA:68,0
DA:70,0
DA:72,0
DA:73,0
DA:75,0
DA:77,0
DA:78,0
DA:80,0
DA:82,0
DA:84,0
DA:87,0
DA:89,0
DA:90,0
DA:91,0
DA:92,0
DA:93,0
DA:94,0
DA:95,0
DA:96,0
DA:97,0
DA:98,0
DA:100,0
DA:102,0
DA:103,0
DA:104,0
DA:105,0
DA:106,0
DA:107,0
DA:108,0
DA:109,0
DA:110,0
DA:111,0
DA:112,0
DA:113,0
DA:115,0
DA:117,0
DA:119,0
DA:121,0
DA:122,0
DA:123,0
DA:124,0
DA:126,0
DA:129,0
DA:130,0
DA:131,0
DA:133,0
DA:136,0
DA:137,0
DA:139,0
DA:141,0
DA:142,0
DA:143,0
DA:144,0
DA:145,0
DA:146,0
DA:147,0
DA:148,0
end_of_record
SF:/usr/include/qt5/QtCore/qrefcount.h
FN:65,_ZN9QtPrivate8RefCount5derefEv
FNDA:0,_ZN9QtPrivate8RefCount5derefEv
DA:65,0
DA:66,0
DA:68,0
DA:69,0
DA:71,0
DA:72,0
DA:73,0
end_of_record
SF:/usr/include/c++/9/bits/atomic_base.h
FN:99,_ZStanSt12memory_orderSt23__memory_order_modifier
FNDA:0,_ZStanSt12memory_orderSt23__memory_order_modifier
FN:279,_ZNSt13__atomic_baseIiEC2Ei
FNDA:0,_ZNSt13__atomic_baseIiEC2Ei
FN:326,_ZNSt13__atomic_baseIiEmmEv
FNDA:0,_ZNSt13__atomic_baseIiEmmEv
DA:99,0
DA:101,0
DA:279,0
DA:326,0
DA:327,0
DA:415,0
DA:419,0
end_of_record
SF:/usr/include/c++/9/atomic
FN:759,_ZNSt6atomicIiEC2Ei
FNDA:0,_ZNSt6atomicIiEC2Ei
DA:759,0
end_of_record
SF:/usr/include/qt5/QtCore/qstring.h
FN:570,_ZN7QString8fromUtf8EPKci
FNDA:0,_ZN7QString8fromUtf8EPKci
FN:699,_ZN7QStringC2EPKc
FNDA:0,_ZN7QStringC2EPKc
FN:941,_ZNK7QString7isEmptyEv
FNDA:0,_ZNK7QString7isEmptyEv
FN:989,_ZNK7QString3argERKS_S1_S1_
FNDA:0,_ZNK7QString3argERKS_S1_S1_
FN:1134,_ZN7QStringC2Ev
FNDA:0,_ZN7QStringC2Ev
FN:1135,_ZN7QStringD2Ev
FNDA:0,_ZN7QStringD2Ev
DA:570,0
DA:572,0
DA:699,0
DA:700,0
DA:701,0
DA:941,0
DA:942,0
DA:989,0
DA:990,0
DA:1134,0
DA:1135,0
end_of_record
SF:/usr/include/qt5/QtCore/qatomic.h
FN:60,_ZN14QAtomicIntegerIiEC2Ei
FNDA:0,_ZN14QAtomicIntegerIiEC2Ei
FN:162,_ZN10QAtomicIntC2Ei
FNDA:0,_ZN10QAtomicIntC2Ei
DA:60,0
DA:162,0
end_of_record
SF:/usr/include/qt5/QtCore/qalgorithms.h
FN:747,_Z22qCountTrailingZeroBitsj
FNDA:0,_Z22qCountTrailingZeroBitsj
DA:556,0
DA:747,0
DA:750,0
end_of_record
SF:/usr/include/qt5/QtCore/qcoreapplication.h
FN:116,_ZN16QCoreApplication8instanceEv
FNDA:0,_ZN16QCoreApplication8instanceEv
DA:116,0
end_of_record
SF:/usr/include/qt5/QtWidgets/qsizepolicy.h
FN:116,_ZN11QSizePolicyC2ENS_6PolicyES0_NS_11ControlTypeE
FNDA:0,_ZN11QSizePolicyC2ENS_6PolicyES0_NS_11ControlTypeE
FN:141,_ZN11QSizePolicy17setHeightForWidthEb
FNDA:0,_ZN11QSizePolicy17setHeightForWidthEb
FN:142,_ZNK11QSizePolicy17hasHeightForWidthEv
FNDA:0,_ZNK11QSizePolicy17hasHeightForWidthEv
FN:155,_ZN11QSizePolicy20setHorizontalStretchEi
FNDA:0,_ZN11QSizePolicy20setHorizontalStretchEi
FN:156,_ZN11QSizePolicy18setVerticalStretchEi
FNDA:0,_ZN11QSizePolicy18setVerticalStretchEi
FN:180,_ZN11QSizePolicy23toControlTypeFieldValueENS_11ControlTypeE
FNDA:0,_ZN11QSizePolicy23toControlTypeFieldValueENS_11ControlTypeE
DA:116,0
DA:117,0
DA:118,0
DA:119,0
DA:141,0
DA:142,0
DA:155,0
DA:156,0
DA:180,0
DA:196,0
end_of_record
SF:/home/oresky/school/nanonote/nanonote/src/SettingsDialog.h
FN:14,_ZN14SettingsDialog2trEPKcS1_i
FNDA:0,_ZN14SettingsDialog2trEPKcS1_i
DA:14,0
end_of_record
SF:/usr/include/qt5/QtWidgets/qwidget.h
FN:838,_ZN7QWidget6resizeEii
FNDA:0,_ZN7QWidget6resizeEii
DA:838,0
DA:839,0
end_of_record
SF:/usr/include/qt5/QtCore/qatomic_cxx11.h
FN:225,_ZN10QAtomicOpsIiE4loadIiEET_RKSt6atomicIS2_E
FNDA:0,_ZN10QAtomicOpsIiE4loadIiEET_RKSt6atomicIS2_E
FN:269,_ZN10QAtomicOpsIiE5derefIiEEbRSt6atomicIT_E
FNDA:0,_ZN10QAtomicOpsIiE5derefIiEEbRSt6atomicIT_E
DA:225,0
DA:227,0
DA:269,0
DA:271,0
end_of_record
SF:/usr/include/qt5/QtWidgets/qlayoutitem.h
FN:89,_ZN11QLayoutItemC2E6QFlagsIN2Qt13AlignmentFlagEE
FNDA:0,_ZN11QLayoutItemC2E6QFlagsIN2Qt13AlignmentFlagEE
FN:95,_ZN11QSpacerItemC2EiiN11QSizePolicy6PolicyES1_
FNDA:0,_ZN11QSpacerItemC2EiiN11QSizePolicy6PolicyES1_
DA:89,0
DA:90,0
DA:95,0
DA:98,0
end_of_record
SF:/usr/include/qt5/QtCore/qchar.h
FN:53,_ZN11QLatin1CharC2Ec
FNDA:0,_ZN11QLatin1CharC2Ec
FN:55,_ZNK11QLatin1Char7unicodeEv
FNDA:0,_ZNK11QLatin1Char7unicodeEv
FN:88,_ZN5QCharC2E11QLatin1Char
FNDA:0,_ZN5QCharC2E11QLatin1Char
DA:53,0
DA:55,0
DA:88,0
end_of_record
SF:/home/oresky/school/nanonote/nanonote/src/SettingsDialog.cpp
FN:10,_ZN14SettingsDialogC2EP8SettingsP7QWidget
FNDA:0,_ZN14SettingsDialogC2EP8SettingsP7QWidget
FN:25,_ZZN14SettingsDialogC4EP8SettingsP7QWidgetENKUliE_clEi
FNDA:0,_ZZN14SettingsDialogC4EP8SettingsP7QWidgetENKUliE_clEi
FN:32,_ZN14SettingsDialogD0Ev
FNDA:0,_ZN14SettingsDialogD0Ev
FN:32,_ZN14SettingsDialogD2Ev
FNDA:0,_ZN14SettingsDialogD2Ev
FN:37,_ZN14SettingsDialog13setupAboutTabEv
FNDA:0,_ZN14SettingsDialog13setupAboutTabEv
FN:52,_ZN14SettingsDialog22updateFontFromSettingsEv
FNDA:0,_ZN14SettingsDialog22updateFontFromSettingsEv
DA:10,0
DA:12,0
DA:13,0
DA:15,0
DA:16,0
DA:17,0
DA:19,0
DA:21,0
DA:23,0
DA:24,0
DA:25,0
DA:26,0
DA:27,0
DA:28,0
DA:29,0
DA:30,0
DA:32,0
DA:35,0
DA:32,0
DA:34,0
DA:35,0
DA:37,0
DA:39,0
DA:40,0
DA:41,0
DA:47,0
DA:49,0
DA:50,0
DA:52,0
DA:54,0
DA:55,0
DA:56,0
end_of_record
SF:/usr/include/qt5/QtCore/qflags.h
FN:68,_ZN5QFlagC2Ej
FNDA:0,_ZN5QFlagC2Ej
FN:71,_ZNK5QFlagcvjEv
FNDA:0,_ZNK5QFlagcvjEv
FN:120,_ZN6QFlagsIN16QDialogButtonBox14StandardButtonEEC2ES1_
FNDA:0,_ZN6QFlagsIN16QDialogButtonBox14StandardButtonEEC2ES1_
FN:120,_ZN6QFlagsIN2Qt19TextInteractionFlagEEC2ES1_
FNDA:0,_ZN6QFlagsIN2Qt19TextInteractionFlagEEC2ES1_
FN:120,_ZN6QFlagsIN2Qt19ImageConversionFlagEEC2ES1_
FNDA:0,_ZN6QFlagsIN2Qt19ImageConversionFlagEEC2ES1_
FN:120,_ZN6QFlagsIN2Qt13AlignmentFlagEEC2ES1_
FNDA:0,_ZN6QFlagsIN2Qt13AlignmentFlagEEC2ES1_
FN:121,_ZN6QFlagsIN2Qt13AlignmentFlagEEC2EMNS2_7PrivateEi
FNDA:0,_ZN6QFlagsIN2Qt13AlignmentFlagEEC2EMNS2_7PrivateEi
FN:121,_ZN6QFlagsIN2Qt10WindowTypeEEC2EMNS2_7PrivateEi
FNDA:0,_ZN6QFlagsIN2Qt10WindowTypeEEC2EMNS2_7PrivateEi
FN:122,_ZN6QFlagsIN2Qt13AlignmentFlagEEC2E5QFlag
FNDA:0,_ZN6QFlagsIN2Qt13AlignmentFlagEEC2E5QFlag
FN:140,_ZNK6QFlagsIN2Qt13AlignmentFlagEEorES1_
FNDA:0,_ZNK6QFlagsIN2Qt13AlignmentFlagEEorES1_
DA:68,0
DA:71,0
DA:120,0
DA:120,0
DA:120,0
DA:120,0
DA:121,0
DA:121,0
DA:122,0
DA:140,0
end_of_record
SF:/usr/include/qt5/QtCore/qnamespace.h
FN:231,_ZN2QtorENS_13AlignmentFlagES0_
FNDA:0,_ZN2QtorENS_13AlignmentFlagES0_
DA:231,0
end_of_record
SF:/usr/include/c++/9/bits/move.h
FN:99,_ZSt4moveIRZN14SettingsDialogC4EP8SettingsP7QWidgetEUliE_EONSt16remove_referenceIT_E4typeEOS8_
FNDA:0,_ZSt4moveIRZN14SettingsDialogC4EP8SettingsP7QWidgetEUliE_EONSt16remove_referenceIT_E4typeEOS8_
DA:99,0
DA:100,0
end_of_record
SF:/usr/include/qt5/QtCore/qsize.h
FN:119,_ZN5QSizeC2Eii
FNDA:0,_ZN5QSizeC2Eii
DA:119,0
end_of_record
SF:/usr/include/qt5/QtCore/qglobal.h
FN:594,_Z4qMinIiERKT_S2_S2_
FNDA:0,_Z4qMinIiERKT_S2_S2_
FN:596,_Z4qMaxIiERKT_S2_S2_
FNDA:0,_Z4qMaxIiERKT_S2_S2_
FN:598,_Z6qBoundIiERKT_S2_S2_S2_
FNDA:0,_Z6qBoundIiERKT_S2_S2_S2_
DA:594,0
DA:596,0
DA:598,0
DA:599,0
end_of_record
SF:/usr/include/qt5/QtCore/qobject_impl.h
FN:75,_ZN9QtPrivate15ConnectionTypesINS_4ListIJiEEELb1EE5typesEv
FNDA:0,_ZN9QtPrivate15ConnectionTypesINS_4ListIJiEEELb1EE5typesEv
FN:75,_ZN9QtPrivate15ConnectionTypesINS_4ListIJRK5QFontEEELb1EE5typesEv
FNDA:0,_ZN9QtPrivate15ConnectionTypesINS_4ListIJRK5QFontEEELb1EE5typesEv
DA:75,0
DA:75,0
end_of_record
SF:/usr/include/qt5/QtCore/qobject.h
FN:228,_ZN7QObject7connectIM13QFontComboBoxFvRK5QFontEM12BaseSettingsFvS4_EEEN11QMetaObject10ConnectionEPKN9QtPrivate15FunctionPointerIT_E6ObjectESE_PKNSD_IT0_E6ObjectESJ_N2Qt14ConnectionTypeE
FNDA:0,_ZN7QObject7connectIM13QFontComboBoxFvRK5QFontEM12BaseSettingsFvS4_EEEN11QMetaObject10ConnectionEPKN9QtPrivate15FunctionPointerIT_E6ObjectESE_PKNSD_IT0_E6ObjectESJ_N2Qt14ConnectionTypeE
FN:228,_ZN7QObject7connectIM12BaseSettingsFvRK5QFontEM14SettingsDialogFvvEEEN11QMetaObject10ConnectionEPKN9QtPrivate15FunctionPointerIT_E6ObjectESE_PKNSD_IT0_E6ObjectESJ_N2Qt14ConnectionTypeE
FNDA:0,_ZN7QObject7connectIM12BaseSettingsFvRK5QFontEM14SettingsDialogFvvEEEN11QMetaObject10ConnectionEPKN9QtPrivate15FunctionPointerIT_E6ObjectESE_PKNSD_IT0_E6ObjectESJ_N2Qt14ConnectionTypeE
FN:308,_ZN7QObject7connectIM8QSpinBoxFviEZN14SettingsDialogC4EP8SettingsP7QWidgetEUliE_EENSt9enable_ifIXeqsrN9QtPrivate15FunctionPointerIT0_EE13ArgumentCountLin1EEN11QMetaObject10ConnectionEE4typeEPKNSC_IT_E6ObjectESJ_PKS_SD_N2Qt14ConnectionTypeE
FNDA:0,_ZN7QObject7connectIM8QSpinBoxFviEZN14SettingsDialogC4EP8SettingsP7QWidgetEUliE_EENSt9enable_ifIXeqsrN9QtPrivate15FunctionPointerIT0_EE13ArgumentCountLin1EEN11QMetaObject10ConnectionEE4typeEPKNSC_IT_E6ObjectESJ_PKS_SD_N2Qt14ConnectionTypeE
DA:228,0
DA:246,0
DA:247,0
DA:248,0
DA:252,0
DA:254,0
DA:228,0
DA:246,0
DA:247,0
DA:248,0
DA:252,0
DA:254,0
DA:308,0
DA:312,0
DA:316,0
DA:325,0
DA:326,0
DA:327,0
DA:330,0
DA:332,0
DA:333,0
end_of_record
SF:/usr/include/qt5/QtCore/qobjectdefs_impl.h
FN:88,_ZN9QtPrivate16ApplyReturnValueIvEC2EPv
FNDA:0,_ZN9QtPrivate16ApplyReturnValueIvEC2EPv
FN:145,_ZN9QtPrivate11FunctorCallINS_11IndexesListIJLi0EEEENS_4ListIJiEEEvZN14SettingsDialogC4EP8SettingsP7QWidgetEUliE_E4callERSA_PPv
FNDA:0,_ZN9QtPrivate11FunctorCallINS_11IndexesListIJLi0EEEENS_4ListIJiEEEvZN14SettingsDialogC4EP8SettingsP7QWidgetEUliE_E4callERSA_PPv
FN:151,_ZN9QtPrivate11FunctorCallINS_11IndexesListIJLi0EEEENS_4ListIJRK5QFontEEEvM12BaseSettingsFvS6_EE4callESA_PS8_PPv
FNDA:0,_ZN9QtPrivate11FunctorCallINS_11IndexesListIJLi0EEEENS_4ListIJRK5QFontEEEvM12BaseSettingsFvS6_EE4callESA_PS8_PPv
FN:151,_ZN9QtPrivate11FunctorCallINS_11IndexesListIJEEENS_4ListIJEEEvM14SettingsDialogFvvEE4callES7_PS5_PPv
FNDA:0,_ZN9QtPrivate11FunctorCallINS_11IndexesListIJEEENS_4ListIJEEEvM14SettingsDialogFvvEE4callES7_PS5_PPv
FN:184,_ZN9QtPrivate15FunctionPointerIM12BaseSettingsFvRK5QFontEE4callINS_4ListIJS4_EEEvEEvS6_PS1_PPv
FNDA:0,_ZN9QtPrivate15FunctionPointerIM12BaseSettingsFvRK5QFontEE4callINS_4ListIJS4_EEEvEEvS6_PS1_PPv
FN:184,_ZN9QtPrivate15FunctionPointerIM14SettingsDialogFvvEE4callINS_4ListIJEEEvEEvS3_PS1_PPv
FNDA:0,_ZN9QtPrivate15FunctionPointerIM14SettingsDialogFvvEE4callINS_4ListIJEEEvEEvS3_PS1_PPv
FN:255,_ZN9QtPrivate7FunctorIZN14SettingsDialogC4EP8SettingsP7QWidgetEUliE_Li1EE4callINS_4ListIJiEEEvEEvRS6_PvPSC_
FNDA:0,_ZN9QtPrivate7FunctorIZN14SettingsDialogC4EP8SettingsP7QWidgetEUliE_Li1EE4callINS_4ListIJiEEEvEEvRS6_PvPSC_
FN:387,_ZN9QtPrivate15QSlotObjectBaseC2EPFviPS0_P7QObjectPPvPbE
FNDA:0,_ZN9QtPrivate15QSlotObjectBaseC2EPFviPS0_P7QObjectPPvPbE
FN:396,_ZN9QtPrivate15QSlotObjectBaseD2Ev
FNDA:0,_ZN9QtPrivate15QSlotObjectBaseD2Ev
FN:407,_ZN9QtPrivate11QSlotObjectIM12BaseSettingsFvRK5QFontENS_4ListIJS4_EEEvE4implEiPNS_15QSlotObjectBaseEP7QObjectPPvPb
FNDA:0,_ZN9QtPrivate11QSlotObjectIM12BaseSettingsFvRK5QFontENS_4ListIJS4_EEEvE4implEiPNS_15QSlotObjectBaseEP7QObjectPPvPb
FN:407,_ZN9QtPrivate11QSlotObjectIM14SettingsDialogFvvENS_4ListIJEEEvE4implEiPNS_15QSlotObjectBaseEP7QObjectPPvPb
FNDA:0,_ZN9QtPrivate11QSlotObjectIM14SettingsDialogFvvENS_4ListIJEEEvE4implEiPNS_15QSlotObjectBaseEP7QObjectPPvPb
FN:423,_ZN9QtPrivate11QSlotObjectIM12BaseSettingsFvRK5QFontENS_4ListIJS4_EEEvEC2ES6_
FNDA:0,_ZN9QtPrivate11QSlotObjectIM12BaseSettingsFvRK5QFontENS_4ListIJS4_EEEvEC2ES6_
FN:423,_ZN9QtPrivate11QSlotObjectIM14SettingsDialogFvvENS_4ListIJEEEvEC2ES3_
FNDA:0,_ZN9QtPrivate11QSlotObjectIM14SettingsDialogFvvENS_4ListIJEEEvEC2ES3_
FN:432,_ZN9QtPrivate18QFunctorSlotObjectIZN14SettingsDialogC4EP8SettingsP7QWidgetEUliE_Li1ENS_4ListIJiEEEvE4implEiPNS_15QSlotObjectBaseEP7QObjectPPvPb
FNDA:0,_ZN9QtPrivate18QFunctorSlotObjectIZN14SettingsDialogC4EP8SettingsP7QWidgetEUliE_Li1ENS_4ListIJiEEEvE4implEiPNS_15QSlotObjectBaseEP7QObjectPPvPb
FN:447,_ZN9QtPrivate18QFunctorSlotObjectIZN14SettingsDialogC4EP8SettingsP7QWidgetEUliE_Li1ENS_4ListIJiEEEvEC2ES6_
FNDA:0,_ZN9QtPrivate18QFunctorSlotObjectIZN14SettingsDialogC4EP8SettingsP7QWidgetEUliE_Li1ENS_4ListIJiEEEvEC2ES6_
DA:88,0
DA:145,0
DA:146,0
DA:147,0
DA:151,0
DA:152,0
DA:153,0
DA:151,0
DA:152,0
DA:153,0
DA:184,0
DA:185,0
DA:186,0
DA:184,0
DA:185,0
DA:186,0
DA:255,0
DA:256,0
DA:257,0
DA:387,0
DA:396,0
DA:407,0
DA:409,0
DA:410,0
DA:411,0
DA:412,0
DA:413,0
DA:414,0
DA:415,0
DA:416,0
DA:417,0
DA:418,0
DA:419,0
DA:421,0
DA:407,0
DA:409,0
DA:410,0
DA:411,0
DA:412,0
DA:413,0
DA:414,0
DA:415,0
DA:416,0
DA:417,0
DA:418,0
DA:419,0
DA:421,0
DA:423,0
DA:423,0
DA:432,0
DA:434,0
DA:435,0
DA:436,0
DA:437,0
DA:438,0
DA:439,0
DA:440,0
DA:441,0
DA:445,0
DA:447,0
end_of_record
SF:/usr/include/qt5/QtCore/qarraydata.h
FN:123,_ZN10QArrayData10sharedNullEv
FNDA:0,_ZN10QArrayData10sharedNullEv
FN:236,_ZN15QTypedArrayDataItE10deallocateEP10QArrayData
FNDA:0,_ZN15QTypedArrayDataItE10deallocateEP10QArrayData
FN:257,_ZN15QTypedArrayDataItE10sharedNullEv
FNDA:0,_ZN15QTypedArrayDataItE10sharedNullEv
DA:123,0
DA:236,0
DA:239,0
DA:240,0
DA:257,0
DA:260,0
end_of_record
TN:
SF:/usr/include/c++/9/bits/atomic_base.h
FN:99,_ZStanSt12memory_orderSt23__memory_order_modifier
FNDA:0,_ZStanSt12memory_orderSt23__memory_order_modifier
FN:318,_ZNSt13__atomic_baseIiEppEv
FNDA:0,_ZNSt13__atomic_baseIiEppEv
FN:326,_ZNSt13__atomic_baseIiEmmEv
FNDA:0,_ZNSt13__atomic_baseIiEmmEv
DA:99,0
DA:101,0
DA:318,0
DA:319,0
DA:326,0
DA:327,0
DA:415,0
DA:419,0
end_of_record
SF:/usr/include/qt5/QtCore/qstring.h
FN:235,_ZN7QStringaSEOS_
FNDA:0,_ZN7QStringaSEOS_
FN:239,_ZNK7QString4sizeEv
FNDA:0,_ZNK7QString4sizeEv
FN:547,_ZNO7QString8toLatin1Ev
FNDA:0,_ZNO7QString8toLatin1Ev
FN:555,_ZNO7QString11toLocal8BitEv
FNDA:0,_ZNO7QString11toLocal8BitEv
FN:565,_ZN7QString10fromLatin1EPKci
FNDA:0,_ZN7QString10fromLatin1EPKci
FN:699,_ZN7QStringC2EPKc
FNDA:106,_ZN7QStringC2EPKc
FN:729,_ZN7QStringpLEc
FNDA:84,_ZN7QStringpLEc
FN:822,_ZNK7QString6isNullEv
FNDA:0,_ZNK7QString6isNullEv
FN:829,_ZN7QStringC2E14QStringDataPtr
FNDA:0,_ZN7QStringC2E14QStringDataPtr
FN:949,_ZNK7QString9constDataEv
FNDA:0,_ZNK7QString9constDataEv
FN:957,_ZN7QStringC2ERKS_
FNDA:0,_ZN7QStringC2ERKS_
FN:975,_ZNK7QString3argEiii5QChar
FNDA:0,_ZNK7QString3argEiii5QChar
FN:1134,_ZN7QStringC2Ev
FNDA:0,_ZN7QStringC2Ev
FN:1135,_ZN7QStringD2Ev
FNDA:0,_ZN7QStringD2Ev
FN:1170,_ZNK7QString5beginEv
FNDA:12,_ZNK7QString5beginEv
FN:1178,_ZNK7QString3endEv
FNDA:12,_ZNK7QString3endEv
FN:1872,_ZN9QtPrivate8asStringEO7QString
FNDA:0,_ZN9QtPrivate8asStringEO7QString
DA:235,0
DA:236,0
DA:239,0
DA:547,0
DA:548,0
DA:555,0
DA:556,0
DA:565,0
DA:567,0
DA:568,0
DA:699,106
DA:700,106
DA:701,106
DA:729,84
DA:730,84
DA:822,0
DA:829,0
DA:949,0
DA:950,0
DA:957,0
DA:958,0
DA:975,0
DA:976,0
DA:1134,0
DA:1135,0
DA:1170,12
DA:1171,12
DA:1178,12
DA:1179,12
DA:1872,0
end_of_record
SF:/usr/include/qt5/QtCore/qcoreapplication.h
FN:116,_ZN16QCoreApplication8instanceEv
FNDA:0,_ZN16QCoreApplication8instanceEv
DA:116,0
end_of_record
SF:/usr/include/c++/9/bits/exception.h
FN:63,_ZNSt9exceptionC2Ev
FNDA:0,_ZNSt9exceptionC2Ev
DA:63,0
end_of_record
SF:/usr/include/qt5/QtCore/qcoreevent.h
DA:334,0
end_of_record
SF:/usr/include/qt5/QtCore/qrect.h
FN:184,_ZN5QRectC2Eiiii
FNDA:0,_ZN5QRectC2Eiiii
FN:262,_ZNK5QRect6centerEv
FNDA:0,_ZNK5QRect6centerEv
FN:265,_ZNK5QRect5widthEv
FNDA:0,_ZNK5QRect5widthEv
FN:268,_ZNK5QRect6heightEv
FNDA:0,_ZNK5QRect6heightEv
FN:271,_ZNK5QRect4sizeEv
FNDA:0,_ZNK5QRect4sizeEv
DA:184,0
DA:185,0
DA:262,0
DA:263,0
DA:265,0
DA:266,0
DA:268,0
DA:269,0
DA:271,0
DA:272,0
end_of_record
SF:/usr/include/c++/9/bits/char_traits.h
FN:100,_ZN9__gnu_cxx11char_traitsIcE2eqERKcS3_
FNDA:0,_ZN9__gnu_cxx11char_traitsIcE2eqERKcS3_
FN:161,_ZN9__gnu_cxx11char_traitsIcE6lengthEPKc
FNDA:0,_ZN9__gnu_cxx11char_traitsIcE6lengthEPKc
FN:329,_ZNSt11char_traitsIcE6lengthEPKc
FNDA:0,_ZNSt11char_traitsIcE6lengthEPKc
DA:100,0
DA:101,0
DA:161,0
DA:164,0
DA:165,0
DA:166,0
DA:167,0
DA:236,0
DA:329,0
DA:332,0
DA:333,0
DA:335,0
end_of_record
SF:/usr/include/qt5/QtCore/qbasicatomic.h
FN:103,_ZNK19QBasicAtomicIntegerIiE4loadEv
FNDA:0,_ZNK19QBasicAtomicIntegerIiE4loadEv
FN:114,_ZN19QBasicAtomicIntegerIiE3refEv
FNDA:0,_ZN19QBasicAtomicIntegerIiE3refEv
FN:115,_ZN19QBasicAtomicIntegerIiE5derefEv
FNDA:0,_ZN19QBasicAtomicIntegerIiE5derefEv
DA:103,0
DA:114,0
DA:115,0
end_of_record
SF:/usr/include/qt5/QtWidgets/qplaintextedit.h
FN:153,_ZNK14QPlainTextEdit11toPlainTextEv
FNDA:14,_ZNK14QPlainTextEdit11toPlainTextEv
DA:153,14
DA:154,14
end_of_record
SF:/usr/include/c++/9/optional
FN:84,_ZNSt19bad_optional_accessC2Ev
FNDA:0,_ZNSt19bad_optional_accessC2Ev
FN:86,_ZNKSt19bad_optional_access4whatEv
FNDA:0,_ZNKSt19bad_optional_access4whatEv
FN:89,_ZNSt19bad_optional_accessD0Ev
FNDA:0,_ZNSt19bad_optional_accessD0Ev
FN:89,_ZNSt19bad_optional_accessD2Ev
FNDA:0,_ZNSt19bad_optional_accessD2Ev
FN:98,_ZSt27__throw_bad_optional_accessv
FNDA:0,_ZSt27__throw_bad_optional_accessv
FN:113,_ZNSt22_Optional_payload_baseIiEC2IJRiEEESt10in_place_tDpOT_
FNDA:18,_ZNSt22_Optional_payload_baseIiEC2IJRiEEESt10in_place_tDpOT_
FN:201,_ZNSt22_Optional_payload_baseIiE8_StorageIiLb1EEC2IJRiEEESt10in_place_tDpOT_
FNDA:18,_ZNSt22_Optional_payload_baseIiE8_StorageIiLb1EEC2IJRiEEESt10in_place_tDpOT_
FN:265,_ZNSt22_Optional_payload_baseIiE6_M_getEv
FNDA:18,_ZNSt22_Optional_payload_baseIiE6_M_getEv
FN:431,_ZNKSt19_Optional_base_implIiSt14_Optional_baseIiLb1ELb1EEE13_M_is_engagedEv
FNDA:30,_ZNKSt19_Optional_base_implIiSt14_Optional_baseIiLb1ELb1EEE13_M_is_engagedEv
FN:436,_ZNSt19_Optional_base_implIiSt14_Optional_baseIiLb1ELb1EEE6_M_getEv
FNDA:18,_ZNSt19_Optional_base_implIiSt14_Optional_baseIiLb1ELb1EEE6_M_getEv
FN:605,_ZNSt14_Optional_baseIiLb1ELb1EEC2IJRiELb0EEESt10in_place_tDpOT_
FNDA:18,_ZNSt14_Optional_baseIiLb1ELb1EEC2IJRiELb0EEESt10in_place_tDpOT_
FN:698,_ZNSt8optionalIiEC2IRiLb1EEEOT_
FNDA:18,_ZNSt8optionalIiEC2IRiLb1EEEOT_
FN:915,_ZNKSt8optionalIiE9has_valueEv
FNDA:12,_ZNKSt8optionalIiE9has_valueEv
FN:927,_ZNRSt8optionalIiE5valueEv
FNDA:18,_ZNRSt8optionalIiE5valueEv
DA:84,0
DA:86,0
DA:87,0
DA:89,0
DA:89,0
DA:98,0
DA:99,0
DA:113,18
DA:115,18
DA:116,18
DA:201,18
DA:202,18
DA:203,18
DA:265,18
DA:266,18
DA:431,30
DA:432,30
DA:436,18
DA:439,18
DA:605,18
DA:607,18
DA:698,18
DA:699,18
DA:915,12
DA:916,12
DA:927,18
DA:930,18
DA:931,18
end_of_record
SF:/usr/include/qt5/QtCore/qrefcount.h
FN:54,_ZN9QtPrivate8RefCount3refEv
FNDA:0,_ZN9QtPrivate8RefCount3refEv
FN:65,_ZN9QtPrivate8RefCount5derefEv
FNDA:0,_ZN9QtPrivate8RefCount5derefEv
FN:99,_ZNK9QtPrivate8RefCount8isSharedEv
FNDA:0,_ZNK9QtPrivate8RefCount8isSharedEv
DA:54,0
DA:55,0
DA:57,0
DA:58,0
DA:60,0
DA:61,0
DA:62,0
DA:65,0
DA:66,0
DA:68,0
DA:69,0
DA:71,0
DA:72,0
DA:73,0
DA:99,0
DA:101,0
DA:102,0
end_of_record
SF:/usr/include/qt5/QtCore/qflags.h
FN:68,_ZN5QFlagC2Ej
FNDA:0,_ZN5QFlagC2Ej
FN:71,_ZNK5QFlagcvjEv
FNDA:0,_ZNK5QFlagcvjEv
FN:120,_ZN6QFlagsIN2Qt16KeyboardModifierEEC2ES1_
FNDA:0,_ZN6QFlagsIN2Qt16KeyboardModifierEEC2ES1_
FN:120,_ZN6QFlagsIN2Qt11MouseButtonEEC2ES1_
FNDA:0,_ZN6QFlagsIN2Qt11MouseButtonEEC2ES1_
FN:120,_ZN6QFlagsIN10QEventLoop17ProcessEventsFlagEEC2ES1_
FNDA:0,_ZN6QFlagsIN10QEventLoop17ProcessEventsFlagEEC2ES1_
FN:121,_ZN6QFlagsIN2Qt10WindowTypeEEC2EMNS2_7PrivateEi
FNDA:14,_ZN6QFlagsIN2Qt10WindowTypeEEC2EMNS2_7PrivateEi
FN:121,_ZN6QFlagsIN2Qt16KeyboardModifierEEC2EMNS2_7PrivateEi
FNDA:0,_ZN6QFlagsIN2Qt16KeyboardModifierEEC2EMNS2_7PrivateEi
FN:122,_ZN6QFlagsIN2Qt16KeyboardModifierEEC1E5QFlag
FNDA:0,_ZN6QFlagsIN2Qt16KeyboardModifierEEC1E5QFlag
FN:130,_ZN6QFlagsIN2Qt11MouseButtonEEaNEj
FNDA:0,_ZN6QFlagsIN2Qt11MouseButtonEEaNEj
FN:130,_ZN6QFlagsIN2Qt16KeyboardModifierEEaNEj
FNDA:0,_ZN6QFlagsIN2Qt16KeyboardModifierEEaNEj
FN:133,_ZN6QFlagsIN10QArrayData16AllocationOptionEEoRES1_
FNDA:0,_ZN6QFlagsIN10QArrayData16AllocationOptionEEoRES1_
FN:133,_ZN6QFlagsIN2Qt11MouseButtonEEoRES1_
FNDA:0,_ZN6QFlagsIN2Qt11MouseButtonEEoRES1_
FN:137,_ZNK6QFlagsIN2Qt16KeyboardModifierEEcvjEv
FNDA:0,_ZNK6QFlagsIN2Qt16KeyboardModifierEEcvjEv
FN:140,_ZNK6QFlagsIN2Qt16KeyboardModifierEEorES1_
FNDA:0,_ZNK6QFlagsIN2Qt16KeyboardModifierEEorES1_
FN:144,_ZNK6QFlagsIN2Qt16KeyboardModifierEEanEj
FNDA:0,_ZNK6QFlagsIN2Qt16KeyboardModifierEEanEj
FN:145,_ZNK6QFlagsIN2Qt16KeyboardModifierEEanES1_
FNDA:0,_ZNK6QFlagsIN2Qt16KeyboardModifierEEanES1_
FN:151,_ZN6QFlagsIN2Qt11MouseButtonEE7setFlagES1_b
FNDA:0,_ZN6QFlagsIN2Qt11MouseButtonEE7setFlagES1_b
DA:68,0
DA:71,0
DA:120,0
DA:120,0
DA:120,0
DA:121,0
DA:121,14
DA:122,0
DA:130,0
DA:130,0
DA:133,0
DA:133,0
DA:137,0
DA:140,0
DA:144,0
DA:145,0
DA:151,0
DA:153,0
end_of_record
SF:/usr/include/c++/9/bits/stl_iterator_base_funcs.h
FN:98,_ZSt10__distanceIPKcENSt15iterator_traitsIT_E15difference_typeES3_S3_St26random_access_iterator_tag
FNDA:0,_ZSt10__distanceIPKcENSt15iterator_traitsIT_E15difference_typeES3_S3_St26random_access_iterator_tag
FN:138,_ZSt8distanceIPKcENSt15iterator_traitsIT_E15difference_typeES3_S3_
FNDA:0,_ZSt8distanceIPKcENSt15iterator_traitsIT_E15difference_typeES3_S3_
DA:98,0
DA:104,0
DA:138,0
DA:141,0
DA:142,0
end_of_record
SF:/usr/include/qt5/QtCore/qbytearray.h
FN:476,_ZN10QByteArrayD2Ev
FNDA:0,_ZN10QByteArrayD2Ev
FN:495,_ZN10QByteArray4dataEv
FNDA:0,_ZN10QByteArray4dataEv
FN:499,_ZNK10QByteArray9constDataEv
FNDA:0,_ZNK10QByteArray9constDataEv
FN:501,_ZN10QByteArray6detachEv
FNDA:0,_ZN10QByteArray6detachEv
DA:476,0
DA:495,0
DA:496,0
DA:499,0
DA:500,0
DA:501,0
DA:502,0
end_of_record
SF:/usr/include/c++/9/bits/stl_iterator_base_types.h
FN:205,_ZSt19__iterator_categoryIPKcENSt15iterator_traitsIT_E17iterator_categoryERKS3_
FNDA:0,_ZSt19__iterator_categoryIPKcENSt15iterator_traitsIT_E17iterator_categoryERKS3_
DA:205,0
DA:206,0
end_of_record
SF:/usr/include/qt5/QtCore/qnamespace.h
FN:110,_ZN2QtorENS_16KeyboardModifierES0_
FNDA:0,_ZN2QtorENS_16KeyboardModifierES0_
DA:110,0
end_of_record
SF:/usr/include/c++/9/bits/move.h
FN:74,_ZSt7forwardIRiEOT_RNSt16remove_referenceIS1_E4typeE
FNDA:0,_ZSt7forwardIRiEOT_RNSt16remove_referenceIS1_E4typeE
FN:99,_ZSt4moveIRP15QTypedArrayDataItEEONSt16remove_referenceIT_E4typeEOS5_
FNDA:0,_ZSt4moveIRP15QTypedArrayDataItEEONSt16remove_referenceIT_E4typeEOS5_
FN:99,_ZSt4moveIR7QStringEONSt16remove_referenceIT_E4typeEOS3_
FNDA:0,_ZSt4moveIR7QStringEONSt16remove_referenceIT_E4typeEOS3_
FN:182,_ZSt4swapIP15QTypedArrayDataItEENSt9enable_ifIXsrSt6__and_IJSt6__not_ISt15__is_tuple_likeIT_EESt21is_move_constructibleIS7_ESt18is_move_assignableIS7_EEE5valueEvE4typeERS7_SH_
FNDA:0,_ZSt4swapIP15QTypedArrayDataItEENSt9enable_ifIXsrSt6__and_IJSt6__not_ISt15__is_tuple_likeIT_EESt21is_move_constructibleIS7_ESt18is_move_assignableIS7_EEE5valueEvE4typeERS7_SH_
DA:74,0
DA:75,0
DA:99,0
DA:100,0
DA:99,0
DA:100,0
DA:182,0
DA:193,0
DA:194,0
DA:195,0
DA:196,0
end_of_record
SF:/home/oresky/school/nanonote/nanonote/3rdparty/catch2/single_include/catch2/catch.hpp
FN:405,_ZN5Catch14SourceLineInfoC2EPKcm
FNDA:0,_ZN5Catch14SourceLineInfoC2EPKcm
FN:529,_ZN5Catch9StringRefC2Ev
FNDA:0,_ZN5Catch9StringRefC2Ev
FN:533,_ZN5Catch9StringRefC2ERKS0_
FNDA:0,_ZN5Catch9StringRefC2ERKS0_
FN:548,_ZN5Catch9StringRefC2EPKcm
FNDA:0,_ZN5Catch9StringRefC2EPKcm
FN:558,_ZN5Catch9StringRefD2Ev
FNDA:0,_ZN5Catch9StringRefD2Ev
FN:616,_Zli9_catch_srPKcm
FNDA:17,_Zli9_catch_srPKcm
FN:991,_ZN5Catch20ReusableStringStreamlsI7QStringEERS0_RKT_
FNDA:0,_ZN5Catch20ReusableStringStreamlsI7QStringEERS0_RKT_
FN:1124,_ZN5Catch11StringMakerI7QStringvE7convertIS1_EENSt9enable_ifIXsrNS_6Detail18IsStreamInsertableIT_EE5valueENSt7__cxx1112basic_stringIcSt11char_traitsIcESaIcEEEE4typeERKS7_
FNDA:0,_ZN5Catch11StringMakerI7QStringvE7convertIS1_EENSt9enable_ifIXsrNS_6Detail18IsStreamInsertableIT_EE5valueENSt7__cxx1112basic_stringIcSt11char_traitsIcESaIcEEEE4typeERKS7_
FN:1149,_ZN5Catch6Detail9stringifyI7QStringEENSt7__cxx1112basic_stringIcSt11char_traitsIcESaIcEEERKT_
FNDA:0,_ZN5Catch6Detail9stringifyI7QStringEENSt7__cxx1112basic_stringIcSt11char_traitsIcESaIcEEERKT_
FN:1664,_ZN5Catch20ITransientExpressionC2Ebb
FNDA:0,_ZN5Catch20ITransientExpressionC2Ebb
FN:1686,_ZNK5Catch10BinaryExprIRK7QStringS3_E29streamReconstructedExpressionERSo
FNDA:0,_ZNK5Catch10BinaryExprIRK7QStringS3_E29streamReconstructedExpressionERSo
FN:1692,_ZN5Catch10BinaryExprIRK7QStringS3_EC2EbS3_NS_9StringRefES3_
FNDA:14,_ZN5Catch10BinaryExprIRK7QStringS3_EC2EbS3_NS_9StringRefES3_
FN:1717,_ZN5Catch12compareEqualI7QStringS1_EEbRKT_RKT0_
FNDA:14,_ZN5Catch12compareEqualI7QStringS1_EEbRKT_RKT0_
FN:1742,_ZN5Catch7ExprLhsIRK7QStringEC2ES3_
FNDA:14,_ZN5Catch7ExprLhsIRK7QStringEC2ES3_
FN:1745,_ZN5Catch7ExprLhsIRK7QStringEeqIS1_EEKNS_10BinaryExprIS3_RKT_EES9_
FNDA:14,_ZN5Catch7ExprLhsIRK7QStringEeqIS1_EEKNS_10BinaryExprIS3_RKT_EES9_
FN:1791,_ZN5Catch10DecomposerleI7QStringEENS_7ExprLhsIRKT_EES6_
FNDA:14,_ZN5Catch10DecomposerleI7QStringEENS_7ExprLhsIRKT_EES6_
FN:1923,_ZN5Catch16AssertionHandlerD2Ev
FNDA:17,_ZN5Catch16AssertionHandlerD2Ev
DA:405,0
DA:406,0
DA:407,0
DA:408,0
DA:529,0
DA:530,0
DA:531,0
DA:533,0
DA:534,0
DA:535,0
DA:536,0
DA:548,0
DA:549,0
DA:550,0
DA:551,0
DA:558,0
DA:559,0
DA:560,0
DA:616,17
DA:617,17
DA:991,0
DA:992,0
DA:993,0
DA:1124,0
DA:1125,0
DA:1128,0
DA:1129,0
DA:1149,0
DA:1150,0
DA:1664,0
DA:1665,0
DA:1666,0
DA:1667,0
DA:1686,0
DA:1688,0
DA:1689,0
DA:1692,14
DA:1696,14
DA:1697,14
DA:1717,14
DA:1742,14
DA:1745,14
DA:1746,14
DA:1791,14
DA:1792,14
DA:1923,17
DA:1924,17
DA:1925,0
DA:1927,17
end_of_record
SF:/usr/include/qt5/QtCore/qatomic_cxx11.h
FN:225,_ZN10QAtomicOpsIiE4loadIiEET_RKSt6atomicIS2_E
FNDA:0,_ZN10QAtomicOpsIiE4loadIiEET_RKSt6atomicIS2_E
FN:263,_ZN10QAtomicOpsIiE3refIiEEbRSt6atomicIT_E
FNDA:0,_ZN10QAtomicOpsIiE3refIiEEbRSt6atomicIT_E
FN:269,_ZN10QAtomicOpsIiE5derefIiEEbRSt6atomicIT_E
FNDA:0,_ZN10QAtomicOpsIiE5derefIiEEbRSt6atomicIT_E
DA:225,0
DA:227,0
DA:263,0
DA:265,0
DA:269,0
DA:271,0
end_of_record
SF:/usr/include/qt5/QtWidgets/qwidget.h
FN:844,_ZNK7QWidget4rectEv
FNDA:0,_ZNK7QWidget4rectEv
DA:844,0
DA:845,0
end_of_record
SF:/usr/include/c++/9/ext/new_allocator.h
FN:80,_ZN9__gnu_cxx13new_allocatorIcEC2Ev
FNDA:0,_ZN9__gnu_cxx13new_allocatorIcEC2Ev
FN:89,_ZN9__gnu_cxx13new_allocatorIcED2Ev
FNDA:0,_ZN9__gnu_cxx13new_allocatorIcED2Ev
DA:80,0
DA:89,0
end_of_record
SF:/usr/include/qt5/QtCore/qchar.h
FN:53,_ZN11QLatin1CharC2Ec
FNDA:0,_ZN11QLatin1CharC2Ec
FN:55,_ZNK11QLatin1Char7unicodeEv
FNDA:0,_ZNK11QLatin1Char7unicodeEv
FN:82,_ZN5QCharC2Et
FNDA:0,_ZN5QCharC2Et
FN:88,_ZN5QCharC2E11QLatin1Char
FNDA:0,_ZN5QCharC2E11QLatin1Char
FN:452,_ZNK5QChar8toLatin1Ev
FNDA:102,_ZNK5QChar8toLatin1Ev
FN:460,_ZN5QChar10fromLatin1Ec
FNDA:0,_ZN5QChar10fromLatin1Ec
DA:53,0
DA:55,0
DA:82,0
DA:88,0
DA:452,102
DA:460,0
end_of_record
SF:/usr/include/qt5/QtCore/qglobal.h
FN:911,_Z5qSwapIP15QTypedArrayDataItEEvRT_S4_
FNDA:0,_Z5qSwapIP15QTypedArrayDataItEEvRT_S4_
DA:911,0
DA:915,0
DA:916,0
end_of_record
SF:/usr/include/qt5/QtTest/qtestmouse.h
FN:95,_ZN5QTestL10mouseEventENS_11MouseActionEP7QWindowN2Qt11MouseButtonE6QFlagsINS3_16KeyboardModifierEE6QPointi
FNDA:0,_ZN5QTestL10mouseEventENS_11MouseActionEP7QWindowN2Qt11MouseButtonE6QFlagsINS3_16KeyboardModifierEE6QPointi
FN:182,_ZN5QTestL10mouseEventENS_11MouseActionEP7QWidgetN2Qt11MouseButtonE6QFlagsINS3_16KeyboardModifierEE6QPointi
FNDA:0,_ZN5QTestL10mouseEventENS_11MouseActionEP7QWidgetN2Qt11MouseButtonE6QFlagsINS3_16KeyboardModifierEE6QPointi
DA:95,0
DA:98,0
DA:102,0
DA:103,0
DA:104,0
DA:108,0
DA:109,0
DA:110,0
DA:111,0
DA:112,0
DA:115,0
DA:116,0
DA:118,0
DA:120,0
DA:122,0
DA:123,0
DA:126,0
DA:128,0
DA:129,0
DA:130,0
DA:132,0
DA:133,0
DA:136,0
DA:138,0
DA:139,0
DA:141,0
DA:142,0
DA:143,0
DA:146,0
DA:147,0
DA:149,0
DA:150,0
DA:151,0
DA:152,0
DA:153,0
DA:155,0
DA:156,0
DA:157,0
DA:159,0
DA:160,0
DA:182,0
DA:185,0
DA:187,0
DA:188,0
DA:197,0
DA:198,0
DA:199,0
DA:200,0
DA:201,0
DA:204,0
DA:205,0
DA:206,0
DA:207,0
DA:210,0
DA:212,0
DA:214,0
DA:215,0
DA:217,0
DA:218,0
DA:219,0
DA:220,0
DA:221,0
DA:222,0
DA:223,0
DA:224,0
DA:225,0
DA:226,0
DA:227,0
DA:228,0
DA:229,0
DA:230,0
DA:231,0
DA:235,0
DA:237,0
DA:238,0
DA:239,0
DA:241,0
DA:242,0
DA:245,0
DA:246,0
end_of_record
SF:/usr/include/qt5/QtCore/qpointer.h
FN:71,_ZN8QPointerI7QWindowEC2EPS0_
FNDA:0,_ZN8QPointerI7QWindowEC2EPS0_
FN:71,_ZN8QPointerI7QWidgetEC2EPS0_
FNDA:0,_ZN8QPointerI7QWidgetEC2EPS0_
FN:85,_ZNK8QPointerI7QWindowE4dataEv
FNDA:0,_ZNK8QPointerI7QWindowE4dataEv
FN:85,_ZNK8QPointerI7QWidgetE4dataEv
FNDA:0,_ZNK8QPointerI7QWidgetE4dataEv
FN:91,_ZNK8QPointerI7QWindowEcvPS0_Ev
FNDA:0,_ZNK8QPointerI7QWindowEcvPS0_Ev
FN:91,_ZNK8QPointerI7QWidgetEcvPS0_Ev
FNDA:0,_ZNK8QPointerI7QWidgetEcvPS0_Ev
DA:71,0
DA:71,0
DA:85,0
DA:86,0
DA:85,0
DA:86,0
DA:91,0
DA:92,0
DA:91,0
DA:92,0
end_of_record
SF:/usr/include/qt5/QtCore/qpoint.h
FN:120,_ZN6QPointC2Ev
FNDA:0,_ZN6QPointC2Ev
FN:122,_ZN6QPointC2Eii
FNDA:0,_ZN6QPointC2Eii
FN:124,_ZNK6QPoint6isNullEv
FNDA:0,_ZNK6QPoint6isNullEv
FN:127,_ZNK6QPoint1xEv
FNDA:0,_ZNK6QPoint1xEv
FN:130,_ZNK6QPoint1yEv
FNDA:0,_ZNK6QPoint1yEv
FN:289,_ZN7QPointFC2ERK6QPoint
FNDA:0,_ZN7QPointFC2ERK6QPoint
DA:120,0
DA:122,0
DA:124,0
DA:125,0
DA:127,0
DA:128,0
DA:130,0
DA:131,0
DA:289,0
end_of_record
SF:/usr/include/qt5/QtGui/qwindow.h
FN:229,_ZNK7QWindow5widthEv
FNDA:0,_ZNK7QWindow5widthEv
FN:230,_ZNK7QWindow6heightEv
FNDA:0,_ZNK7QWindow6heightEv
DA:229,0
DA:230,0
end_of_record
SF:/usr/include/qt5/QtCore/qsize.h
FN:119,_ZN5QSizeC2Eii
FNDA:0,_ZN5QSizeC2Eii
FN:130,_ZNK5QSize5widthEv
FNDA:0,_ZNK5QSize5widthEv
FN:133,_ZNK5QSize6heightEv
FNDA:0,_ZNK5QSize6heightEv
DA:119,0
DA:130,0
DA:131,0
DA:133,0
DA:134,0
end_of_record
SF:/usr/include/qt5/QtTest/qtestkeyboard.h
FN:73,_ZN5QTestL13simulateEventEP7QWindowbi6QFlagsIN2Qt16KeyboardModifierEE7QStringbi
FNDA:0,_ZN5QTestL13simulateEventEP7QWindowbi6QFlagsIN2Qt16KeyboardModifierEE7QStringbi
FN:82,_ZN5QTestL12sendKeyEventENS_9KeyActionEP7QWindowN2Qt3KeyE7QString6QFlagsINS3_16KeyboardModifierEEi
FNDA:0,_ZN5QTestL12sendKeyEventENS_9KeyActionEP7QWindowN2Qt3KeyE7QString6QFlagsINS3_16KeyboardModifierEEi
FN:140,_ZN5QTestL12sendKeyEventENS_9KeyActionEP7QWindowN2Qt3KeyEc6QFlagsINS3_16KeyboardModifierEEi
FNDA:0,_ZN5QTestL12sendKeyEventENS_9KeyActionEP7QWindowN2Qt3KeyEc6QFlagsINS3_16KeyboardModifierEEi
FN:181,_ZN5QTestL13simulateEventEP7QWidgetbi6QFlagsIN2Qt16KeyboardModifierEE7QStringbi
FNDA:32,_ZN5QTestL13simulateEventEP7QWidgetbi6QFlagsIN2Qt16KeyboardModifierEE7QStringbi
FN:201,_ZN5QTestL12sendKeyEventENS_9KeyActionEP7QWidgetN2Qt3KeyE7QString6QFlagsINS3_16KeyboardModifierEEi
FNDA:48,_ZN5QTestL12sendKeyEventENS_9KeyActionEP7QWidgetN2Qt3KeyE7QString6QFlagsINS3_16KeyboardModifierEEi
FN:274,_ZN5QTestL12sendKeyEventENS_9KeyActionEP7QWidgetN2Qt3KeyEc6QFlagsINS3_16KeyboardModifierEEi
FNDA:16,_ZN5QTestL12sendKeyEventENS_9KeyActionEP7QWidgetN2Qt3KeyEc6QFlagsINS3_16KeyboardModifierEEi
FN:286,_ZN5QTestL8keyEventENS_9KeyActionEP7QWidgetN2Qt3KeyE6QFlagsINS3_16KeyboardModifierEEi
FNDA:16,_ZN5QTestL8keyEventENS_9KeyActionEP7QWidgetN2Qt3KeyE6QFlagsINS3_16KeyboardModifierEEi
FN:307,_ZN5QTestL8keyClickEP7QWidgetN2Qt3KeyE6QFlagsINS2_16KeyboardModifierEEi
FNDA:16,_ZN5QTestL8keyClickEP7QWidgetN2Qt3KeyE6QFlagsINS2_16KeyboardModifierEEi
DA:73,0
DA:77,0
DA:78,0
DA:79,0
DA:80,0
DA:82,0
DA:85,0
DA:87,0
DA:88,0
DA:90,0
DA:93,0
DA:94,0
DA:95,0
DA:96,0
DA:99,0
DA:101,0
DA:102,0
DA:103,0
DA:104,0
DA:107,0
DA:108,0
DA:109,0
DA:111,0
DA:112,0
DA:114,0
DA:115,0
DA:116,0
DA:117,0
DA:118,0
DA:119,0
DA:120,0
DA:121,0
DA:122,0
DA:124,0
DA:125,0
DA:126,0
DA:127,0
DA:128,0
DA:130,0
DA:131,0
DA:132,0
DA:134,0
DA:135,0
DA:140,0
DA:143,0
DA:144,0
DA:145,0
DA:146,0
DA:147,0
DA:181,32
DA:184,32
DA:187,32
DA:188,32
DA:189,32
DA:190,0
DA:192,32
DA:193,32
DA:195,32
DA:196,0
DA:197,32
DA:198,0
DA:201,48
DA:204,48
DA:206,48
DA:207,0
DA:208,48
DA:210,0
DA:211,0
DA:213,48
DA:214,0
DA:215,0
DA:216,0
DA:217,0
DA:220,48
DA:221,0
DA:222,48
DA:223,0
DA:225,48
DA:227,48
DA:228,32
DA:229,16
DA:230,16
DA:233,0
DA:235,16
DA:236,16
DA:239,32
DA:241,32
DA:242,16
DA:243,0
DA:245,16
DA:246,0
DA:248,16
DA:249,0
DA:250,0
DA:251,16
DA:252,0
DA:253,0
DA:254,16
DA:255,16
DA:256,16
DA:258,16
DA:259,0
DA:260,16
DA:261,0
DA:262,0
DA:264,16
DA:265,0
DA:266,0
DA:268,16
DA:269,0
DA:274,16
DA:277,16
DA:278,16
DA:279,15
DA:280,16
DA:281,16
DA:286,16
DA:288,16
DA:307,16
DA:308,16
end_of_record
SF:/usr/include/qt5/QtGui/qcursor.h
FN:111,_ZN7QCursor6setPosERK6QPoint
FNDA:0,_ZN7QCursor6setPosERK6QPoint
DA:111,0
end_of_record
SF:/usr/include/c++/9/bits/basic_string.h
FN:243,_ZNSt7__cxx1112basic_stringIcSt11char_traitsIcESaIcEE16_M_construct_auxIPKcEEvT_S8_St12__false_type
FNDA:0,_ZNSt7__cxx1112basic_stringIcSt11char_traitsIcESaIcEE16_M_construct_auxIPKcEEvT_S8_St12__false_type
FN:263,_ZNSt7__cxx1112basic_stringIcSt11char_traitsIcESaIcEE12_M_constructIPKcEEvT_S8_
FNDA:0,_ZNSt7__cxx1112basic_stringIcSt11char_traitsIcESaIcEE12_M_constructIPKcEEvT_S8_
FN:525,_ZNSt7__cxx1112basic_stringIcSt11char_traitsIcESaIcEEC2IS3_EEPKcRKS3_
FNDA:0,_ZNSt7__cxx1112basic_stringIcSt11char_traitsIcESaIcEEC2IS3_EEPKcRKS3_
DA:243,0
DA:247,0
DA:248,0
DA:263,0
DA:266,0
DA:267,0
DA:525,0
DA:526,0
DA:527,0
end_of_record
SF:/usr/include/qt5/QtGui/qevent.h
FN:75,_ZNK11QInputEvent9timestampEv
FNDA:0,_ZNK11QInputEvent9timestampEv
FN:76,_ZN11QInputEvent12setTimestampEm
FNDA:0,_ZN11QInputEvent12setTimestampEm
DA:75,0
DA:76,0
end_of_record
SF:/usr/include/c++/9/ext/type_traits.h
FN:152,_ZN9__gnu_cxx17__is_null_pointerIKcEEbPT_
FNDA:0,_ZN9__gnu_cxx17__is_null_pointerIKcEEbPT_
DA:152,0
DA:153,0
end_of_record
SF:/usr/include/c++/9/bits/basic_string.tcc
FN:206,_ZNSt7__cxx1112basic_stringIcSt11char_traitsIcESaIcEE12_M_constructIPKcEEvT_S8_St20forward_iterator_tag
FNDA:0,_ZNSt7__cxx1112basic_stringIcSt11char_traitsIcESaIcEE12_M_constructIPKcEEvT_S8_St20forward_iterator_tag
DA:206,0
DA:211,0
DA:212,0
DA:215,0
DA:217,0
DA:219,0
DA:220,0
DA:225,0
DA:226,0
DA:228,0
DA:229,0
DA:232,0
DA:233,0
end_of_record
SF:/usr/include/qt5/QtCore/qarraydata.h
FN:57,_ZN10QArrayData4dataEv
FNDA:0,_ZN10QArrayData4dataEv
FN:99,_ZNK10QArrayData11detachFlagsEv
FNDA:0,_ZNK10QArrayData11detachFlagsEv
FN:123,_ZN10QArrayData10sharedNullEv
FNDA:0,_ZN10QArrayData10sharedNullEv
FN:208,_ZN15QTypedArrayDataItE4dataEv
FNDA:0,_ZN15QTypedArrayDataItE4dataEv
FN:208,_ZN15QTypedArrayDataIcE4dataEv
FNDA:0,_ZN15QTypedArrayDataIcE4dataEv
FN:236,_ZN15QTypedArrayDataItE10deallocateEP10QArrayData
FNDA:0,_ZN15QTypedArrayDataItE10deallocateEP10QArrayData
FN:236,_ZN15QTypedArrayDataIcE10deallocateEP10QArrayData
FNDA:0,_ZN15QTypedArrayDataIcE10deallocateEP10QArrayData
FN:257,_ZN15QTypedArrayDataItE10sharedNullEv
FNDA:0,_ZN15QTypedArrayDataItE10sharedNullEv
DA:57,0
DA:61,0
DA:99,0
DA:101,0
DA:102,0
DA:103,0
DA:104,0
DA:123,0
DA:208,0
DA:208,0
DA:236,0
DA:239,0
DA:240,0
DA:236,0
DA:239,0
DA:240,0
DA:257,0
DA:260,0
end_of_record
SF:/home/oresky/school/nanonote/nanonote/tests/IndentExtensionTest.cpp
FN:23,_ZL9setupTextP8TextEditRK7QString
FNDA:12,_ZL9setupTextP8TextEditRK7QString
FN:54,_ZL29____C_A_T_C_H____T_E_S_T____0v
FNDA:14,_ZL29____C_A_T_C_H____T_E_S_T____0v
DA:23,12
DA:25,24
DA:26,12
DA:27,12
DA:28,114
DA:29,102
DA:30,102
DA:31,12
DA:33,12
DA:34,12
DA:35,6
DA:37,6
DA:38,6
DA:39,84
DA:40,84
DA:41,84
DA:44,12
DA:45,24
DA:47,12
DA:48,12
DA:49,6
DA:51,12
DA:52,12
DA:54,14
DA:55,28
DA:56,14
DA:57,14
DA:58,14
DA:59,16
DA:60,2
DA:62,3
DA:63,1
DA:64,2
DA:67,3
DA:68,1
DA:69,1
DA:70,2
DA:74,15
DA:75,1
DA:78,2
DA:79,1
DA:80,2
DA:83,15
DA:84,1
DA:87,1
DA:88,2
DA:92,15
DA:93,1
DA:96,1
DA:97,1
DA:98,2
DA:101,15
DA:102,1
DA:105,1
DA:106,2
DA:109,15
DA:110,1
DA:113,1
DA:114,2
DA:117,15
DA:118,1
DA:120,1
DA:121,2
DA:124,15
DA:125,1
DA:127,1
DA:128,1
DA:129,1
DA:130,1
DA:131,2
DA:134,15
DA:135,1
DA:137,1
DA:138,2
DA:141,15
DA:142,1
DA:143,1
DA:144,2
DA:147,15
DA:148,1
DA:149,1
DA:150,2
DA:153,15
DA:154,1
DA:155,1
DA:156,2
DA:159,15
DA:160,1
DA:162,1
DA:163,2
DA:165,14
end_of_record
SF:/usr/include/qt5/QtTest/qtestspontaneevent.h
FN:86,_ZN17QSpontaneKeyEvent14setSpontaneousEP6QEvent
FNDA:0,_ZN17QSpontaneKeyEvent14setSpontaneousEP6QEvent
DA:86,0
DA:89,0
end_of_record
SF:/usr/include/qt5/QtCore/qsharedpointer_impl.h
FN:155,_ZN15QtSharedPointer20ExternalRefCountDataD2Ev
FNDA:0,_ZN15QtSharedPointer20ExternalRefCountDataD2Ev
FN:167,_ZN15QtSharedPointer20ExternalRefCountDatadlEPv
FNDA:0,_ZN15QtSharedPointer20ExternalRefCountDatadlEPv
FN:569,_ZNK12QWeakPointerI7QObjectE4dataEv
FNDA:0,_ZNK12QWeakPointerI7QObjectE4dataEv
FN:572,_ZN12QWeakPointerI7QObjectED2Ev
FNDA:0,_ZN12QWeakPointerI7QObjectED2Ev
FN:688,_ZN12QWeakPointerI7QObjectEC2I7QWindowEEPT_b
FNDA:0,_ZN12QWeakPointerI7QObjectEC2I7QWindowEEPT_b
FN:688,_ZN12QWeakPointerI7QObjectEC2I7QWidgetEEPT_b
FNDA:0,_ZN12QWeakPointerI7QObjectEC2I7QWidgetEEPT_b
DA:155,0
DA:167,0
DA:569,0
DA:572,0
DA:688,0
DA:689,0
DA:688,0
DA:689,0
end_of_record
TN:
SF:/usr/include/c++/9/bits/char_traits.h
FN:100,_ZN9__gnu_cxx11char_traitsIcE2eqERKcS3_
FNDA:0,_ZN9__gnu_cxx11char_traitsIcE2eqERKcS3_
FN:161,_ZN9__gnu_cxx11char_traitsIcE6lengthEPKc
FNDA:0,_ZN9__gnu_cxx11char_traitsIcE6lengthEPKc
FN:329,_ZNSt11char_traitsIcE6lengthEPKc
FNDA:0,_ZNSt11char_traitsIcE6lengthEPKc
DA:100,0
DA:101,0
DA:161,0
DA:164,0
DA:165,0
DA:166,0
DA:167,0
DA:236,0
DA:329,0
DA:332,0
DA:333,0
DA:335,0
end_of_record
SF:/usr/include/qt5/QtCore/qbasicatomic.h
FN:103,_ZNK19QBasicAtomicIntegerIiE4loadEv
FNDA:0,_ZNK19QBasicAtomicIntegerIiE4loadEv
FN:115,_ZN19QBasicAtomicIntegerIiE5derefEv
FNDA:0,_ZN19QBasicAtomicIntegerIiE5derefEv
DA:103,0
DA:115,0
end_of_record
SF:/usr/include/qt5/QtCore/qrefcount.h
FN:65,_ZN9QtPrivate8RefCount5derefEv
FNDA:0,_ZN9QtPrivate8RefCount5derefEv
DA:65,0
DA:66,0
DA:68,0
DA:69,0
DA:71,0
DA:72,0
DA:73,0
end_of_record
SF:/usr/include/qt5/QtCore/qstring.h
FN:699,_ZN7QStringC2EPKc
FNDA:0,_ZN7QStringC2EPKc
FN:933,_ZNK7QString6lengthEv
FNDA:26,_ZNK7QString6lengthEv
FN:1135,_ZN7QStringD2Ev
FNDA:0,_ZN7QStringD2Ev
DA:699,0
DA:700,0
DA:701,0
DA:933,26
DA:934,26
DA:1135,0
end_of_record
SF:/usr/include/c++/9/bits/atomic_base.h
FN:99,_ZStanSt12memory_orderSt23__memory_order_modifier
FNDA:0,_ZStanSt12memory_orderSt23__memory_order_modifier
FN:326,_ZNSt13__atomic_baseIiEmmEv
FNDA:0,_ZNSt13__atomic_baseIiEmmEv
DA:99,0
DA:101,0
DA:326,0
DA:327,0
DA:415,0
DA:419,0
end_of_record
SF:/home/oresky/school/nanonote/nanonote/tests/LinkSyntaxHighlighterTest.cpp
FN:7,_ZL29____C_A_T_C_H____T_E_S_T____0v
FNDA:3,_ZL29____C_A_T_C_H____T_E_S_T____0v
DA:7,3
DA:8,6
DA:9,6
DA:10,6
DA:11,4
DA:12,2
DA:14,4
DA:15,2
DA:17,4
DA:18,2
DA:20,3
end_of_record
SF:/usr/include/qt5/QtCore/qatomic_cxx11.h
FN:225,_ZN10QAtomicOpsIiE4loadIiEET_RKSt6atomicIS2_E
FNDA:0,_ZN10QAtomicOpsIiE4loadIiEET_RKSt6atomicIS2_E
FN:269,_ZN10QAtomicOpsIiE5derefIiEEbRSt6atomicIT_E
FNDA:0,_ZN10QAtomicOpsIiE5derefIiEEbRSt6atomicIT_E
DA:225,0
DA:227,0
DA:269,0
DA:271,0
end_of_record
SF:/usr/include/qt5/QtCore/qchar.h
FN:53,_ZN11QLatin1CharC2Ec
FNDA:0,_ZN11QLatin1CharC2Ec
FN:55,_ZNK11QLatin1Char7unicodeEv
FNDA:0,_ZNK11QLatin1Char7unicodeEv
FN:88,_ZN5QCharC2E11QLatin1Char
FNDA:0,_ZN5QCharC2E11QLatin1Char
DA:53,0
DA:55,0
DA:88,0
end_of_record
SF:/usr/include/c++/9/ext/new_allocator.h
FN:80,_ZN9__gnu_cxx13new_allocatorIcEC2Ev
FNDA:0,_ZN9__gnu_cxx13new_allocatorIcEC2Ev
FN:89,_ZN9__gnu_cxx13new_allocatorIcED2Ev
FNDA:0,_ZN9__gnu_cxx13new_allocatorIcED2Ev
DA:80,0
DA:89,0
end_of_record
SF:/usr/include/c++/9/bits/stl_iterator_base_funcs.h
FN:98,_ZSt10__distanceIPKcENSt15iterator_traitsIT_E15difference_typeES3_S3_St26random_access_iterator_tag
FNDA:0,_ZSt10__distanceIPKcENSt15iterator_traitsIT_E15difference_typeES3_S3_St26random_access_iterator_tag
FN:138,_ZSt8distanceIPKcENSt15iterator_traitsIT_E15difference_typeES3_S3_
FNDA:0,_ZSt8distanceIPKcENSt15iterator_traitsIT_E15difference_typeES3_S3_
DA:98,0
DA:104,0
DA:138,0
DA:141,0
DA:142,0
end_of_record
SF:/usr/include/c++/9/bits/stl_iterator_base_types.h
FN:205,_ZSt19__iterator_categoryIPKcENSt15iterator_traitsIT_E17iterator_categoryERKS3_
FNDA:0,_ZSt19__iterator_categoryIPKcENSt15iterator_traitsIT_E17iterator_categoryERKS3_
DA:205,0
DA:206,0
end_of_record
SF:/home/oresky/school/nanonote/nanonote/3rdparty/catch2/single_include/catch2/catch.hpp
FN:405,_ZN5Catch14SourceLineInfoC2EPKcm
FNDA:0,_ZN5Catch14SourceLineInfoC2EPKcm
FN:529,_ZN5Catch9StringRefC2Ev
FNDA:0,_ZN5Catch9StringRefC2Ev
FN:533,_ZN5Catch9StringRefC2ERKS0_
FNDA:0,_ZN5Catch9StringRefC2ERKS0_
FN:548,_ZN5Catch9StringRefC2EPKcm
FNDA:0,_ZN5Catch9StringRefC2EPKcm
FN:558,_ZN5Catch9StringRefD2Ev
FNDA:0,_ZN5Catch9StringRefD2Ev
FN:616,_Zli9_catch_srPKcm
FNDA:0,_Zli9_catch_srPKcm
FN:991,_ZN5Catch20ReusableStringStreamlsI4QUrlEERS0_RKT_
FNDA:0,_ZN5Catch20ReusableStringStreamlsI4QUrlEERS0_RKT_
FN:1124,_ZN5Catch11StringMakerI4QUrlvE7convertIS1_EENSt9enable_ifIXsrNS_6Detail18IsStreamInsertableIT_EE5valueENSt7__cxx1112basic_stringIcSt11char_traitsIcESaIcEEEE4typeERKS7_
FNDA:0,_ZN5Catch11StringMakerI4QUrlvE7convertIS1_EENSt9enable_ifIXsrNS_6Detail18IsStreamInsertableIT_EE5valueENSt7__cxx1112basic_stringIcSt11char_traitsIcESaIcEEEE4typeERKS7_
FN:1149,_ZN5Catch6Detail9stringifyI4QUrlEENSt7__cxx1112basic_stringIcSt11char_traitsIcESaIcEEERKT_
FNDA:0,_ZN5Catch6Detail9stringifyI4QUrlEENSt7__cxx1112basic_stringIcSt11char_traitsIcESaIcEEERKT_
FN:1664,_ZN5Catch20ITransientExpressionC2Ebb
FNDA:0,_ZN5Catch20ITransientExpressionC2Ebb
FN:1686,_ZNK5Catch10BinaryExprIRK4QUrlS3_E29streamReconstructedExpressionERSo
FNDA:0,_ZNK5Catch10BinaryExprIRK4QUrlS3_E29streamReconstructedExpressionERSo
FN:1692,_ZN5Catch10BinaryExprIRK4QUrlS3_EC2EbS3_NS_9StringRefES3_
FNDA:3,_ZN5Catch10BinaryExprIRK4QUrlS3_EC2EbS3_NS_9StringRefES3_
FN:1717,_ZN5Catch12compareEqualI4QUrlS1_EEbRKT_RKT0_
FNDA:3,_ZN5Catch12compareEqualI4QUrlS1_EEbRKT_RKT0_
FN:1742,_ZN5Catch7ExprLhsIRK4QUrlEC2ES3_
FNDA:3,_ZN5Catch7ExprLhsIRK4QUrlEC2ES3_
FN:1745,_ZN5Catch7ExprLhsIRK4QUrlEeqIS1_EEKNS_10BinaryExprIS3_RKT_EES9_
FNDA:3,_ZN5Catch7ExprLhsIRK4QUrlEeqIS1_EEKNS_10BinaryExprIS3_RKT_EES9_
FN:1791,_ZN5Catch10DecomposerleI4QUrlEENS_7ExprLhsIRKT_EES6_
FNDA:3,_ZN5Catch10DecomposerleI4QUrlEENS_7ExprLhsIRKT_EES6_
FN:1923,_ZN5Catch16AssertionHandlerD2Ev
FNDA:0,_ZN5Catch16AssertionHandlerD2Ev
DA:405,0
DA:406,0
DA:407,0
DA:408,0
DA:529,0
DA:530,0
DA:531,0
DA:533,0
DA:534,0
DA:535,0
DA:536,0
DA:548,0
DA:549,0
DA:550,0
DA:551,0
DA:558,0
DA:559,0
DA:560,0
DA:616,0
DA:617,0
DA:991,0
DA:992,0
DA:993,0
DA:1124,0
DA:1125,0
DA:1128,0
DA:1129,0
DA:1149,0
DA:1150,0
DA:1664,0
DA:1665,0
DA:1666,0
DA:1667,0
DA:1686,0
DA:1688,0
DA:1689,0
DA:1692,3
DA:1696,3
DA:1697,3
DA:1717,3
DA:1742,3
DA:1745,3
DA:1746,3
DA:1791,3
DA:1792,3
DA:1923,0
DA:1924,0
DA:1925,0
DA:1927,0
end_of_record
SF:/usr/include/c++/9/bits/basic_string.h
FN:243,_ZNSt7__cxx1112basic_stringIcSt11char_traitsIcESaIcEE16_M_construct_auxIPKcEEvT_S8_St12__false_type
FNDA:0,_ZNSt7__cxx1112basic_stringIcSt11char_traitsIcESaIcEE16_M_construct_auxIPKcEEvT_S8_St12__false_type
FN:263,_ZNSt7__cxx1112basic_stringIcSt11char_traitsIcESaIcEE12_M_constructIPKcEEvT_S8_
FNDA:0,_ZNSt7__cxx1112basic_stringIcSt11char_traitsIcESaIcEE12_M_constructIPKcEEvT_S8_
FN:525,_ZNSt7__cxx1112basic_stringIcSt11char_traitsIcESaIcEEC2IS3_EEPKcRKS3_
FNDA:0,_ZNSt7__cxx1112basic_stringIcSt11char_traitsIcESaIcEEC2IS3_EEPKcRKS3_
DA:243,0
DA:247,0
DA:248,0
DA:263,0
DA:266,0
DA:267,0
DA:525,0
DA:526,0
DA:527,0
end_of_record
SF:/usr/include/c++/9/bits/basic_string.tcc
FN:206,_ZNSt7__cxx1112basic_stringIcSt11char_traitsIcESaIcEE12_M_constructIPKcEEvT_S8_St20forward_iterator_tag
FNDA:0,_ZNSt7__cxx1112basic_stringIcSt11char_traitsIcESaIcEE12_M_constructIPKcEEvT_S8_St20forward_iterator_tag
DA:206,0
DA:211,0
DA:212,0
DA:215,0
DA:217,0
DA:219,0
DA:220,0
DA:225,0
DA:226,0
DA:228,0
DA:229,0
DA:232,0
DA:233,0
end_of_record
SF:/usr/include/c++/9/ext/type_traits.h
FN:152,_ZN9__gnu_cxx17__is_null_pointerIKcEEbPT_
FNDA:0,_ZN9__gnu_cxx17__is_null_pointerIKcEEbPT_
DA:152,0
DA:153,0
end_of_record
SF:/usr/include/qt5/QtCore/qarraydata.h
FN:236,_ZN15QTypedArrayDataItE10deallocateEP10QArrayData
FNDA:0,_ZN15QTypedArrayDataItE10deallocateEP10QArrayData
DA:236,0
DA:239,0
DA:240,0
end_of_record
TN:
SF:/usr/include/qt5/QtCore/qbasicatomic.h
FN:221,_ZN19QBasicAtomicIntegerIiEC2Ei
FNDA:28,_ZN19QBasicAtomicIntegerIiEC2Ei
DA:221,28
end_of_record
SF:/usr/include/c++/9/bits/atomic_base.h
FN:279,_ZNSt13__atomic_baseIiEC2Ei
FNDA:28,_ZNSt13__atomic_baseIiEC2Ei
DA:279,28
end_of_record
SF:/usr/include/qt5/QtCore/qatomic.h
FN:60,_ZN14QAtomicIntegerIiEC2Ei
FNDA:28,_ZN14QAtomicIntegerIiEC2Ei
FN:162,_ZN10QAtomicIntC2Ei
FNDA:28,_ZN10QAtomicIntC2Ei
DA:60,28
DA:162,28
end_of_record
SF:/usr/include/c++/9/atomic
FN:759,_ZNSt6atomicIiEC2Ei
FNDA:28,_ZNSt6atomicIiEC2Ei
DA:759,28
end_of_record
SF:/usr/include/qt5/QtCore/qobject_impl.h
FN:75,_ZN9QtPrivate15ConnectionTypesINS_4ListIJbEEELb1EE5typesEv
FNDA:0,_ZN9QtPrivate15ConnectionTypesINS_4ListIJbEEELb1EE5typesEv
DA:75,0
end_of_record
SF:/usr/include/qt5/QtCore/qobject.h
FN:228,_ZN7QObject7connectIM15QAbstractButtonFvbEM12SearchWidgetFvvEEEN11QMetaObject10ConnectionEPKN9QtPrivate15FunctionPointerIT_E6ObjectESB_PKNSA_IT0_E6ObjectESG_N2Qt14ConnectionTypeE
FNDA:0,_ZN7QObject7connectIM15QAbstractButtonFvbEM12SearchWidgetFvvEEEN11QMetaObject10ConnectionEPKN9QtPrivate15FunctionPointerIT_E6ObjectESB_PKNSA_IT0_E6ObjectESG_N2Qt14ConnectionTypeE
DA:228,0
DA:246,0
DA:247,0
DA:248,0
DA:252,0
DA:254,0
end_of_record
SF:/home/oresky/school/nanonote/nanonote/tests/FakeSearch.cpp
FN:16,_ZN10FakeSearchC2EP8TextEditP7QWidget
FNDA:0,_ZN10FakeSearchC2EP8TextEditP7QWidget
FN:30,_ZN10FakeSearch17initializeMembersEv
FNDA:0,_ZN10FakeSearch17initializeMembersEv
FN:40,_ZNK10FakeSearch16getGuiNextButtonEv
FNDA:0,_ZNK10FakeSearch16getGuiNextButtonEv
FN:45,_ZNK10FakeSearch20getGuiPreviousButtonEv
FNDA:0,_ZNK10FakeSearch20getGuiPreviousButtonEv
DA:16,0
DA:17,0
DA:19,0
DA:20,0
DA:21,0
DA:28,0
DA:30,0
DA:32,0
DA:33,0
DA:35,0
DA:36,0
DA:38,0
DA:40,0
DA:42,0
DA:45,0
DA:47,0
end_of_record
SF:/usr/include/qt5/QtCore/qobjectdefs_impl.h
FN:88,_ZN9QtPrivate16ApplyReturnValueIvEC2EPv
FNDA:0,_ZN9QtPrivate16ApplyReturnValueIvEC2EPv
FN:151,_ZN9QtPrivate11FunctorCallINS_11IndexesListIJEEENS_4ListIJEEEvM12SearchWidgetFvvEE4callES7_PS5_PPv
FNDA:0,_ZN9QtPrivate11FunctorCallINS_11IndexesListIJEEENS_4ListIJEEEvM12SearchWidgetFvvEE4callES7_PS5_PPv
FN:184,_ZN9QtPrivate15FunctionPointerIM12SearchWidgetFvvEE4callINS_4ListIJEEEvEEvS3_PS1_PPv
FNDA:0,_ZN9QtPrivate15FunctionPointerIM12SearchWidgetFvvEE4callINS_4ListIJEEEvEEvS3_PS1_PPv
FN:387,_ZN9QtPrivate15QSlotObjectBaseC2EPFviPS0_P7QObjectPPvPbE
FNDA:28,_ZN9QtPrivate15QSlotObjectBaseC2EPFviPS0_P7QObjectPPvPbE
FN:396,_ZN9QtPrivate15QSlotObjectBaseD2Ev
FNDA:28,_ZN9QtPrivate15QSlotObjectBaseD2Ev
FN:407,_ZN9QtPrivate11QSlotObjectIM12SearchWidgetFvvENS_4ListIJEEEvE4implEiPNS_15QSlotObjectBaseEP7QObjectPPvPb
FNDA:0,_ZN9QtPrivate11QSlotObjectIM12SearchWidgetFvvENS_4ListIJEEEvE4implEiPNS_15QSlotObjectBaseEP7QObjectPPvPb
FN:423,_ZN9QtPrivate11QSlotObjectIM12SearchWidgetFvvENS_4ListIJEEEvEC2ES3_
FNDA:0,_ZN9QtPrivate11QSlotObjectIM12SearchWidgetFvvENS_4ListIJEEEvEC2ES3_
DA:88,0
DA:151,0
DA:152,0
DA:153,0
DA:184,0
DA:185,0
DA:186,0
DA:387,28
DA:396,28
DA:407,0
DA:409,0
DA:410,0
DA:411,0
DA:412,0
DA:413,0
DA:414,0
DA:415,0
DA:416,0
DA:417,0
DA:418,0
DA:419,0
DA:421,0
DA:423,0
end_of_record
SF:/home/oresky/school/nanonote/nanonote/tests/FakeSearch.h
end_of_record
TN:
SF:/usr/include/c++/9/ext/type_traits.h
FN:152,_ZN9__gnu_cxx17__is_null_pointerIKcEEbPT_
FNDA:0,_ZN9__gnu_cxx17__is_null_pointerIKcEEbPT_
DA:152,0
DA:153,0
end_of_record
SF:/usr/include/c++/9/bits/basic_string.tcc
FN:206,_ZNSt7__cxx1112basic_stringIcSt11char_traitsIcESaIcEE12_M_constructIPKcEEvT_S8_St20forward_iterator_tag
FNDA:0,_ZNSt7__cxx1112basic_stringIcSt11char_traitsIcESaIcEE12_M_constructIPKcEEvT_S8_St20forward_iterator_tag
DA:206,0
DA:211,0
DA:212,0
DA:215,0
DA:217,0
DA:219,0
DA:220,0
DA:225,0
DA:226,0
DA:228,0
DA:229,0
DA:232,0
DA:233,0
end_of_record
SF:/usr/include/c++/9/bits/basic_string.h
FN:243,_ZNSt7__cxx1112basic_stringIcSt11char_traitsIcESaIcEE16_M_construct_auxIPKcEEvT_S8_St12__false_type
FNDA:0,_ZNSt7__cxx1112basic_stringIcSt11char_traitsIcESaIcEE16_M_construct_auxIPKcEEvT_S8_St12__false_type
FN:263,_ZNSt7__cxx1112basic_stringIcSt11char_traitsIcESaIcEE12_M_constructIPKcEEvT_S8_
FNDA:0,_ZNSt7__cxx1112basic_stringIcSt11char_traitsIcESaIcEE12_M_constructIPKcEEvT_S8_
DA:243,0
DA:247,0
DA:248,0
DA:263,0
DA:266,0
DA:267,0
end_of_record
SF:/usr/include/qt5/QtCore/qarraydata.h
FN:57,_ZN10QArrayData4dataEv
FNDA:0,_ZN10QArrayData4dataEv
FN:208,_ZN15QTypedArrayDataIcE4dataEv
FNDA:0,_ZN15QTypedArrayDataIcE4dataEv
FN:236,_ZN15QTypedArrayDataIcE10deallocateEP10QArrayData
FNDA:0,_ZN15QTypedArrayDataIcE10deallocateEP10QArrayData
DA:57,0
DA:61,0
DA:208,0
DA:236,0
DA:239,0
DA:240,0
end_of_record
SF:/home/oresky/school/nanonote/nanonote/tests/TestUtils.cpp
FN:3,_ZlsRSoRK7QString
FNDA:0,_ZlsRSoRK7QString
FN:9,_ZlsRSoRK4QUrl
FNDA:0,_ZlsRSoRK4QUrl
DA:3,0
DA:5,0
DA:6,0
DA:9,0
DA:11,0
DA:12,0
end_of_record
SF:/usr/include/qt5/QtCore/qatomic_cxx11.h
FN:225,_ZN10QAtomicOpsIiE4loadIiEET_RKSt6atomicIS2_E
FNDA:0,_ZN10QAtomicOpsIiE4loadIiEET_RKSt6atomicIS2_E
FN:269,_ZN10QAtomicOpsIiE5derefIiEEbRSt6atomicIT_E
FNDA:0,_ZN10QAtomicOpsIiE5derefIiEEbRSt6atomicIT_E
DA:225,0
DA:227,0
DA:269,0
DA:271,0
end_of_record
SF:/usr/include/c++/9/ext/new_allocator.h
FN:80,_ZN9__gnu_cxx13new_allocatorIcEC2Ev
FNDA:0,_ZN9__gnu_cxx13new_allocatorIcEC2Ev
FN:89,_ZN9__gnu_cxx13new_allocatorIcED2Ev
FNDA:0,_ZN9__gnu_cxx13new_allocatorIcED2Ev
DA:80,0
DA:89,0
end_of_record
SF:/usr/include/c++/9/bits/stl_iterator_base_types.h
FN:205,_ZSt19__iterator_categoryIPKcENSt15iterator_traitsIT_E17iterator_categoryERKS3_
FNDA:0,_ZSt19__iterator_categoryIPKcENSt15iterator_traitsIT_E17iterator_categoryERKS3_
DA:205,0
DA:206,0
end_of_record
SF:/usr/include/qt5/QtCore/qbytearray.h
FN:441,_ZNK10QByteArray6lengthEv
FNDA:0,_ZNK10QByteArray6lengthEv
FN:476,_ZN10QByteArrayD2Ev
FNDA:0,_ZN10QByteArrayD2Ev
FN:499,_ZNK10QByteArray9constDataEv
FNDA:0,_ZNK10QByteArray9constDataEv
FN:688,_ZNK10QByteArray11toStdStringB5cxx11Ev
FNDA:0,_ZNK10QByteArray11toStdStringB5cxx11Ev
DA:441,0
DA:476,0
DA:499,0
DA:500,0
DA:688,0
DA:689,0
end_of_record
SF:/usr/include/c++/9/bits/stl_iterator_base_funcs.h
FN:98,_ZSt10__distanceIPKcENSt15iterator_traitsIT_E15difference_typeES3_S3_St26random_access_iterator_tag
FNDA:0,_ZSt10__distanceIPKcENSt15iterator_traitsIT_E15difference_typeES3_S3_St26random_access_iterator_tag
FN:138,_ZSt8distanceIPKcENSt15iterator_traitsIT_E15difference_typeES3_S3_
FNDA:0,_ZSt8distanceIPKcENSt15iterator_traitsIT_E15difference_typeES3_S3_
DA:98,0
DA:104,0
DA:138,0
DA:141,0
DA:142,0
end_of_record
SF:/usr/include/qt5/QtCore/qbasicatomic.h
FN:103,_ZNK19QBasicAtomicIntegerIiE4loadEv
FNDA:0,_ZNK19QBasicAtomicIntegerIiE4loadEv
FN:115,_ZN19QBasicAtomicIntegerIiE5derefEv
FNDA:0,_ZN19QBasicAtomicIntegerIiE5derefEv
DA:103,0
DA:115,0
end_of_record
SF:/usr/include/qt5/QtCore/qrefcount.h
FN:65,_ZN9QtPrivate8RefCount5derefEv
FNDA:0,_ZN9QtPrivate8RefCount5derefEv
DA:65,0
DA:66,0
DA:68,0
DA:69,0
DA:71,0
DA:72,0
DA:73,0
end_of_record
SF:/usr/include/c++/9/bits/atomic_base.h
FN:99,_ZStanSt12memory_orderSt23__memory_order_modifier
FNDA:0,_ZStanSt12memory_orderSt23__memory_order_modifier
FN:326,_ZNSt13__atomic_baseIiEmmEv
FNDA:0,_ZNSt13__atomic_baseIiEmmEv
DA:99,0
DA:101,0
DA:326,0
DA:327,0
DA:415,0
DA:419,0
end_of_record
SF:/usr/include/qt5/QtCore/qstring.h
FN:549,_ZNKR7QString6toUtf8Ev
FNDA:0,_ZNKR7QString6toUtf8Ev
FN:1371,_ZNK7QString11toStdStringB5cxx11Ev
FNDA:0,_ZNK7QString11toStdStringB5cxx11Ev
DA:549,0
DA:550,0
DA:1371,0
DA:1372,0
end_of_record
SF:/usr/include/qt5/QtCore/qurl.h
FN:70,_ZN12QUrlTwoFlagsIN4QUrl19UrlFormattingOptionENS0_25ComponentFormattingOptionEEC2ES2_
FNDA:0,_ZN12QUrlTwoFlagsIN4QUrl19UrlFormattingOptionENS0_25ComponentFormattingOptionEEC2ES2_
DA:70,0
end_of_record
TN:
SF:/home/oresky/school/nanonote/nanonote/tests/tests.cpp
FN:7,main
FNDA:1,main
DA:7,1
DA:9,1
DA:10,1
DA:11,1
end_of_record
SF:/usr/include/qt5/QtTest/qtestmouse.h
FN:95,_ZN5QTestL10mouseEventENS_11MouseActionEP7QWindowN2Qt11MouseButtonE6QFlagsINS3_16KeyboardModifierEE6QPointi
FNDA:0,_ZN5QTestL10mouseEventENS_11MouseActionEP7QWindowN2Qt11MouseButtonE6QFlagsINS3_16KeyboardModifierEE6QPointi
FN:182,_ZN5QTestL10mouseEventENS_11MouseActionEP7QWidgetN2Qt11MouseButtonE6QFlagsINS3_16KeyboardModifierEE6QPointi
FNDA:0,_ZN5QTestL10mouseEventENS_11MouseActionEP7QWidgetN2Qt11MouseButtonE6QFlagsINS3_16KeyboardModifierEE6QPointi
DA:95,0
DA:98,0
DA:102,0
DA:103,0
DA:104,0
DA:108,0
DA:109,0
DA:110,0
DA:111,0
DA:112,0
DA:115,0
DA:116,0
DA:118,0
DA:120,0
DA:122,0
DA:123,0
DA:126,0
DA:128,0
DA:129,0
DA:130,0
DA:132,0
DA:133,0
DA:136,0
DA:138,0
DA:139,0
DA:141,0
DA:142,0
DA:143,0
DA:146,0
DA:147,0
DA:149,0
DA:150,0
DA:151,0
DA:152,0
DA:153,0
DA:155,0
DA:156,0
DA:157,0
DA:159,0
DA:160,0
DA:182,0
DA:185,0
DA:187,0
DA:188,0
DA:197,0
DA:198,0
DA:199,0
DA:200,0
DA:201,0
DA:204,0
DA:205,0
DA:206,0
DA:207,0
DA:210,0
DA:212,0
DA:214,0
DA:215,0
DA:217,0
DA:218,0
DA:219,0
DA:220,0
DA:221,0
DA:222,0
DA:223,0
DA:224,0
DA:225,0
DA:226,0
DA:227,0
DA:228,0
DA:229,0
DA:230,0
DA:231,0
DA:235,0
DA:237,0
DA:238,0
DA:239,0
DA:241,0
DA:242,0
DA:245,0
DA:246,0
end_of_record
SF:/usr/include/qt5/QtGui/qwindow.h
FN:229,_ZNK7QWindow5widthEv
FNDA:0,_ZNK7QWindow5widthEv
FN:230,_ZNK7QWindow6heightEv
FNDA:0,_ZNK7QWindow6heightEv
DA:229,0
DA:230,0
end_of_record
SF:/usr/include/qt5/QtTest/qtestkeyboard.h
FN:73,_ZN5QTestL13simulateEventEP7QWindowbi6QFlagsIN2Qt16KeyboardModifierEE7QStringbi
FNDA:0,_ZN5QTestL13simulateEventEP7QWindowbi6QFlagsIN2Qt16KeyboardModifierEE7QStringbi
FN:82,_ZN5QTestL12sendKeyEventENS_9KeyActionEP7QWindowN2Qt3KeyE7QString6QFlagsINS3_16KeyboardModifierEEi
FNDA:0,_ZN5QTestL12sendKeyEventENS_9KeyActionEP7QWindowN2Qt3KeyE7QString6QFlagsINS3_16KeyboardModifierEEi
FN:140,_ZN5QTestL12sendKeyEventENS_9KeyActionEP7QWindowN2Qt3KeyEc6QFlagsINS3_16KeyboardModifierEEi
FNDA:0,_ZN5QTestL12sendKeyEventENS_9KeyActionEP7QWindowN2Qt3KeyEc6QFlagsINS3_16KeyboardModifierEEi
FN:181,_ZN5QTestL13simulateEventEP7QWidgetbi6QFlagsIN2Qt16KeyboardModifierEE7QStringbi
FNDA:0,_ZN5QTestL13simulateEventEP7QWidgetbi6QFlagsIN2Qt16KeyboardModifierEE7QStringbi
FN:201,_ZN5QTestL12sendKeyEventENS_9KeyActionEP7QWidgetN2Qt3KeyE7QString6QFlagsINS3_16KeyboardModifierEEi
FNDA:0,_ZN5QTestL12sendKeyEventENS_9KeyActionEP7QWidgetN2Qt3KeyE7QString6QFlagsINS3_16KeyboardModifierEEi
FN:274,_ZN5QTestL12sendKeyEventENS_9KeyActionEP7QWidgetN2Qt3KeyEc6QFlagsINS3_16KeyboardModifierEEi
FNDA:0,_ZN5QTestL12sendKeyEventENS_9KeyActionEP7QWidgetN2Qt3KeyEc6QFlagsINS3_16KeyboardModifierEEi
DA:73,0
DA:77,0
DA:78,0
DA:79,0
DA:80,0
DA:82,0
DA:85,0
DA:87,0
DA:88,0
DA:90,0
DA:93,0
DA:94,0
DA:95,0
DA:96,0
DA:99,0
DA:101,0
DA:102,0
DA:103,0
DA:104,0
DA:107,0
DA:108,0
DA:109,0
DA:111,0
DA:112,0
DA:114,0
DA:115,0
DA:116,0
DA:117,0
DA:118,0
DA:119,0
DA:120,0
DA:121,0
DA:122,0
DA:124,0
DA:125,0
DA:126,0
DA:127,0
DA:128,0
DA:130,0
DA:131,0
DA:132,0
DA:134,0
DA:135,0
DA:140,0
DA:143,0
DA:144,0
DA:145,0
DA:146,0
DA:147,0
DA:181,0
DA:184,0
DA:187,0
DA:188,0
DA:189,0
DA:190,0
DA:192,0
DA:193,0
DA:195,0
DA:196,0
DA:197,0
DA:198,0
DA:201,0
DA:204,0
DA:206,0
DA:207,0
DA:208,0
DA:210,0
DA:211,0
DA:213,0
DA:214,0
DA:215,0
DA:216,0
DA:217,0
DA:220,0
DA:221,0
DA:222,0
DA:223,0
DA:225,0
DA:227,0
DA:228,0
DA:229,0
DA:230,0
DA:233,0
DA:235,0
DA:236,0
DA:239,0
DA:241,0
DA:242,0
DA:243,0
DA:245,0
DA:246,0
DA:248,0
DA:249,0
DA:250,0
DA:251,0
DA:252,0
DA:253,0
DA:254,0
DA:255,0
DA:256,0
DA:258,0
DA:259,0
DA:260,0
DA:261,0
DA:262,0
DA:264,0
DA:265,0
DA:266,0
DA:268,0
DA:269,0
DA:274,0
DA:277,0
DA:278,0
DA:279,0
DA:280,0
DA:281,0
end_of_record
SF:/usr/include/c++/9/bits/stl_vector.h
FN:94,_ZNSt12_Vector_baseIN5Catch12_GLOBAL__N_110ColumnInfoESaIS2_EE17_Vector_impl_dataC2Ev
FNDA:1,_ZNSt12_Vector_baseIN5Catch12_GLOBAL__N_110ColumnInfoESaIS2_EE17_Vector_impl_dataC2Ev
FN:94,_ZNSt12_Vector_baseISt10unique_ptrINSt7__cxx1119basic_ostringstreamIcSt11char_traitsIcESaIcEEESt14default_deleteIS6_EESaIS9_EE17_Vector_impl_dataC2Ev
FNDA:0,_ZNSt12_Vector_baseISt10unique_ptrINSt7__cxx1119basic_ostringstreamIcSt11char_traitsIcESaIcEEESt14default_deleteIS6_EESaIS9_EE17_Vector_impl_dataC2Ev
FN:94,_ZNSt12_Vector_baseIN5Catch8TestCaseESaIS1_EE17_Vector_impl_dataC2Ev
FNDA:6,_ZNSt12_Vector_baseIN5Catch8TestCaseESaIS1_EE17_Vector_impl_dataC2Ev
FN:94,_ZNSt12_Vector_baseImSaImEE17_Vector_impl_dataC2Ev
FNDA:1,_ZNSt12_Vector_baseImSaImEE17_Vector_impl_dataC2Ev
FN:94,_ZNSt12_Vector_baseISt10shared_ptrIN5Catch16TestCaseTracking8ITrackerEESaIS4_EE17_Vector_impl_dataC2Ev
FNDA:22,_ZNSt12_Vector_baseISt10shared_ptrIN5Catch16TestCaseTracking8ITrackerEESaIS4_EE17_Vector_impl_dataC2Ev
FN:94,_ZNSt12_Vector_baseIN5Catch11SectionInfoESaIS1_EE17_Vector_impl_dataC2Ev
FNDA:1,_ZNSt12_Vector_baseIN5Catch11SectionInfoESaIS1_EE17_Vector_impl_dataC2Ev
FN:94,_ZNSt12_Vector_baseISt10shared_ptrIN5Catch8TestSpec7PatternEESaIS4_EE17_Vector_impl_dataC2Ev
FNDA:8,_ZNSt12_Vector_baseISt10shared_ptrIN5Catch8TestSpec7PatternEESaIS4_EE17_Vector_impl_dataC2Ev
FN:94,_ZNSt12_Vector_baseIN5Catch8TestSpec6FilterESaIS2_EE17_Vector_impl_dataC2Ev
FNDA:7,_ZNSt12_Vector_baseIN5Catch8TestSpec6FilterESaIS2_EE17_Vector_impl_dataC2Ev
FN:94,_ZNSt12_Vector_baseIN5Catch13SummaryColumnESaIS1_EE17_Vector_impl_dataC2Ev
FNDA:0,_ZNSt12_Vector_baseIN5Catch13SummaryColumnESaIS1_EE17_Vector_impl_dataC2Ev
FN:94,_ZNSt12_Vector_baseIN5Catch5clara6detail11HelpColumnsESaIS3_EE17_Vector_impl_dataC2Ev
FNDA:0,_ZNSt12_Vector_baseIN5Catch5clara6detail11HelpColumnsESaIS3_EE17_Vector_impl_dataC2Ev
FN:94,_ZNSt12_Vector_baseIN5Catch5clara6detail5TokenESaIS3_EE17_Vector_impl_dataC2Ev
FNDA:5,_ZNSt12_Vector_baseIN5Catch5clara6detail5TokenESaIS3_EE17_Vector_impl_dataC2Ev
FN:94,_ZNSt12_Vector_baseIN5Catch5clara6detail3ArgESaIS3_EE17_Vector_impl_dataC2Ev
FNDA:61,_ZNSt12_Vector_baseIN5Catch5clara6detail3ArgESaIS3_EE17_Vector_impl_dataC2Ev
FN:94,_ZNSt12_Vector_baseIN5Catch5clara8TextFlow6ColumnESaIS3_EE17_Vector_impl_dataC2Ev
FNDA:0,_ZNSt12_Vector_baseIN5Catch5clara8TextFlow6ColumnESaIS3_EE17_Vector_impl_dataC2Ev
FN:94,_ZNSt12_Vector_baseIcSaIcEE17_Vector_impl_dataC2Ev
FNDA:0,_ZNSt12_Vector_baseIcSaIcEE17_Vector_impl_dataC2Ev
FN:94,_ZNSt12_Vector_baseISt4pairIccESaIS1_EE17_Vector_impl_dataC2Ev
FNDA:0,_ZNSt12_Vector_baseISt4pairIccESaIS1_EE17_Vector_impl_dataC2Ev
FN:94,_ZNSt12_Vector_baseINSt7__cxx1112regex_traitsIcE10_RegexMaskESaIS3_EE17_Vector_impl_dataC2Ev
FNDA:0,_ZNSt12_Vector_baseINSt7__cxx1112regex_traitsIcE10_RegexMaskESaIS3_EE17_Vector_impl_dataC2Ev
FN:94,_ZNSt12_Vector_baseISt4pairINSt7__cxx1112basic_stringIcSt11char_traitsIcESaIcEEES6_ESaIS7_EE17_Vector_impl_dataC2Ev
FNDA:0,_ZNSt12_Vector_baseISt4pairINSt7__cxx1112basic_stringIcSt11char_traitsIcESaIcEEES6_ESaIS7_EE17_Vector_impl_dataC2Ev
FN:94,_ZNSt12_Vector_baseISt10unique_ptrIN5Catch18IStreamingReporterESt14default_deleteIS2_EESaIS5_EE17_Vector_impl_dataC2Ev
FNDA:0,_ZNSt12_Vector_baseISt10unique_ptrIN5Catch18IStreamingReporterESt14default_deleteIS2_EESaIS5_EE17_Vector_impl_dataC2Ev
FN:94,_ZNSt12_Vector_baseIN5Catch5clara8TextFlow6Column8iteratorESaIS4_EE17_Vector_impl_dataC2Ev
FNDA:0,_ZNSt12_Vector_baseIN5Catch5clara8TextFlow6Column8iteratorESaIS4_EE17_Vector_impl_dataC2Ev
FN:94,_ZNSt12_Vector_baseINSt7__cxx1112basic_stringIcSt11char_traitsIcESaIcEEESaIS5_EE17_Vector_impl_dataC2Ev
FNDA:841,_ZNSt12_Vector_baseINSt7__cxx1112basic_stringIcSt11char_traitsIcESaIcEEESaIS5_EE17_Vector_impl_dataC2Ev
FN:94,_ZNSt12_Vector_baseINSt8__detail6_StateIcEESaIS2_EE17_Vector_impl_dataC2Ev
FNDA:0,_ZNSt12_Vector_baseINSt8__detail6_StateIcEESaIS2_EE17_Vector_impl_dataC2Ev
FN:94,_ZNSt12_Vector_baseISt10unique_ptrIKN5Catch20IExceptionTranslatorESt14default_deleteIS3_EESaIS6_EE17_Vector_impl_dataC2Ev
FNDA:1,_ZNSt12_Vector_baseISt10unique_ptrIKN5Catch20IExceptionTranslatorESt14default_deleteIS3_EESaIS6_EE17_Vector_impl_dataC2Ev
FN:94,_ZNSt12_Vector_baseIPN5Catch10ISingletonESaIS2_EE17_Vector_impl_dataC2Ev
FNDA:2,_ZNSt12_Vector_baseIPN5Catch10ISingletonESaIS2_EE17_Vector_impl_dataC2Ev
FN:94,_ZNSt12_Vector_baseIN5Catch14SectionEndInfoESaIS1_EE17_Vector_impl_dataC2Ev
FNDA:1,_ZNSt12_Vector_baseIN5Catch14SectionEndInfoESaIS1_EE17_Vector_impl_dataC2Ev
FN:94,_ZNSt12_Vector_baseISt10shared_ptrIN5Catch22CumulativeReporterBaseINS1_13JunitReporterEE11SectionNodeEESaIS6_EE17_Vector_impl_dataC2Ev
FNDA:0,_ZNSt12_Vector_baseISt10shared_ptrIN5Catch22CumulativeReporterBaseINS1_13JunitReporterEE11SectionNodeEESaIS6_EE17_Vector_impl_dataC2Ev
FN:94,_ZNSt12_Vector_baseIPN5Catch16TestCaseTracking8ITrackerESaIS3_EE17_Vector_impl_dataC2Ev
FNDA:1,_ZNSt12_Vector_baseIPN5Catch16TestCaseTracking8ITrackerESaIS3_EE17_Vector_impl_dataC2Ev
FN:94,_ZNSt12_Vector_baseISt4pairIN9__gnu_cxx17__normal_iteratorIPKcNSt7__cxx1112basic_stringIcSt11char_traitsIcESaIcEEEEEiESaISC_EE17_Vector_impl_dataC2Ev
FNDA:0,_ZNSt12_Vector_baseISt4pairIN9__gnu_cxx17__normal_iteratorIPKcNSt7__cxx1112basic_stringIcSt11char_traitsIcESaIcEEEEEiESaISC_EE17_Vector_impl_dataC2Ev
FN:94,_ZNSt12_Vector_baseISt4pairIlSt6vectorINSt7__cxx119sub_matchIN9__gnu_cxx17__normal_iteratorIPKcNS2_12basic_stringIcSt11char_traitsIcESaIcEEEEEEESaISE_EEESaISH_EE17_Vector_impl_dataC2Ev
FNDA:0,_ZNSt12_Vector_baseISt4pairIlSt6vectorINSt7__cxx119sub_matchIN9__gnu_cxx17__normal_iteratorIPKcNS2_12basic_stringIcSt11char_traitsIcESaIcEEEEEEESaISE_EEESaISH_EE17_Vector_impl_dataC2Ev
FN:94,_ZNSt12_Vector_baseINSt7__cxx119sub_matchIN9__gnu_cxx17__normal_iteratorIPKcNS0_12basic_stringIcSt11char_traitsIcESaIcEEEEEEESaISC_EE17_Vector_impl_dataC2Ev
FNDA:0,_ZNSt12_Vector_baseINSt7__cxx119sub_matchIN9__gnu_cxx17__normal_iteratorIPKcNS0_12basic_stringIcSt11char_traitsIcESaIcEEEEEEESaISC_EE17_Vector_impl_dataC2Ev
FN:94,_ZNSt12_Vector_baseINSt15__exception_ptr13exception_ptrESaIS1_EE17_Vector_impl_dataC2Ev
FNDA:1,_ZNSt12_Vector_baseINSt15__exception_ptr13exception_ptrESaIS1_EE17_Vector_impl_dataC2Ev
FN:94,_ZNSt12_Vector_baseISt10shared_ptrIN5Catch16IReporterFactoryEESaIS3_EE17_Vector_impl_dataC2Ev
FNDA:1,_ZNSt12_Vector_baseISt10shared_ptrIN5Catch16IReporterFactoryEESaIS3_EE17_Vector_impl_dataC2Ev
FN:94,_ZNSt12_Vector_baseISt10shared_ptrIN5Catch22CumulativeReporterBaseINS1_13JunitReporterEE4NodeINS1_12TestRunStatsENS5_INS1_14TestGroupStatsENS5_INS1_13TestCaseStatsENS4_11SectionNodeEEEEEEEESaISD_EE17_Vector_impl_dataC2Ev
FNDA:0,_ZNSt12_Vector_baseISt10shared_ptrIN5Catch22CumulativeReporterBaseINS1_13JunitReporterEE4NodeINS1_12TestRunStatsENS5_INS1_14TestGroupStatsENS5_INS1_13TestCaseStatsENS4_11SectionNodeEEEEEEEESaISD_EE17_Vector_impl_dataC2Ev
FN:94,_ZNSt12_Vector_baseIN5Catch5clara6detail3OptESaIS3_EE17_Vector_impl_dataC2Ev
FNDA:61,_ZNSt12_Vector_baseIN5Catch5clara6detail3OptESaIS3_EE17_Vector_impl_dataC2Ev
FN:94,_ZNSt12_Vector_baseISt10shared_ptrIN5Catch22CumulativeReporterBaseINS1_13JunitReporterEE4NodeINS1_14TestGroupStatsENS5_INS1_13TestCaseStatsENS4_11SectionNodeEEEEEESaISB_EE17_Vector_impl_dataC2Ev
FNDA:0,_ZNSt12_Vector_baseISt10shared_ptrIN5Catch22CumulativeReporterBaseINS1_13JunitReporterEE4NodeINS1_14TestGroupStatsENS5_INS1_13TestCaseStatsENS4_11SectionNodeEEEEEESaISB_EE17_Vector_impl_dataC2Ev
FN:94,_ZNSt12_Vector_baseISt10shared_ptrIN5Catch22CumulativeReporterBaseINS1_13JunitReporterEE4NodeINS1_13TestCaseStatsENS4_11SectionNodeEEEESaIS9_EE17_Vector_impl_dataC2Ev
FNDA:0,_ZNSt12_Vector_baseISt10shared_ptrIN5Catch22CumulativeReporterBaseINS1_13JunitReporterEE4NodeINS1_13TestCaseStatsENS4_11SectionNodeEEEESaIS9_EE17_Vector_impl_dataC2Ev
FN:94,_ZNSt12_Vector_baseIN5Catch11MessageInfoESaIS1_EE17_Vector_impl_dataC2Ev
FNDA:1,_ZNSt12_Vector_baseIN5Catch11MessageInfoESaIS1_EE17_Vector_impl_dataC2Ev
FN:94,_ZNSt12_Vector_baseISt6vectorISt10shared_ptrIN5Catch22CumulativeReporterBaseINS2_13JunitReporterEE11SectionNodeEESaIS7_EESaIS9_EE17_Vector_impl_dataC2Ev
FNDA:0,_ZNSt12_Vector_baseISt6vectorISt10shared_ptrIN5Catch22CumulativeReporterBaseINS2_13JunitReporterEE11SectionNodeEESaIS7_EESaIS9_EE17_Vector_impl_dataC2Ev
FN:94,_ZNSt12_Vector_baseIN5Catch14AssertionStatsESaIS1_EE17_Vector_impl_dataC2Ev
FNDA:0,_ZNSt12_Vector_baseIN5Catch14AssertionStatsESaIS1_EE17_Vector_impl_dataC2Ev
FN:99,_ZNSt12_Vector_baseIcSaIcEE17_Vector_impl_dataC2EOS2_
FNDA:0,_ZNSt12_Vector_baseIcSaIcEE17_Vector_impl_dataC2EOS2_
FN:99,_ZNSt12_Vector_baseISt4pairINSt7__cxx1112basic_stringIcSt11char_traitsIcESaIcEEES6_ESaIS7_EE17_Vector_impl_dataC2EOSA_
FNDA:0,_ZNSt12_Vector_baseISt4pairINSt7__cxx1112basic_stringIcSt11char_traitsIcESaIcEEES6_ESaIS7_EE17_Vector_impl_dataC2EOSA_
FN:99,_ZNSt12_Vector_baseINSt7__cxx1112regex_traitsIcE10_RegexMaskESaIS3_EE17_Vector_impl_dataC2EOS6_
FNDA:0,_ZNSt12_Vector_baseINSt7__cxx1112regex_traitsIcE10_RegexMaskESaIS3_EE17_Vector_impl_dataC2EOS6_
FN:99,_ZNSt12_Vector_baseISt4pairIccESaIS1_EE17_Vector_impl_dataC2EOS4_
FNDA:0,_ZNSt12_Vector_baseISt4pairIccESaIS1_EE17_Vector_impl_dataC2EOS4_
FN:99,_ZNSt12_Vector_baseINSt7__cxx1112basic_stringIcSt11char_traitsIcESaIcEEESaIS5_EE17_Vector_impl_dataC2EOS8_
FNDA:331,_ZNSt12_Vector_baseINSt7__cxx1112basic_stringIcSt11char_traitsIcESaIcEEESaIS5_EE17_Vector_impl_dataC2EOS8_
FN:99,_ZNSt12_Vector_baseISt10shared_ptrIN5Catch8TestSpec7PatternEESaIS4_EE17_Vector_impl_dataC2EOS7_
FNDA:0,_ZNSt12_Vector_baseISt10shared_ptrIN5Catch8TestSpec7PatternEESaIS4_EE17_Vector_impl_dataC2EOS7_
FN:99,_ZNSt12_Vector_baseISt4pairIlSt6vectorINSt7__cxx119sub_matchIN9__gnu_cxx17__normal_iteratorIPKcNS2_12basic_stringIcSt11char_traitsIcESaIcEEEEEEESaISE_EEESaISH_EE17_Vector_impl_dataC2EOSK_
FNDA:0,_ZNSt12_Vector_baseISt4pairIlSt6vectorINSt7__cxx119sub_matchIN9__gnu_cxx17__normal_iteratorIPKcNS2_12basic_stringIcSt11char_traitsIcESaIcEEEEEEESaISE_EEESaISH_EE17_Vector_impl_dataC2EOSK_
FN:99,_ZNSt12_Vector_baseIN5Catch12_GLOBAL__N_110ColumnInfoESaIS2_EE17_Vector_impl_dataC2EOS5_
FNDA:1,_ZNSt12_Vector_baseIN5Catch12_GLOBAL__N_110ColumnInfoESaIS2_EE17_Vector_impl_dataC2EOS5_
FN:99,_ZNSt12_Vector_baseINSt7__cxx119sub_matchIN9__gnu_cxx17__normal_iteratorIPKcNS0_12basic_stringIcSt11char_traitsIcESaIcEEEEEEESaISC_EE17_Vector_impl_dataC2EOSF_
FNDA:0,_ZNSt12_Vector_baseINSt7__cxx119sub_matchIN9__gnu_cxx17__normal_iteratorIPKcNS0_12basic_stringIcSt11char_traitsIcESaIcEEEEEEESaISC_EE17_Vector_impl_dataC2EOSF_
FN:106,_ZNSt12_Vector_baseINSt7__cxx119sub_matchIN9__gnu_cxx17__normal_iteratorIPKcNS0_12basic_stringIcSt11char_traitsIcESaIcEEEEEEESaISC_EE17_Vector_impl_data12_M_copy_dataERKSF_
FNDA:0,_ZNSt12_Vector_baseINSt7__cxx119sub_matchIN9__gnu_cxx17__normal_iteratorIPKcNS0_12basic_stringIcSt11char_traitsIcESaIcEEEEEEESaISC_EE17_Vector_impl_data12_M_copy_dataERKSF_
FN:106,_ZNSt12_Vector_baseIN5Catch8TestSpec6FilterESaIS2_EE17_Vector_impl_data12_M_copy_dataERKS5_
FNDA:6,_ZNSt12_Vector_baseIN5Catch8TestSpec6FilterESaIS2_EE17_Vector_impl_data12_M_copy_dataERKS5_
FN:106,_ZNSt12_Vector_baseISt10shared_ptrIN5Catch22CumulativeReporterBaseINS1_13JunitReporterEE4NodeINS1_13TestCaseStatsENS4_11SectionNodeEEEESaIS9_EE17_Vector_impl_data12_M_copy_dataERKSC_
FNDA:0,_ZNSt12_Vector_baseISt10shared_ptrIN5Catch22CumulativeReporterBaseINS1_13JunitReporterEE4NodeINS1_13TestCaseStatsENS4_11SectionNodeEEEESaIS9_EE17_Vector_impl_data12_M_copy_dataERKSC_
FN:106,_ZNSt12_Vector_baseISt10shared_ptrIN5Catch8TestSpec7PatternEESaIS4_EE17_Vector_impl_data12_M_copy_dataERKS7_
FNDA:6,_ZNSt12_Vector_baseISt10shared_ptrIN5Catch8TestSpec7PatternEESaIS4_EE17_Vector_impl_data12_M_copy_dataERKS7_
FN:106,_ZNSt12_Vector_baseIN5Catch8TestCaseESaIS1_EE17_Vector_impl_data12_M_copy_dataERKS4_
FNDA:6,_ZNSt12_Vector_baseIN5Catch8TestCaseESaIS1_EE17_Vector_impl_data12_M_copy_dataERKS4_
FN:106,_ZNSt12_Vector_baseINSt7__cxx1112basic_stringIcSt11char_traitsIcESaIcEEESaIS5_EE17_Vector_impl_data12_M_copy_dataERKS8_
FNDA:12,_ZNSt12_Vector_baseINSt7__cxx1112basic_stringIcSt11char_traitsIcESaIcEEESaIS5_EE17_Vector_impl_data12_M_copy_dataERKS8_
FN:106,_ZNSt12_Vector_baseIN5Catch5clara6detail3OptESaIS3_EE17_Vector_impl_data12_M_copy_dataERKS6_
FNDA:6,_ZNSt12_Vector_baseIN5Catch5clara6detail3OptESaIS3_EE17_Vector_impl_data12_M_copy_dataERKS6_
FN:106,_ZNSt12_Vector_baseISt10shared_ptrIN5Catch22CumulativeReporterBaseINS1_13JunitReporterEE4NodeINS1_14TestGroupStatsENS5_INS1_13TestCaseStatsENS4_11SectionNodeEEEEEESaISB_EE17_Vector_impl_data12_M_copy_dataERKSE_
FNDA:0,_ZNSt12_Vector_baseISt10shared_ptrIN5Catch22CumulativeReporterBaseINS1_13JunitReporterEE4NodeINS1_14TestGroupStatsENS5_INS1_13TestCaseStatsENS4_11SectionNodeEEEEEESaISB_EE17_Vector_impl_data12_M_copy_dataERKSE_
FN:106,_ZNSt12_Vector_baseIN5Catch5clara6detail3ArgESaIS3_EE17_Vector_impl_data12_M_copy_dataERKS6_
FNDA:6,_ZNSt12_Vector_baseIN5Catch5clara6detail3ArgESaIS3_EE17_Vector_impl_data12_M_copy_dataERKS6_
FN:114,_ZNSt12_Vector_baseISt10shared_ptrIN5Catch22CumulativeReporterBaseINS1_13JunitReporterEE4NodeINS1_13TestCaseStatsENS4_11SectionNodeEEEESaIS9_EE17_Vector_impl_data12_M_swap_dataERSC_
FNDA:0,_ZNSt12_Vector_baseISt10shared_ptrIN5Catch22CumulativeReporterBaseINS1_13JunitReporterEE4NodeINS1_13TestCaseStatsENS4_11SectionNodeEEEESaIS9_EE17_Vector_impl_data12_M_swap_dataERSC_
FN:114,_ZNSt12_Vector_baseIN5Catch8TestSpec6FilterESaIS2_EE17_Vector_impl_data12_M_swap_dataERS5_
FNDA:2,_ZNSt12_Vector_baseIN5Catch8TestSpec6FilterESaIS2_EE17_Vector_impl_data12_M_swap_dataERS5_
FN:114,_ZNSt12_Vector_baseISt10shared_ptrIN5Catch8TestSpec7PatternEESaIS4_EE17_Vector_impl_data12_M_swap_dataERS7_
FNDA:2,_ZNSt12_Vector_baseISt10shared_ptrIN5Catch8TestSpec7PatternEESaIS4_EE17_Vector_impl_data12_M_swap_dataERS7_
FN:114,_ZNSt12_Vector_baseINSt7__cxx119sub_matchIN9__gnu_cxx17__normal_iteratorIPKcNS0_12basic_stringIcSt11char_traitsIcESaIcEEEEEEESaISC_EE17_Vector_impl_data12_M_swap_dataERSF_
FNDA:0,_ZNSt12_Vector_baseINSt7__cxx119sub_matchIN9__gnu_cxx17__normal_iteratorIPKcNS0_12basic_stringIcSt11char_traitsIcESaIcEEEEEEESaISC_EE17_Vector_impl_data12_M_swap_dataERSF_
FN:114,_ZNSt12_Vector_baseIN5Catch5clara6detail3ArgESaIS3_EE17_Vector_impl_data12_M_swap_dataERS6_
FNDA:2,_ZNSt12_Vector_baseIN5Catch5clara6detail3ArgESaIS3_EE17_Vector_impl_data12_M_swap_dataERS6_
FN:114,_ZNSt12_Vector_baseIN5Catch5clara6detail3OptESaIS3_EE17_Vector_impl_data12_M_swap_dataERS6_
FNDA:2,_ZNSt12_Vector_baseIN5Catch5clara6detail3OptESaIS3_EE17_Vector_impl_data12_M_swap_dataERS6_
FN:114,_ZNSt12_Vector_baseINSt7__cxx1112basic_stringIcSt11char_traitsIcESaIcEEESaIS5_EE17_Vector_impl_data12_M_swap_dataERS8_
FNDA:4,_ZNSt12_Vector_baseINSt7__cxx1112basic_stringIcSt11char_traitsIcESaIcEEESaIS5_EE17_Vector_impl_data12_M_swap_dataERS8_
FN:114,_ZNSt12_Vector_baseISt10shared_ptrIN5Catch22CumulativeReporterBaseINS1_13JunitReporterEE4NodeINS1_14TestGroupStatsENS5_INS1_13TestCaseStatsENS4_11SectionNodeEEEEEESaISB_EE17_Vector_impl_data12_M_swap_dataERSE_
FNDA:0,_ZNSt12_Vector_baseISt10shared_ptrIN5Catch22CumulativeReporterBaseINS1_13JunitReporterEE4NodeINS1_14TestGroupStatsENS5_INS1_13TestCaseStatsENS4_11SectionNodeEEEEEESaISB_EE17_Vector_impl_data12_M_swap_dataERSE_
FN:114,_ZNSt12_Vector_baseIN5Catch8TestCaseESaIS1_EE17_Vector_impl_data12_M_swap_dataERS4_
FNDA:2,_ZNSt12_Vector_baseIN5Catch8TestCaseESaIS1_EE17_Vector_impl_data12_M_swap_dataERS4_
FN:128,_ZNSt12_Vector_baseIN5Catch8TestSpec6FilterESaIS2_EE12_Vector_implC2Ev
FNDA:2,_ZNSt12_Vector_baseIN5Catch8TestSpec6FilterESaIS2_EE12_Vector_implC2Ev
FN:128,_ZNSt12_Vector_baseISt10shared_ptrIN5Catch22CumulativeReporterBaseINS1_13JunitReporterEE11SectionNodeEESaIS6_EE12_Vector_implC2Ev
FNDA:0,_ZNSt12_Vector_baseISt10shared_ptrIN5Catch22CumulativeReporterBaseINS1_13JunitReporterEE11SectionNodeEESaIS6_EE12_Vector_implC2Ev
FN:128,_ZNSt12_Vector_baseINSt7__cxx1112basic_stringIcSt11char_traitsIcESaIcEEESaIS5_EE12_Vector_implC2Ev
FNDA:56,_ZNSt12_Vector_baseINSt7__cxx1112basic_stringIcSt11char_traitsIcESaIcEEESaIS5_EE12_Vector_implC2Ev
FN:128,_ZNSt12_Vector_baseISt10unique_ptrINSt7__cxx1119basic_ostringstreamIcSt11char_traitsIcESaIcEEESt14default_deleteIS6_EESaIS9_EE12_Vector_implC2Ev
FNDA:0,_ZNSt12_Vector_baseISt10unique_ptrINSt7__cxx1119basic_ostringstreamIcSt11char_traitsIcESaIcEEESt14default_deleteIS6_EESaIS9_EE12_Vector_implC2Ev
FN:128,_ZNSt12_Vector_baseImSaImEE12_Vector_implC2Ev
FNDA:1,_ZNSt12_Vector_baseImSaImEE12_Vector_implC2Ev
FN:128,_ZNSt12_Vector_baseIN5Catch11MessageInfoESaIS1_EE12_Vector_implC2Ev
FNDA:1,_ZNSt12_Vector_baseIN5Catch11MessageInfoESaIS1_EE12_Vector_implC2Ev
FN:128,_ZNSt12_Vector_baseISt10unique_ptrIN5Catch18IStreamingReporterESt14default_deleteIS2_EESaIS5_EE12_Vector_implC2Ev
FNDA:0,_ZNSt12_Vector_baseISt10unique_ptrIN5Catch18IStreamingReporterESt14default_deleteIS2_EESaIS5_EE12_Vector_implC2Ev
FN:128,_ZNSt12_Vector_baseIN5Catch11SectionInfoESaIS1_EE12_Vector_implC2Ev
FNDA:1,_ZNSt12_Vector_baseIN5Catch11SectionInfoESaIS1_EE12_Vector_implC2Ev
FN:128,_ZNSt12_Vector_baseISt4pairINSt7__cxx1112basic_stringIcSt11char_traitsIcESaIcEEES6_ESaIS7_EE12_Vector_implC2Ev
FNDA:0,_ZNSt12_Vector_baseISt4pairINSt7__cxx1112basic_stringIcSt11char_traitsIcESaIcEEES6_ESaIS7_EE12_Vector_implC2Ev
FN:128,_ZNSt12_Vector_baseIN5Catch14SectionEndInfoESaIS1_EE12_Vector_implC2Ev
FNDA:1,_ZNSt12_Vector_baseIN5Catch14SectionEndInfoESaIS1_EE12_Vector_implC2Ev
FN:128,_ZNSt12_Vector_baseISt10shared_ptrIN5Catch22CumulativeReporterBaseINS1_13JunitReporterEE4NodeINS1_12TestRunStatsENS5_INS1_14TestGroupStatsENS5_INS1_13TestCaseStatsENS4_11SectionNodeEEEEEEEESaISD_EE12_Vector_implC2Ev
FNDA:0,_ZNSt12_Vector_baseISt10shared_ptrIN5Catch22CumulativeReporterBaseINS1_13JunitReporterEE4NodeINS1_12TestRunStatsENS5_INS1_14TestGroupStatsENS5_INS1_13TestCaseStatsENS4_11SectionNodeEEEEEEEESaISD_EE12_Vector_implC2Ev
FN:128,_ZNSt12_Vector_baseIN5Catch5clara6detail11HelpColumnsESaIS3_EE12_Vector_implC2Ev
FNDA:0,_ZNSt12_Vector_baseIN5Catch5clara6detail11HelpColumnsESaIS3_EE12_Vector_implC2Ev
FN:128,_ZNSt12_Vector_baseISt10shared_ptrIN5Catch22CumulativeReporterBaseINS1_13JunitReporterEE4NodeINS1_14TestGroupStatsENS5_INS1_13TestCaseStatsENS4_11SectionNodeEEEEEESaISB_EE12_Vector_implC2Ev
FNDA:0,_ZNSt12_Vector_baseISt10shared_ptrIN5Catch22CumulativeReporterBaseINS1_13JunitReporterEE4NodeINS1_14TestGroupStatsENS5_INS1_13TestCaseStatsENS4_11SectionNodeEEEEEESaISB_EE12_Vector_implC2Ev
FN:128,_ZNSt12_Vector_baseISt10shared_ptrIN5Catch22CumulativeReporterBaseINS1_13JunitReporterEE4NodeINS1_13TestCaseStatsENS4_11SectionNodeEEEESaIS9_EE12_Vector_implC2Ev
FNDA:0,_ZNSt12_Vector_baseISt10shared_ptrIN5Catch22CumulativeReporterBaseINS1_13JunitReporterEE4NodeINS1_13TestCaseStatsENS4_11SectionNodeEEEESaIS9_EE12_Vector_implC2Ev
FN:128,_ZNSt12_Vector_baseIN5Catch5clara8TextFlow6Column8iteratorESaIS4_EE12_Vector_implC2Ev
FNDA:0,_ZNSt12_Vector_baseIN5Catch5clara8TextFlow6Column8iteratorESaIS4_EE12_Vector_implC2Ev
FN:128,_ZNSt12_Vector_baseISt6vectorISt10shared_ptrIN5Catch22CumulativeReporterBaseINS2_13JunitReporterEE11SectionNodeEESaIS7_EESaIS9_EE12_Vector_implC2Ev
FNDA:0,_ZNSt12_Vector_baseISt6vectorISt10shared_ptrIN5Catch22CumulativeReporterBaseINS2_13JunitReporterEE11SectionNodeEESaIS7_EESaIS9_EE12_Vector_implC2Ev
FN:128,_ZNSt12_Vector_baseINSt7__cxx1112regex_traitsIcE10_RegexMaskESaIS3_EE12_Vector_implC2Ev
FNDA:0,_ZNSt12_Vector_baseINSt7__cxx1112regex_traitsIcE10_RegexMaskESaIS3_EE12_Vector_implC2Ev
FN:128,_ZNSt12_Vector_baseISt4pairIccESaIS1_EE12_Vector_implC2Ev
FNDA:0,_ZNSt12_Vector_baseISt4pairIccESaIS1_EE12_Vector_implC2Ev
FN:128,_ZNSt12_Vector_baseIcSaIcEE12_Vector_implC2Ev
FNDA:0,_ZNSt12_Vector_baseIcSaIcEE12_Vector_implC2Ev
FN:128,_ZNSt12_Vector_baseIN5Catch14AssertionStatsESaIS1_EE12_Vector_implC2Ev
FNDA:0,_ZNSt12_Vector_baseIN5Catch14AssertionStatsESaIS1_EE12_Vector_implC2Ev
FN:128,_ZNSt12_Vector_baseIN5Catch5clara6detail5TokenESaIS3_EE12_Vector_implC2Ev
FNDA:1,_ZNSt12_Vector_baseIN5Catch5clara6detail5TokenESaIS3_EE12_Vector_implC2Ev
FN:128,_ZNSt12_Vector_baseIN5Catch5clara8TextFlow6ColumnESaIS3_EE12_Vector_implC2Ev
FNDA:0,_ZNSt12_Vector_baseIN5Catch5clara8TextFlow6ColumnESaIS3_EE12_Vector_implC2Ev
FN:128,_ZNSt12_Vector_baseINSt7__cxx119sub_matchIN9__gnu_cxx17__normal_iteratorIPKcNS0_12basic_stringIcSt11char_traitsIcESaIcEEEEEEESaISC_EE12_Vector_implC2Ev
FNDA:0,_ZNSt12_Vector_baseINSt7__cxx119sub_matchIN9__gnu_cxx17__normal_iteratorIPKcNS0_12basic_stringIcSt11char_traitsIcESaIcEEEEEEESaISC_EE12_Vector_implC2Ev
FN:128,_ZNSt12_Vector_baseISt4pairIlSt6vectorINSt7__cxx119sub_matchIN9__gnu_cxx17__normal_iteratorIPKcNS2_12basic_stringIcSt11char_traitsIcESaIcEEEEEEESaISE_EEESaISH_EE12_Vector_implC2Ev
FNDA:0,_ZNSt12_Vector_baseISt4pairIlSt6vectorINSt7__cxx119sub_matchIN9__gnu_cxx17__normal_iteratorIPKcNS2_12basic_stringIcSt11char_traitsIcESaIcEEEEEEESaISE_EEESaISH_EE12_Vector_implC2Ev
FN:128,_ZNSt12_Vector_baseISt10shared_ptrIN5Catch8TestSpec7PatternEESaIS4_EE12_Vector_implC2Ev
FNDA:2,_ZNSt12_Vector_baseISt10shared_ptrIN5Catch8TestSpec7PatternEESaIS4_EE12_Vector_implC2Ev
FN:128,_ZNSt12_Vector_baseIPN5Catch10ISingletonESaIS2_EE12_Vector_implC2Ev
FNDA:2,_ZNSt12_Vector_baseIPN5Catch10ISingletonESaIS2_EE12_Vector_implC2Ev
FN:128,_ZNSt12_Vector_baseINSt15__exception_ptr13exception_ptrESaIS1_EE12_Vector_implC2Ev
FNDA:1,_ZNSt12_Vector_baseINSt15__exception_ptr13exception_ptrESaIS1_EE12_Vector_implC2Ev
FN:128,_ZNSt12_Vector_baseIN5Catch13SummaryColumnESaIS1_EE12_Vector_implC2Ev
FNDA:0,_ZNSt12_Vector_baseIN5Catch13SummaryColumnESaIS1_EE12_Vector_implC2Ev
FN:128,_ZNSt12_Vector_baseINSt8__detail6_StateIcEESaIS2_EE12_Vector_implC2Ev
FNDA:0,_ZNSt12_Vector_baseINSt8__detail6_StateIcEESaIS2_EE12_Vector_implC2Ev
FN:128,_ZNSt12_Vector_baseISt10unique_ptrIKN5Catch20IExceptionTranslatorESt14default_deleteIS3_EESaIS6_EE12_Vector_implC2Ev
FNDA:1,_ZNSt12_Vector_baseISt10unique_ptrIKN5Catch20IExceptionTranslatorESt14default_deleteIS3_EESaIS6_EE12_Vector_implC2Ev
FN:128,_ZNSt12_Vector_baseISt10shared_ptrIN5Catch16TestCaseTracking8ITrackerEESaIS4_EE12_Vector_implC2Ev
FNDA:22,_ZNSt12_Vector_baseISt10shared_ptrIN5Catch16TestCaseTracking8ITrackerEESaIS4_EE12_Vector_implC2Ev
FN:128,_ZNSt12_Vector_baseISt10shared_ptrIN5Catch16IReporterFactoryEESaIS3_EE12_Vector_implC2Ev
FNDA:1,_ZNSt12_Vector_baseISt10shared_ptrIN5Catch16IReporterFactoryEESaIS3_EE12_Vector_implC2Ev
FN:128,_ZNSt12_Vector_baseIN5Catch8TestCaseESaIS1_EE12_Vector_implC2Ev
FNDA:2,_ZNSt12_Vector_baseIN5Catch8TestCaseESaIS1_EE12_Vector_implC2Ev
FN:128,_ZNSt12_Vector_baseIN5Catch5clara6detail3ArgESaIS3_EE12_Vector_implC2Ev
FNDA:2,_ZNSt12_Vector_baseIN5Catch5clara6detail3ArgESaIS3_EE12_Vector_implC2Ev
FN:128,_ZNSt12_Vector_baseIN5Catch5clara6detail3OptESaIS3_EE12_Vector_implC2Ev
FNDA:2,_ZNSt12_Vector_baseIN5Catch5clara6detail3OptESaIS3_EE12_Vector_implC2Ev
FN:128,_ZNSt12_Vector_baseIPN5Catch16TestCaseTracking8ITrackerESaIS3_EE12_Vector_implC2Ev
FNDA:1,_ZNSt12_Vector_baseIPN5Catch16TestCaseTracking8ITrackerESaIS3_EE12_Vector_implC2Ev
FN:133,_ZNSt12_Vector_baseIN5Catch8TestSpec6FilterESaIS2_EE12_Vector_implC2ERKS3_
FNDA:3,_ZNSt12_Vector_baseIN5Catch8TestSpec6FilterESaIS2_EE12_Vector_implC2ERKS3_
FN:133,_ZNSt12_Vector_baseIN5Catch11MessageInfoESaIS1_EE12_Vector_implC2ERKS2_
FNDA:0,_ZNSt12_Vector_baseIN5Catch11MessageInfoESaIS1_EE12_Vector_implC2ERKS2_
FN:133,_ZNSt12_Vector_baseINSt7__cxx1112regex_traitsIcE10_RegexMaskESaIS3_EE12_Vector_implC2ERKS4_
FNDA:0,_ZNSt12_Vector_baseINSt7__cxx1112regex_traitsIcE10_RegexMaskESaIS3_EE12_Vector_implC2ERKS4_
FN:133,_ZNSt12_Vector_baseIN5Catch8TestCaseESaIS1_EE12_Vector_implC2ERKS2_
FNDA:2,_ZNSt12_Vector_baseIN5Catch8TestCaseESaIS1_EE12_Vector_implC2ERKS2_
FN:133,_ZNSt12_Vector_baseINSt7__cxx1112basic_stringIcSt11char_traitsIcESaIcEEESaIS5_EE12_Vector_implC2ERKS6_
FNDA:781,_ZNSt12_Vector_baseINSt7__cxx1112basic_stringIcSt11char_traitsIcESaIcEEESaIS5_EE12_Vector_implC2ERKS6_
FN:133,_ZNSt12_Vector_baseIN5Catch5clara6detail3OptESaIS3_EE12_Vector_implC2ERKS4_
FNDA:57,_ZNSt12_Vector_baseIN5Catch5clara6detail3OptESaIS3_EE12_Vector_implC2ERKS4_
FN:133,_ZNSt12_Vector_baseIN5Catch5clara6detail3ArgESaIS3_EE12_Vector_implC2ERKS4_
FNDA:57,_ZNSt12_Vector_baseIN5Catch5clara6detail3ArgESaIS3_EE12_Vector_implC2ERKS4_
FN:133,_ZNSt12_Vector_baseISt4pairIN9__gnu_cxx17__normal_iteratorIPKcNSt7__cxx1112basic_stringIcSt11char_traitsIcESaIcEEEEEiESaISC_EE12_Vector_implC2ERKSD_
FNDA:0,_ZNSt12_Vector_baseISt4pairIN9__gnu_cxx17__normal_iteratorIPKcNSt7__cxx1112basic_stringIcSt11char_traitsIcESaIcEEEEEiESaISC_EE12_Vector_implC2ERKSD_
FN:133,_ZNSt12_Vector_baseISt4pairIccESaIS1_EE12_Vector_implC2ERKS2_
FNDA:0,_ZNSt12_Vector_baseISt4pairIccESaIS1_EE12_Vector_implC2ERKS2_
FN:133,_ZNSt12_Vector_baseIN5Catch5clara8TextFlow6ColumnESaIS3_EE12_Vector_implC2ERKS4_
FNDA:0,_ZNSt12_Vector_baseIN5Catch5clara8TextFlow6ColumnESaIS3_EE12_Vector_implC2ERKS4_
FN:133,_ZNSt12_Vector_baseIcSaIcEE12_Vector_implC2ERKS0_
FNDA:0,_ZNSt12_Vector_baseIcSaIcEE12_Vector_implC2ERKS0_
FN:133,_ZNSt12_Vector_baseIN5Catch12_GLOBAL__N_110ColumnInfoESaIS2_EE12_Vector_implC2ERKS3_
FNDA:1,_ZNSt12_Vector_baseIN5Catch12_GLOBAL__N_110ColumnInfoESaIS2_EE12_Vector_implC2ERKS3_
FN:133,_ZNSt12_Vector_baseIN5Catch5clara6detail5TokenESaIS3_EE12_Vector_implC2ERKS4_
FNDA:4,_ZNSt12_Vector_baseIN5Catch5clara6detail5TokenESaIS3_EE12_Vector_implC2ERKS4_
FN:133,_ZNSt12_Vector_baseIN5Catch5clara6detail11HelpColumnsESaIS3_EE12_Vector_implC2ERKS4_
FNDA:0,_ZNSt12_Vector_baseIN5Catch5clara6detail11HelpColumnsESaIS3_EE12_Vector_implC2ERKS4_
FN:133,_ZNSt12_Vector_baseINSt7__cxx119sub_matchIN9__gnu_cxx17__normal_iteratorIPKcNS0_12basic_stringIcSt11char_traitsIcESaIcEEEEEEESaISC_EE12_Vector_implC2ERKSD_
FNDA:0,_ZNSt12_Vector_baseINSt7__cxx119sub_matchIN9__gnu_cxx17__normal_iteratorIPKcNS0_12basic_stringIcSt11char_traitsIcESaIcEEEEEEESaISC_EE12_Vector_implC2ERKSD_
FN:133,_ZNSt12_Vector_baseISt4pairINSt7__cxx1112basic_stringIcSt11char_traitsIcESaIcEEES6_ESaIS7_EE12_Vector_implC2ERKS8_
FNDA:0,_ZNSt12_Vector_baseISt4pairINSt7__cxx1112basic_stringIcSt11char_traitsIcESaIcEEES6_ESaIS7_EE12_Vector_implC2ERKS8_
FN:133,_ZNSt12_Vector_baseISt10shared_ptrIN5Catch8TestSpec7PatternEESaIS4_EE12_Vector_implC2ERKS5_
FNDA:4,_ZNSt12_Vector_baseISt10shared_ptrIN5Catch8TestSpec7PatternEESaIS4_EE12_Vector_implC2ERKS5_
FN:140,_ZNSt12_Vector_baseISt10shared_ptrIN5Catch8TestSpec7PatternEESaIS4_EE12_Vector_implC2EOS7_
FNDA:0,_ZNSt12_Vector_baseISt10shared_ptrIN5Catch8TestSpec7PatternEESaIS4_EE12_Vector_implC2EOS7_
FN:140,_ZNSt12_Vector_baseIcSaIcEE12_Vector_implC2EOS2_
FNDA:0,_ZNSt12_Vector_baseIcSaIcEE12_Vector_implC2EOS2_
FN:140,_ZNSt12_Vector_baseINSt7__cxx119sub_matchIN9__gnu_cxx17__normal_iteratorIPKcNS0_12basic_stringIcSt11char_traitsIcESaIcEEEEEEESaISC_EE12_Vector_implC2EOSF_
FNDA:0,_ZNSt12_Vector_baseINSt7__cxx119sub_matchIN9__gnu_cxx17__normal_iteratorIPKcNS0_12basic_stringIcSt11char_traitsIcESaIcEEEEEEESaISC_EE12_Vector_implC2EOSF_
FN:140,_ZNSt12_Vector_baseISt4pairINSt7__cxx1112basic_stringIcSt11char_traitsIcESaIcEEES6_ESaIS7_EE12_Vector_implC2EOSA_
FNDA:0,_ZNSt12_Vector_baseISt4pairINSt7__cxx1112basic_stringIcSt11char_traitsIcESaIcEEES6_ESaIS7_EE12_Vector_implC2EOSA_
FN:140,_ZNSt12_Vector_baseISt4pairIlSt6vectorINSt7__cxx119sub_matchIN9__gnu_cxx17__normal_iteratorIPKcNS2_12basic_stringIcSt11char_traitsIcESaIcEEEEEEESaISE_EEESaISH_EE12_Vector_implC2EOSK_
FNDA:0,_ZNSt12_Vector_baseISt4pairIlSt6vectorINSt7__cxx119sub_matchIN9__gnu_cxx17__normal_iteratorIPKcNS2_12basic_stringIcSt11char_traitsIcESaIcEEEEEEESaISE_EEESaISH_EE12_Vector_implC2EOSK_
FN:140,_ZNSt12_Vector_baseINSt7__cxx1112basic_stringIcSt11char_traitsIcESaIcEEESaIS5_EE12_Vector_implC2EOS8_
FNDA:331,_ZNSt12_Vector_baseINSt7__cxx1112basic_stringIcSt11char_traitsIcESaIcEEESaIS5_EE12_Vector_implC2EOS8_
FN:140,_ZNSt12_Vector_baseINSt7__cxx1112regex_traitsIcE10_RegexMaskESaIS3_EE12_Vector_implC2EOS6_
FNDA:0,_ZNSt12_Vector_baseINSt7__cxx1112regex_traitsIcE10_RegexMaskESaIS3_EE12_Vector_implC2EOS6_
FN:140,_ZNSt12_Vector_baseIN5Catch12_GLOBAL__N_110ColumnInfoESaIS2_EE12_Vector_implC2EOS5_
FNDA:1,_ZNSt12_Vector_baseIN5Catch12_GLOBAL__N_110ColumnInfoESaIS2_EE12_Vector_implC2EOS5_
FN:140,_ZNSt12_Vector_baseISt4pairIccESaIS1_EE12_Vector_implC2EOS4_
FNDA:0,_ZNSt12_Vector_baseISt4pairIccESaIS1_EE12_Vector_implC2EOS4_
FN:273,_ZNSt12_Vector_baseIN5Catch12_GLOBAL__N_110ColumnInfoESaIS2_EE19_M_get_Tp_allocatorEv
FNDA:4,_ZNSt12_Vector_baseIN5Catch12_GLOBAL__N_110ColumnInfoESaIS2_EE19_M_get_Tp_allocatorEv
FN:273,_ZNSt12_Vector_baseISt4pairIN9__gnu_cxx17__normal_iteratorIPKcNSt7__cxx1112basic_stringIcSt11char_traitsIcESaIcEEEEEiESaISC_EE19_M_get_Tp_allocatorEv
FNDA:0,_ZNSt12_Vector_baseISt4pairIN9__gnu_cxx17__normal_iteratorIPKcNSt7__cxx1112basic_stringIcSt11char_traitsIcESaIcEEEEEiESaISC_EE19_M_get_Tp_allocatorEv
FN:273,_ZNSt12_Vector_baseISt4pairIlSt6vectorINSt7__cxx119sub_matchIN9__gnu_cxx17__normal_iteratorIPKcNS2_12basic_stringIcSt11char_traitsIcESaIcEEEEEEESaISE_EEESaISH_EE19_M_get_Tp_allocatorEv
FNDA:0,_ZNSt12_Vector_baseISt4pairIlSt6vectorINSt7__cxx119sub_matchIN9__gnu_cxx17__normal_iteratorIPKcNS2_12basic_stringIcSt11char_traitsIcESaIcEEEEEEESaISE_EEESaISH_EE19_M_get_Tp_allocatorEv
FN:273,_ZNSt12_Vector_baseINSt7__cxx1112regex_traitsIcE10_RegexMaskESaIS3_EE19_M_get_Tp_allocatorEv
FNDA:0,_ZNSt12_Vector_baseINSt7__cxx1112regex_traitsIcE10_RegexMaskESaIS3_EE19_M_get_Tp_allocatorEv
FN:273,_ZNSt12_Vector_baseIPN5Catch16TestCaseTracking8ITrackerESaIS3_EE19_M_get_Tp_allocatorEv
FNDA:5,_ZNSt12_Vector_baseIPN5Catch16TestCaseTracking8ITrackerESaIS3_EE19_M_get_Tp_allocatorEv
FN:273,_ZNSt12_Vector_baseINSt7__cxx119sub_matchIN9__gnu_cxx17__normal_iteratorIPKcNS0_12basic_stringIcSt11char_traitsIcESaIcEEEEEEESaISC_EE19_M_get_Tp_allocatorEv
FNDA:0,_ZNSt12_Vector_baseINSt7__cxx119sub_matchIN9__gnu_cxx17__normal_iteratorIPKcNS0_12basic_stringIcSt11char_traitsIcESaIcEEEEEEESaISC_EE19_M_get_Tp_allocatorEv
FN:273,_ZNSt12_Vector_baseIN5Catch5clara6detail3ArgESaIS3_EE19_M_get_Tp_allocatorEv
FNDA:119,_ZNSt12_Vector_baseIN5Catch5clara6detail3ArgESaIS3_EE19_M_get_Tp_allocatorEv
FN:273,_ZNSt12_Vector_baseIN5Catch11SectionInfoESaIS1_EE19_M_get_Tp_allocatorEv
FNDA:7,_ZNSt12_Vector_baseIN5Catch11SectionInfoESaIS1_EE19_M_get_Tp_allocatorEv
FN:273,_ZNSt12_Vector_baseIN5Catch8TestSpec6FilterESaIS2_EE19_M_get_Tp_allocatorEv
FNDA:11,_ZNSt12_Vector_baseIN5Catch8TestSpec6FilterESaIS2_EE19_M_get_Tp_allocatorEv
FN:273,_ZNSt12_Vector_baseIN5Catch14SectionEndInfoESaIS1_EE19_M_get_Tp_allocatorEv
FNDA:1,_ZNSt12_Vector_baseIN5Catch14SectionEndInfoESaIS1_EE19_M_get_Tp_allocatorEv
FN:273,_ZNSt12_Vector_baseINSt8__detail6_StateIcEESaIS2_EE19_M_get_Tp_allocatorEv
FNDA:0,_ZNSt12_Vector_baseINSt8__detail6_StateIcEESaIS2_EE19_M_get_Tp_allocatorEv
FN:273,_ZNSt12_Vector_baseImSaImEE19_M_get_Tp_allocatorEv
FNDA:1,_ZNSt12_Vector_baseImSaImEE19_M_get_Tp_allocatorEv
FN:273,_ZNSt12_Vector_baseISt10shared_ptrIN5Catch8TestSpec7PatternEESaIS4_EE19_M_get_Tp_allocatorEv
FNDA:13,_ZNSt12_Vector_baseISt10shared_ptrIN5Catch8TestSpec7PatternEESaIS4_EE19_M_get_Tp_allocatorEv
FN:273,_ZNSt12_Vector_baseISt10unique_ptrIKN5Catch20IExceptionTranslatorESt14default_deleteIS3_EESaIS6_EE19_M_get_Tp_allocatorEv
FNDA:1,_ZNSt12_Vector_baseISt10unique_ptrIKN5Catch20IExceptionTranslatorESt14default_deleteIS3_EESaIS6_EE19_M_get_Tp_allocatorEv
FN:273,_ZNSt12_Vector_baseISt10shared_ptrIN5Catch16TestCaseTracking8ITrackerEESaIS4_EE19_M_get_Tp_allocatorEv
FNDA:46,_ZNSt12_Vector_baseISt10shared_ptrIN5Catch16TestCaseTracking8ITrackerEESaIS4_EE19_M_get_Tp_allocatorEv
FN:273,_ZNSt12_Vector_baseISt10shared_ptrIN5Catch16IReporterFactoryEESaIS3_EE19_M_get_Tp_allocatorEv
FNDA:1,_ZNSt12_Vector_baseISt10shared_ptrIN5Catch16IReporterFactoryEESaIS3_EE19_M_get_Tp_allocatorEv
FN:273,_ZNSt12_Vector_baseIN5Catch11MessageInfoESaIS1_EE19_M_get_Tp_allocatorEv
FNDA:1,_ZNSt12_Vector_baseIN5Catch11MessageInfoESaIS1_EE19_M_get_Tp_allocatorEv
FN:273,_ZNSt12_Vector_baseISt10unique_ptrINSt7__cxx1119basic_ostringstreamIcSt11char_traitsIcESaIcEEESt14default_deleteIS6_EESaIS9_EE19_M_get_Tp_allocatorEv
FNDA:0,_ZNSt12_Vector_baseISt10unique_ptrINSt7__cxx1119basic_ostringstreamIcSt11char_traitsIcESaIcEEESt14default_deleteIS6_EESaIS9_EE19_M_get_Tp_allocatorEv
FN:273,_ZNSt12_Vector_baseIN5Catch8TestCaseESaIS1_EE19_M_get_Tp_allocatorEv
FNDA:11,_ZNSt12_Vector_baseIN5Catch8TestCaseESaIS1_EE19_M_get_Tp_allocatorEv
FN:273,_ZNSt12_Vector_baseIPN5Catch10ISingletonESaIS2_EE19_M_get_Tp_allocatorEv
FNDA:4,_ZNSt12_Vector_baseIPN5Catch10ISingletonESaIS2_EE19_M_get_Tp_allocatorEv
FN:273,_ZNSt12_Vector_baseIN5Catch5clara6detail3OptESaIS3_EE19_M_get_Tp_allocatorEv
FNDA:169,_ZNSt12_Vector_baseIN5Catch5clara6detail3OptESaIS3_EE19_M_get_Tp_allocatorEv
FN:273,_ZNSt12_Vector_baseISt10shared_ptrIN5Catch22CumulativeReporterBaseINS1_13JunitReporterEE4NodeINS1_14TestGroupStatsENS5_INS1_13TestCaseStatsENS4_11SectionNodeEEEEEESaISB_EE19_M_get_Tp_allocatorEv
FNDA:0,_ZNSt12_Vector_baseISt10shared_ptrIN5Catch22CumulativeReporterBaseINS1_13JunitReporterEE4NodeINS1_14TestGroupStatsENS5_INS1_13TestCaseStatsENS4_11SectionNodeEEEEEESaISB_EE19_M_get_Tp_allocatorEv
FN:273,_ZNSt12_Vector_baseISt10shared_ptrIN5Catch22CumulativeReporterBaseINS1_13JunitReporterEE4NodeINS1_13TestCaseStatsENS4_11SectionNodeEEEESaIS9_EE19_M_get_Tp_allocatorEv
FNDA:0,_ZNSt12_Vector_baseISt10shared_ptrIN5Catch22CumulativeReporterBaseINS1_13JunitReporterEE4NodeINS1_13TestCaseStatsENS4_11SectionNodeEEEESaIS9_EE19_M_get_Tp_allocatorEv
FN:273,_ZNSt12_Vector_baseISt6vectorISt10shared_ptrIN5Catch22CumulativeReporterBaseINS2_13JunitReporterEE11SectionNodeEESaIS7_EESaIS9_EE19_M_get_Tp_allocatorEv
FNDA:0,_ZNSt12_Vector_baseISt6vectorISt10shared_ptrIN5Catch22CumulativeReporterBaseINS2_13JunitReporterEE11SectionNodeEESaIS7_EESaIS9_EE19_M_get_Tp_allocatorEv
FN:273,_ZNSt12_Vector_baseIN5Catch5clara6detail5TokenESaIS3_EE19_M_get_Tp_allocatorEv
FNDA:9,_ZNSt12_Vector_baseIN5Catch5clara6detail5TokenESaIS3_EE19_M_get_Tp_allocatorEv
FN:273,_ZNSt12_Vector_baseINSt7__cxx1112basic_stringIcSt11char_traitsIcESaIcEEESaIS5_EE19_M_get_Tp_allocatorEv
FNDA:2042,_ZNSt12_Vector_baseINSt7__cxx1112basic_stringIcSt11char_traitsIcESaIcEEESaIS5_EE19_M_get_Tp_allocatorEv
FN:273,_ZNSt12_Vector_baseIN5Catch14AssertionStatsESaIS1_EE19_M_get_Tp_allocatorEv
FNDA:0,_ZNSt12_Vector_baseIN5Catch14AssertionStatsESaIS1_EE19_M_get_Tp_allocatorEv
FN:273,_ZNSt12_Vector_baseISt4pairINSt7__cxx1112basic_stringIcSt11char_traitsIcESaIcEEES6_ESaIS7_EE19_M_get_Tp_allocatorEv
FNDA:0,_ZNSt12_Vector_baseISt4pairINSt7__cxx1112basic_stringIcSt11char_traitsIcESaIcEEES6_ESaIS7_EE19_M_get_Tp_allocatorEv
FN:273,_ZNSt12_Vector_baseISt10unique_ptrIN5Catch18IStreamingReporterESt14default_deleteIS2_EESaIS5_EE19_M_get_Tp_allocatorEv
FNDA:0,_ZNSt12_Vector_baseISt10unique_ptrIN5Catch18IStreamingReporterESt14default_deleteIS2_EESaIS5_EE19_M_get_Tp_allocatorEv
FN:273,_ZNSt12_Vector_baseIN5Catch5clara8TextFlow6ColumnESaIS3_EE19_M_get_Tp_allocatorEv
FNDA:0,_ZNSt12_Vector_baseIN5Catch5clara8TextFlow6ColumnESaIS3_EE19_M_get_Tp_allocatorEv
FN:273,_ZNSt12_Vector_baseISt10shared_ptrIN5Catch22CumulativeReporterBaseINS1_13JunitReporterEE4NodeINS1_12TestRunStatsENS5_INS1_14TestGroupStatsENS5_INS1_13TestCaseStatsENS4_11SectionNodeEEEEEEEESaISD_EE19_M_get_Tp_allocatorEv
FNDA:0,_ZNSt12_Vector_baseISt10shared_ptrIN5Catch22CumulativeReporterBaseINS1_13JunitReporterEE4NodeINS1_12TestRunStatsENS5_INS1_14TestGroupStatsENS5_INS1_13TestCaseStatsENS4_11SectionNodeEEEEEEEESaISD_EE19_M_get_Tp_allocatorEv
FN:273,_ZNSt12_Vector_baseINSt15__exception_ptr13exception_ptrESaIS1_EE19_M_get_Tp_allocatorEv
FNDA:1,_ZNSt12_Vector_baseINSt15__exception_ptr13exception_ptrESaIS1_EE19_M_get_Tp_allocatorEv
FN:273,_ZNSt12_Vector_baseIN5Catch5clara8TextFlow6Column8iteratorESaIS4_EE19_M_get_Tp_allocatorEv
FNDA:0,_ZNSt12_Vector_baseIN5Catch5clara8TextFlow6Column8iteratorESaIS4_EE19_M_get_Tp_allocatorEv
FN:273,_ZNSt12_Vector_baseISt10shared_ptrIN5Catch22CumulativeReporterBaseINS1_13JunitReporterEE11SectionNodeEESaIS6_EE19_M_get_Tp_allocatorEv
FNDA:0,_ZNSt12_Vector_baseISt10shared_ptrIN5Catch22CumulativeReporterBaseINS1_13JunitReporterEE11SectionNodeEESaIS6_EE19_M_get_Tp_allocatorEv
FN:273,_ZNSt12_Vector_baseISt4pairIccESaIS1_EE19_M_get_Tp_allocatorEv
FNDA:0,_ZNSt12_Vector_baseISt4pairIccESaIS1_EE19_M_get_Tp_allocatorEv
FN:273,_ZNSt12_Vector_baseIcSaIcEE19_M_get_Tp_allocatorEv
FNDA:0,_ZNSt12_Vector_baseIcSaIcEE19_M_get_Tp_allocatorEv
FN:273,_ZNSt12_Vector_baseIN5Catch5clara6detail11HelpColumnsESaIS3_EE19_M_get_Tp_allocatorEv
FNDA:0,_ZNSt12_Vector_baseIN5Catch5clara6detail11HelpColumnsESaIS3_EE19_M_get_Tp_allocatorEv
FN:273,_ZNSt12_Vector_baseIN5Catch13SummaryColumnESaIS1_EE19_M_get_Tp_allocatorEv
FNDA:0,_ZNSt12_Vector_baseIN5Catch13SummaryColumnESaIS1_EE19_M_get_Tp_allocatorEv
FN:277,_ZNKSt12_Vector_baseIN5Catch8TestSpec6FilterESaIS2_EE19_M_get_Tp_allocatorEv
FNDA:5,_ZNKSt12_Vector_baseIN5Catch8TestSpec6FilterESaIS2_EE19_M_get_Tp_allocatorEv
FN:277,_ZNKSt12_Vector_baseISt4pairIlSt6vectorINSt7__cxx119sub_matchIN9__gnu_cxx17__normal_iteratorIPKcNS2_12basic_stringIcSt11char_traitsIcESaIcEEEEEEESaISE_EEESaISH_EE19_M_get_Tp_allocatorEv
FNDA:0,_ZNKSt12_Vector_baseISt4pairIlSt6vectorINSt7__cxx119sub_matchIN9__gnu_cxx17__normal_iteratorIPKcNS2_12basic_stringIcSt11char_traitsIcESaIcEEEEEEESaISE_EEESaISH_EE19_M_get_Tp_allocatorEv
FN:277,_ZNKSt12_Vector_baseISt4pairINSt7__cxx1112basic_stringIcSt11char_traitsIcESaIcEEES6_ESaIS7_EE19_M_get_Tp_allocatorEv
FNDA:0,_ZNKSt12_Vector_baseISt4pairINSt7__cxx1112basic_stringIcSt11char_traitsIcESaIcEEES6_ESaIS7_EE19_M_get_Tp_allocatorEv
FN:277,_ZNKSt12_Vector_baseIN5Catch8TestCaseESaIS1_EE19_M_get_Tp_allocatorEv
FNDA:6,_ZNKSt12_Vector_baseIN5Catch8TestCaseESaIS1_EE19_M_get_Tp_allocatorEv
FN:277,_ZNKSt12_Vector_baseISt10shared_ptrIN5Catch16TestCaseTracking8ITrackerEESaIS4_EE19_M_get_Tp_allocatorEv
FNDA:24,_ZNKSt12_Vector_baseISt10shared_ptrIN5Catch16TestCaseTracking8ITrackerEESaIS4_EE19_M_get_Tp_allocatorEv
FN:277,_ZNKSt12_Vector_baseINSt15__exception_ptr13exception_ptrESaIS1_EE19_M_get_Tp_allocatorEv
FNDA:0,_ZNKSt12_Vector_baseINSt15__exception_ptr13exception_ptrESaIS1_EE19_M_get_Tp_allocatorEv
FN:277,_ZNKSt12_Vector_baseIPN5Catch10ISingletonESaIS2_EE19_M_get_Tp_allocatorEv
FNDA:2,_ZNKSt12_Vector_baseIPN5Catch10ISingletonESaIS2_EE19_M_get_Tp_allocatorEv
FN:277,_ZNKSt12_Vector_baseIN5Catch14SectionEndInfoESaIS1_EE19_M_get_Tp_allocatorEv
FNDA:0,_ZNKSt12_Vector_baseIN5Catch14SectionEndInfoESaIS1_EE19_M_get_Tp_allocatorEv
FN:277,_ZNKSt12_Vector_baseISt10shared_ptrIN5Catch16IReporterFactoryEESaIS3_EE19_M_get_Tp_allocatorEv
FNDA:0,_ZNKSt12_Vector_baseISt10shared_ptrIN5Catch16IReporterFactoryEESaIS3_EE19_M_get_Tp_allocatorEv
FN:277,_ZNKSt12_Vector_baseINSt7__cxx119sub_matchIN9__gnu_cxx17__normal_iteratorIPKcNS0_12basic_stringIcSt11char_traitsIcESaIcEEEEEEESaISC_EE19_M_get_Tp_allocatorEv
FNDA:0,_ZNKSt12_Vector_baseINSt7__cxx119sub_matchIN9__gnu_cxx17__normal_iteratorIPKcNS0_12basic_stringIcSt11char_traitsIcESaIcEEEEEEESaISC_EE19_M_get_Tp_allocatorEv
FN:277,_ZNKSt12_Vector_baseImSaImEE19_M_get_Tp_allocatorEv
FNDA:0,_ZNKSt12_Vector_baseImSaImEE19_M_get_Tp_allocatorEv
FN:277,_ZNKSt12_Vector_baseIN5Catch5clara6detail3ArgESaIS3_EE19_M_get_Tp_allocatorEv
FNDA:59,_ZNKSt12_Vector_baseIN5Catch5clara6detail3ArgESaIS3_EE19_M_get_Tp_allocatorEv
FN:277,_ZNKSt12_Vector_baseISt10shared_ptrIN5Catch22CumulativeReporterBaseINS1_13JunitReporterEE4NodeINS1_12TestRunStatsENS5_INS1_14TestGroupStatsENS5_INS1_13TestCaseStatsENS4_11SectionNodeEEEEEEEESaISD_EE19_M_get_Tp_allocatorEv
FNDA:0,_ZNKSt12_Vector_baseISt10shared_ptrIN5Catch22CumulativeReporterBaseINS1_13JunitReporterEE4NodeINS1_12TestRunStatsENS5_INS1_14TestGroupStatsENS5_INS1_13TestCaseStatsENS4_11SectionNodeEEEEEEEESaISD_EE19_M_get_Tp_allocatorEv
FN:277,_ZNKSt12_Vector_baseIcSaIcEE19_M_get_Tp_allocatorEv
FNDA:0,_ZNKSt12_Vector_baseIcSaIcEE19_M_get_Tp_allocatorEv
FN:277,_ZNKSt12_Vector_baseISt4pairIccESaIS1_EE19_M_get_Tp_allocatorEv
FNDA:0,_ZNKSt12_Vector_baseISt4pairIccESaIS1_EE19_M_get_Tp_allocatorEv
FN:277,_ZNKSt12_Vector_baseINSt7__cxx1112regex_traitsIcE10_RegexMaskESaIS3_EE19_M_get_Tp_allocatorEv
FNDA:0,_ZNKSt12_Vector_baseINSt7__cxx1112regex_traitsIcE10_RegexMaskESaIS3_EE19_M_get_Tp_allocatorEv
FN:277,_ZNKSt12_Vector_baseIN5Catch5clara6detail3OptESaIS3_EE19_M_get_Tp_allocatorEv
FNDA:109,_ZNKSt12_Vector_baseIN5Catch5clara6detail3OptESaIS3_EE19_M_get_Tp_allocatorEv
FN:277,_ZNKSt12_Vector_baseIN5Catch11MessageInfoESaIS1_EE19_M_get_Tp_allocatorEv
FNDA:0,_ZNKSt12_Vector_baseIN5Catch11MessageInfoESaIS1_EE19_M_get_Tp_allocatorEv
FN:277,_ZNKSt12_Vector_baseISt10unique_ptrIKN5Catch20IExceptionTranslatorESt14default_deleteIS3_EESaIS6_EE19_M_get_Tp_allocatorEv
FNDA:0,_ZNKSt12_Vector_baseISt10unique_ptrIKN5Catch20IExceptionTranslatorESt14default_deleteIS3_EESaIS6_EE19_M_get_Tp_allocatorEv
FN:277,_ZNKSt12_Vector_baseIN5Catch5clara6detail11HelpColumnsESaIS3_EE19_M_get_Tp_allocatorEv
FNDA:0,_ZNKSt12_Vector_baseIN5Catch5clara6detail11HelpColumnsESaIS3_EE19_M_get_Tp_allocatorEv
FN:277,_ZNKSt12_Vector_baseINSt7__cxx1112basic_stringIcSt11char_traitsIcESaIcEEESaIS5_EE19_M_get_Tp_allocatorEv
FNDA:870,_ZNKSt12_Vector_baseINSt7__cxx1112basic_stringIcSt11char_traitsIcESaIcEEESaIS5_EE19_M_get_Tp_allocatorEv
FN:277,_ZNKSt12_Vector_baseIN5Catch5clara6detail5TokenESaIS3_EE19_M_get_Tp_allocatorEv
FNDA:4,_ZNKSt12_Vector_baseIN5Catch5clara6detail5TokenESaIS3_EE19_M_get_Tp_allocatorEv
FN:277,_ZNKSt12_Vector_baseISt10shared_ptrIN5Catch8TestSpec7PatternEESaIS4_EE19_M_get_Tp_allocatorEv
FNDA:6,_ZNKSt12_Vector_baseISt10shared_ptrIN5Catch8TestSpec7PatternEESaIS4_EE19_M_get_Tp_allocatorEv
FN:277,_ZNKSt12_Vector_baseIPN5Catch16TestCaseTracking8ITrackerESaIS3_EE19_M_get_Tp_allocatorEv
FNDA:4,_ZNKSt12_Vector_baseIPN5Catch16TestCaseTracking8ITrackerESaIS3_EE19_M_get_Tp_allocatorEv
FN:277,_ZNKSt12_Vector_baseISt10unique_ptrINSt7__cxx1119basic_ostringstreamIcSt11char_traitsIcESaIcEEESt14default_deleteIS6_EESaIS9_EE19_M_get_Tp_allocatorEv
FNDA:0,_ZNKSt12_Vector_baseISt10unique_ptrINSt7__cxx1119basic_ostringstreamIcSt11char_traitsIcESaIcEEESt14default_deleteIS6_EESaIS9_EE19_M_get_Tp_allocatorEv
FN:277,_ZNKSt12_Vector_baseIN5Catch11SectionInfoESaIS1_EE19_M_get_Tp_allocatorEv
FNDA:6,_ZNKSt12_Vector_baseIN5Catch11SectionInfoESaIS1_EE19_M_get_Tp_allocatorEv
FN:277,_ZNKSt12_Vector_baseINSt8__detail6_StateIcEESaIS2_EE19_M_get_Tp_allocatorEv
FNDA:0,_ZNKSt12_Vector_baseINSt8__detail6_StateIcEESaIS2_EE19_M_get_Tp_allocatorEv
FN:277,_ZNKSt12_Vector_baseIN5Catch13SummaryColumnESaIS1_EE19_M_get_Tp_allocatorEv
FNDA:0,_ZNKSt12_Vector_baseIN5Catch13SummaryColumnESaIS1_EE19_M_get_Tp_allocatorEv
FN:277,_ZNKSt12_Vector_baseIN5Catch14AssertionStatsESaIS1_EE19_M_get_Tp_allocatorEv
FNDA:0,_ZNKSt12_Vector_baseIN5Catch14AssertionStatsESaIS1_EE19_M_get_Tp_allocatorEv
FN:277,_ZNKSt12_Vector_baseIN5Catch5clara8TextFlow6ColumnESaIS3_EE19_M_get_Tp_allocatorEv
FNDA:0,_ZNKSt12_Vector_baseIN5Catch5clara8TextFlow6ColumnESaIS3_EE19_M_get_Tp_allocatorEv
FN:277,_ZNKSt12_Vector_baseISt10shared_ptrIN5Catch22CumulativeReporterBaseINS1_13JunitReporterEE11SectionNodeEESaIS6_EE19_M_get_Tp_allocatorEv
FNDA:0,_ZNKSt12_Vector_baseISt10shared_ptrIN5Catch22CumulativeReporterBaseINS1_13JunitReporterEE11SectionNodeEESaIS6_EE19_M_get_Tp_allocatorEv
FN:277,_ZNKSt12_Vector_baseISt10shared_ptrIN5Catch22CumulativeReporterBaseINS1_13JunitReporterEE4NodeINS1_13TestCaseStatsENS4_11SectionNodeEEEESaIS9_EE19_M_get_Tp_allocatorEv
FNDA:0,_ZNKSt12_Vector_baseISt10shared_ptrIN5Catch22CumulativeReporterBaseINS1_13JunitReporterEE4NodeINS1_13TestCaseStatsENS4_11SectionNodeEEEESaIS9_EE19_M_get_Tp_allocatorEv
FN:277,_ZNKSt12_Vector_baseIN5Catch5clara8TextFlow6Column8iteratorESaIS4_EE19_M_get_Tp_allocatorEv
FNDA:0,_ZNKSt12_Vector_baseIN5Catch5clara8TextFlow6Column8iteratorESaIS4_EE19_M_get_Tp_allocatorEv
FN:277,_ZNKSt12_Vector_baseISt10shared_ptrIN5Catch22CumulativeReporterBaseINS1_13JunitReporterEE4NodeINS1_14TestGroupStatsENS5_INS1_13TestCaseStatsENS4_11SectionNodeEEEEEESaISB_EE19_M_get_Tp_allocatorEv
FNDA:0,_ZNKSt12_Vector_baseISt10shared_ptrIN5Catch22CumulativeReporterBaseINS1_13JunitReporterEE4NodeINS1_14TestGroupStatsENS5_INS1_13TestCaseStatsENS4_11SectionNodeEEEEEESaISB_EE19_M_get_Tp_allocatorEv
FN:277,_ZNKSt12_Vector_baseISt10unique_ptrIN5Catch18IStreamingReporterESt14default_deleteIS2_EESaIS5_EE19_M_get_Tp_allocatorEv
FNDA:0,_ZNKSt12_Vector_baseISt10unique_ptrIN5Catch18IStreamingReporterESt14default_deleteIS2_EESaIS5_EE19_M_get_Tp_allocatorEv
FN:281,_ZNKSt12_Vector_baseINSt7__cxx1112basic_stringIcSt11char_traitsIcESaIcEEESaIS5_EE13get_allocatorEv
FNDA:2,_ZNKSt12_Vector_baseINSt7__cxx1112basic_stringIcSt11char_traitsIcESaIcEEESaIS5_EE13get_allocatorEv
FN:281,_ZNKSt12_Vector_baseINSt7__cxx119sub_matchIN9__gnu_cxx17__normal_iteratorIPKcNS0_12basic_stringIcSt11char_traitsIcESaIcEEEEEEESaISC_EE13get_allocatorEv
FNDA:0,_ZNKSt12_Vector_baseINSt7__cxx119sub_matchIN9__gnu_cxx17__normal_iteratorIPKcNS0_12basic_stringIcSt11char_traitsIcESaIcEEEEEEESaISC_EE13get_allocatorEv
FN:281,_ZNKSt12_Vector_baseIN5Catch5clara6detail3ArgESaIS3_EE13get_allocatorEv
FNDA:1,_ZNKSt12_Vector_baseIN5Catch5clara6detail3ArgESaIS3_EE13get_allocatorEv
FN:281,_ZNKSt12_Vector_baseIN5Catch8TestCaseESaIS1_EE13get_allocatorEv
FNDA:1,_ZNKSt12_Vector_baseIN5Catch8TestCaseESaIS1_EE13get_allocatorEv
FN:281,_ZNKSt12_Vector_baseIN5Catch5clara6detail3OptESaIS3_EE13get_allocatorEv
FNDA:1,_ZNKSt12_Vector_baseIN5Catch5clara6detail3OptESaIS3_EE13get_allocatorEv
FN:281,_ZNKSt12_Vector_baseIN5Catch8TestSpec6FilterESaIS2_EE13get_allocatorEv
FNDA:1,_ZNKSt12_Vector_baseIN5Catch8TestSpec6FilterESaIS2_EE13get_allocatorEv
FN:281,_ZNKSt12_Vector_baseISt10shared_ptrIN5Catch8TestSpec7PatternEESaIS4_EE13get_allocatorEv
FNDA:1,_ZNKSt12_Vector_baseISt10shared_ptrIN5Catch8TestSpec7PatternEESaIS4_EE13get_allocatorEv
FN:285,_ZNSt12_Vector_baseINSt7__cxx1112basic_stringIcSt11char_traitsIcESaIcEEESaIS5_EEC2Ev
FNDA:56,_ZNSt12_Vector_baseINSt7__cxx1112basic_stringIcSt11char_traitsIcESaIcEEESaIS5_EEC2Ev
FN:285,_ZNSt12_Vector_baseINSt7__cxx119sub_matchIN9__gnu_cxx17__normal_iteratorIPKcNS0_12basic_stringIcSt11char_traitsIcESaIcEEEEEEESaISC_EEC2Ev
FNDA:0,_ZNSt12_Vector_baseINSt7__cxx119sub_matchIN9__gnu_cxx17__normal_iteratorIPKcNS0_12basic_stringIcSt11char_traitsIcESaIcEEEEEEESaISC_EEC2Ev
FN:285,_ZNSt12_Vector_baseISt10unique_ptrINSt7__cxx1119basic_ostringstreamIcSt11char_traitsIcESaIcEEESt14default_deleteIS6_EESaIS9_EEC2Ev
FNDA:0,_ZNSt12_Vector_baseISt10unique_ptrINSt7__cxx1119basic_ostringstreamIcSt11char_traitsIcESaIcEEESt14default_deleteIS6_EESaIS9_EEC2Ev
FN:285,_ZNSt12_Vector_baseISt4pairIlSt6vectorINSt7__cxx119sub_matchIN9__gnu_cxx17__normal_iteratorIPKcNS2_12basic_stringIcSt11char_traitsIcESaIcEEEEEEESaISE_EEESaISH_EEC2Ev
FNDA:0,_ZNSt12_Vector_baseISt4pairIlSt6vectorINSt7__cxx119sub_matchIN9__gnu_cxx17__normal_iteratorIPKcNS2_12basic_stringIcSt11char_traitsIcESaIcEEEEEEESaISE_EEESaISH_EEC2Ev
FN:285,_ZNSt12_Vector_baseISt4pairINSt7__cxx1112basic_stringIcSt11char_traitsIcESaIcEEES6_ESaIS7_EEC2Ev
FNDA:0,_ZNSt12_Vector_baseISt4pairINSt7__cxx1112basic_stringIcSt11char_traitsIcESaIcEEES6_ESaIS7_EEC2Ev
FN:285,_ZNSt12_Vector_baseINSt7__cxx1112regex_traitsIcE10_RegexMaskESaIS3_EEC2Ev
FNDA:0,_ZNSt12_Vector_baseINSt7__cxx1112regex_traitsIcE10_RegexMaskESaIS3_EEC2Ev
FN:285,_ZNSt12_Vector_baseIPN5Catch16TestCaseTracking8ITrackerESaIS3_EEC2Ev
FNDA:1,_ZNSt12_Vector_baseIPN5Catch16TestCaseTracking8ITrackerESaIS3_EEC2Ev
FN:285,_ZNSt12_Vector_baseISt4pairIccESaIS1_EEC2Ev
FNDA:0,_ZNSt12_Vector_baseISt4pairIccESaIS1_EEC2Ev
FN:285,_ZNSt12_Vector_baseIN5Catch13SummaryColumnESaIS1_EEC2Ev
FNDA:0,_ZNSt12_Vector_baseIN5Catch13SummaryColumnESaIS1_EEC2Ev
FN:285,_ZNSt12_Vector_baseIcSaIcEEC2Ev
FNDA:0,_ZNSt12_Vector_baseIcSaIcEEC2Ev
FN:285,_ZNSt12_Vector_baseIN5Catch14SectionEndInfoESaIS1_EEC2Ev
FNDA:1,_ZNSt12_Vector_baseIN5Catch14SectionEndInfoESaIS1_EEC2Ev
FN:285,_ZNSt12_Vector_baseIN5Catch5clara6detail3OptESaIS3_EEC2Ev
FNDA:2,_ZNSt12_Vector_baseIN5Catch5clara6detail3OptESaIS3_EEC2Ev
FN:285,_ZNSt12_Vector_baseIN5Catch11SectionInfoESaIS1_EEC2Ev
FNDA:1,_ZNSt12_Vector_baseIN5Catch11SectionInfoESaIS1_EEC2Ev
FN:285,_ZNSt12_Vector_baseIN5Catch11MessageInfoESaIS1_EEC2Ev
FNDA:1,_ZNSt12_Vector_baseIN5Catch11MessageInfoESaIS1_EEC2Ev
FN:285,_ZNSt12_Vector_baseISt10shared_ptrIN5Catch8TestSpec7PatternEESaIS4_EEC2Ev
FNDA:2,_ZNSt12_Vector_baseISt10shared_ptrIN5Catch8TestSpec7PatternEESaIS4_EEC2Ev
FN:285,_ZNSt12_Vector_baseISt10shared_ptrIN5Catch16TestCaseTracking8ITrackerEESaIS4_EEC2Ev
FNDA:22,_ZNSt12_Vector_baseISt10shared_ptrIN5Catch16TestCaseTracking8ITrackerEESaIS4_EEC2Ev
FN:285,_ZNSt12_Vector_baseImSaImEEC2Ev
FNDA:1,_ZNSt12_Vector_baseImSaImEEC2Ev
FN:285,_ZNSt12_Vector_baseINSt8__detail6_StateIcEESaIS2_EEC2Ev
FNDA:0,_ZNSt12_Vector_baseINSt8__detail6_StateIcEESaIS2_EEC2Ev
FN:285,_ZNSt12_Vector_baseISt10unique_ptrIN5Catch18IStreamingReporterESt14default_deleteIS2_EESaIS5_EEC2Ev
FNDA:0,_ZNSt12_Vector_baseISt10unique_ptrIN5Catch18IStreamingReporterESt14default_deleteIS2_EESaIS5_EEC2Ev
FN:285,_ZNSt12_Vector_baseIN5Catch8TestSpec6FilterESaIS2_EEC2Ev
FNDA:2,_ZNSt12_Vector_baseIN5Catch8TestSpec6FilterESaIS2_EEC2Ev
FN:285,_ZNSt12_Vector_baseISt10shared_ptrIN5Catch22CumulativeReporterBaseINS1_13JunitReporterEE11SectionNodeEESaIS6_EEC2Ev
FNDA:0,_ZNSt12_Vector_baseISt10shared_ptrIN5Catch22CumulativeReporterBaseINS1_13JunitReporterEE11SectionNodeEESaIS6_EEC2Ev
FN:285,_ZNSt12_Vector_baseISt10shared_ptrIN5Catch22CumulativeReporterBaseINS1_13JunitReporterEE4NodeINS1_13TestCaseStatsENS4_11SectionNodeEEEESaIS9_EEC2Ev
FNDA:0,_ZNSt12_Vector_baseISt10shared_ptrIN5Catch22CumulativeReporterBaseINS1_13JunitReporterEE4NodeINS1_13TestCaseStatsENS4_11SectionNodeEEEESaIS9_EEC2Ev
FN:285,_ZNSt12_Vector_baseIPN5Catch10ISingletonESaIS2_EEC2Ev
FNDA:2,_ZNSt12_Vector_baseIPN5Catch10ISingletonESaIS2_EEC2Ev
FN:285,_ZNSt12_Vector_baseISt10shared_ptrIN5Catch22CumulativeReporterBaseINS1_13JunitReporterEE4NodeINS1_14TestGroupStatsENS5_INS1_13TestCaseStatsENS4_11SectionNodeEEEEEESaISB_EEC2Ev
FNDA:0,_ZNSt12_Vector_baseISt10shared_ptrIN5Catch22CumulativeReporterBaseINS1_13JunitReporterEE4NodeINS1_14TestGroupStatsENS5_INS1_13TestCaseStatsENS4_11SectionNodeEEEEEESaISB_EEC2Ev
FN:285,_ZNSt12_Vector_baseISt10shared_ptrIN5Catch22CumulativeReporterBaseINS1_13JunitReporterEE4NodeINS1_12TestRunStatsENS5_INS1_14TestGroupStatsENS5_INS1_13TestCaseStatsENS4_11SectionNodeEEEEEEEESaISD_EEC2Ev
FNDA:0,_ZNSt12_Vector_baseISt10shared_ptrIN5Catch22CumulativeReporterBaseINS1_13JunitReporterEE4NodeINS1_12TestRunStatsENS5_INS1_14TestGroupStatsENS5_INS1_13TestCaseStatsENS4_11SectionNodeEEEEEEEESaISD_EEC2Ev
FN:285,_ZNSt12_Vector_baseIN5Catch5clara8TextFlow6Column8iteratorESaIS4_EEC2Ev
FNDA:0,_ZNSt12_Vector_baseIN5Catch5clara8TextFlow6Column8iteratorESaIS4_EEC2Ev
FN:285,_ZNSt12_Vector_baseIN5Catch5clara8TextFlow6ColumnESaIS3_EEC2Ev
FNDA:0,_ZNSt12_Vector_baseIN5Catch5clara8TextFlow6ColumnESaIS3_EEC2Ev
FN:285,_ZNSt12_Vector_baseIN5Catch5clara6detail5TokenESaIS3_EEC2Ev
FNDA:1,_ZNSt12_Vector_baseIN5Catch5clara6detail5TokenESaIS3_EEC2Ev
FN:285,_ZNSt12_Vector_baseIN5Catch5clara6detail11HelpColumnsESaIS3_EEC2Ev
FNDA:0,_ZNSt12_Vector_baseIN5Catch5clara6detail11HelpColumnsESaIS3_EEC2Ev
FN:285,_ZNSt12_Vector_baseIN5Catch14AssertionStatsESaIS1_EEC2Ev
FNDA:0,_ZNSt12_Vector_baseIN5Catch14AssertionStatsESaIS1_EEC2Ev
FN:285,_ZNSt12_Vector_baseINSt15__exception_ptr13exception_ptrESaIS1_EEC2Ev
FNDA:1,_ZNSt12_Vector_baseINSt15__exception_ptr13exception_ptrESaIS1_EEC2Ev
FN:285,_ZNSt12_Vector_baseISt10unique_ptrIKN5Catch20IExceptionTranslatorESt14default_deleteIS3_EESaIS6_EEC2Ev
FNDA:1,_ZNSt12_Vector_baseISt10unique_ptrIKN5Catch20IExceptionTranslatorESt14default_deleteIS3_EESaIS6_EEC2Ev
FN:285,_ZNSt12_Vector_baseISt10shared_ptrIN5Catch16IReporterFactoryEESaIS3_EEC2Ev
FNDA:1,_ZNSt12_Vector_baseISt10shared_ptrIN5Catch16IReporterFactoryEESaIS3_EEC2Ev
FN:285,_ZNSt12_Vector_baseIN5Catch8TestCaseESaIS1_EEC2Ev
FNDA:2,_ZNSt12_Vector_baseIN5Catch8TestCaseESaIS1_EEC2Ev
FN:285,_ZNSt12_Vector_baseISt6vectorISt10shared_ptrIN5Catch22CumulativeReporterBaseINS2_13JunitReporterEE11SectionNodeEESaIS7_EESaIS9_EEC2Ev
FNDA:0,_ZNSt12_Vector_baseISt6vectorISt10shared_ptrIN5Catch22CumulativeReporterBaseINS2_13JunitReporterEE11SectionNodeEESaIS7_EESaIS9_EEC2Ev
FN:285,_ZNSt12_Vector_baseIN5Catch5clara6detail3ArgESaIS3_EEC2Ev
FNDA:2,_ZNSt12_Vector_baseIN5Catch5clara6detail3ArgESaIS3_EEC2Ev
FN:290,_ZNSt12_Vector_baseIN5Catch5clara6detail11HelpColumnsESaIS3_EEC2ERKS4_
FNDA:0,_ZNSt12_Vector_baseIN5Catch5clara6detail11HelpColumnsESaIS3_EEC2ERKS4_
FN:290,_ZNSt12_Vector_baseIN5Catch8TestCaseESaIS1_EEC2ERKS2_
FNDA:1,_ZNSt12_Vector_baseIN5Catch8TestCaseESaIS1_EEC2ERKS2_
FN:290,_ZNSt12_Vector_baseINSt7__cxx119sub_matchIN9__gnu_cxx17__normal_iteratorIPKcNS0_12basic_stringIcSt11char_traitsIcESaIcEEEEEEESaISC_EEC2ERKSD_
FNDA:0,_ZNSt12_Vector_baseINSt7__cxx119sub_matchIN9__gnu_cxx17__normal_iteratorIPKcNS0_12basic_stringIcSt11char_traitsIcESaIcEEEEEEESaISC_EEC2ERKSD_
FN:290,_ZNSt12_Vector_baseIN5Catch12_GLOBAL__N_110ColumnInfoESaIS2_EEC2ERKS3_
FNDA:1,_ZNSt12_Vector_baseIN5Catch12_GLOBAL__N_110ColumnInfoESaIS2_EEC2ERKS3_
FN:290,_ZNSt12_Vector_baseIN5Catch5clara6detail3ArgESaIS3_EEC2ERKS4_
FNDA:1,_ZNSt12_Vector_baseIN5Catch5clara6detail3ArgESaIS3_EEC2ERKS4_
FN:290,_ZNSt12_Vector_baseIN5Catch5clara6detail3OptESaIS3_EEC2ERKS4_
FNDA:1,_ZNSt12_Vector_baseIN5Catch5clara6detail3OptESaIS3_EEC2ERKS4_
FN:290,_ZNSt12_Vector_baseINSt7__cxx1112basic_stringIcSt11char_traitsIcESaIcEEESaIS5_EEC2ERKS6_
FNDA:3,_ZNSt12_Vector_baseINSt7__cxx1112basic_stringIcSt11char_traitsIcESaIcEEESaIS5_EEC2ERKS6_
FN:290,_ZNSt12_Vector_baseISt10shared_ptrIN5Catch8TestSpec7PatternEESaIS4_EEC2ERKS5_
FNDA:1,_ZNSt12_Vector_baseISt10shared_ptrIN5Catch8TestSpec7PatternEESaIS4_EEC2ERKS5_
FN:290,_ZNSt12_Vector_baseIN5Catch8TestSpec6FilterESaIS2_EEC2ERKS3_
FNDA:1,_ZNSt12_Vector_baseIN5Catch8TestSpec6FilterESaIS2_EEC2ERKS3_
FN:290,_ZNSt12_Vector_baseIcSaIcEEC2ERKS0_
FNDA:0,_ZNSt12_Vector_baseIcSaIcEEC2ERKS0_
FN:300,_ZNSt12_Vector_baseINSt7__cxx119sub_matchIN9__gnu_cxx17__normal_iteratorIPKcNS0_12basic_stringIcSt11char_traitsIcESaIcEEEEEEESaISC_EEC2EmRKSD_
FNDA:0,_ZNSt12_Vector_baseINSt7__cxx119sub_matchIN9__gnu_cxx17__normal_iteratorIPKcNS0_12basic_stringIcSt11char_traitsIcESaIcEEEEEEESaISC_EEC2EmRKSD_
FN:300,_ZNSt12_Vector_baseIN5Catch5clara6detail3ArgESaIS3_EEC2EmRKS4_
FNDA:56,_ZNSt12_Vector_baseIN5Catch5clara6detail3ArgESaIS3_EEC2EmRKS4_
FN:300,_ZNSt12_Vector_baseIN5Catch5clara6detail5TokenESaIS3_EEC2EmRKS4_
FNDA:4,_ZNSt12_Vector_baseIN5Catch5clara6detail5TokenESaIS3_EEC2EmRKS4_
FN:300,_ZNSt12_Vector_baseIN5Catch5clara8TextFlow6ColumnESaIS3_EEC2EmRKS4_
FNDA:0,_ZNSt12_Vector_baseIN5Catch5clara8TextFlow6ColumnESaIS3_EEC2EmRKS4_
FN:300,_ZNSt12_Vector_baseISt10shared_ptrIN5Catch8TestSpec7PatternEESaIS4_EEC2EmRKS5_
FNDA:3,_ZNSt12_Vector_baseISt10shared_ptrIN5Catch8TestSpec7PatternEESaIS4_EEC2EmRKS5_
FN:300,_ZNSt12_Vector_baseIN5Catch5clara6detail3OptESaIS3_EEC2EmRKS4_
FNDA:56,_ZNSt12_Vector_baseIN5Catch5clara6detail3OptESaIS3_EEC2EmRKS4_
FN:300,_ZNSt12_Vector_baseIcSaIcEEC2EmRKS0_
FNDA:0,_ZNSt12_Vector_baseIcSaIcEEC2EmRKS0_
FN:300,_ZNSt12_Vector_baseISt4pairIN9__gnu_cxx17__normal_iteratorIPKcNSt7__cxx1112basic_stringIcSt11char_traitsIcESaIcEEEEEiESaISC_EEC2EmRKSD_
FNDA:0,_ZNSt12_Vector_baseISt4pairIN9__gnu_cxx17__normal_iteratorIPKcNSt7__cxx1112basic_stringIcSt11char_traitsIcESaIcEEEEEiESaISC_EEC2EmRKSD_
FN:300,_ZNSt12_Vector_baseIN5Catch8TestSpec6FilterESaIS2_EEC2EmRKS3_
FNDA:2,_ZNSt12_Vector_baseIN5Catch8TestSpec6FilterESaIS2_EEC2EmRKS3_
FN:300,_ZNSt12_Vector_baseIN5Catch11MessageInfoESaIS1_EEC2EmRKS2_
FNDA:0,_ZNSt12_Vector_baseIN5Catch11MessageInfoESaIS1_EEC2EmRKS2_
FN:300,_ZNSt12_Vector_baseISt4pairIccESaIS1_EEC2EmRKS2_
FNDA:0,_ZNSt12_Vector_baseISt4pairIccESaIS1_EEC2EmRKS2_
FN:300,_ZNSt12_Vector_baseIN5Catch8TestCaseESaIS1_EEC2EmRKS2_
FNDA:1,_ZNSt12_Vector_baseIN5Catch8TestCaseESaIS1_EEC2EmRKS2_
FN:300,_ZNSt12_Vector_baseINSt7__cxx1112regex_traitsIcE10_RegexMaskESaIS3_EEC2EmRKS4_
FNDA:0,_ZNSt12_Vector_baseINSt7__cxx1112regex_traitsIcE10_RegexMaskESaIS3_EEC2EmRKS4_
FN:300,_ZNSt12_Vector_baseISt4pairINSt7__cxx1112basic_stringIcSt11char_traitsIcESaIcEEES6_ESaIS7_EEC2EmRKS8_
FNDA:0,_ZNSt12_Vector_baseISt4pairINSt7__cxx1112basic_stringIcSt11char_traitsIcESaIcEEES6_ESaIS7_EEC2EmRKS8_
FN:300,_ZNSt12_Vector_baseINSt7__cxx1112basic_stringIcSt11char_traitsIcESaIcEEESaIS5_EEC2EmRKS6_
FNDA:778,_ZNSt12_Vector_baseINSt7__cxx1112basic_stringIcSt11char_traitsIcESaIcEEESaIS5_EEC2EmRKS6_
FN:305,_ZNSt12_Vector_baseIN5Catch12_GLOBAL__N_110ColumnInfoESaIS2_EEC2EOS4_
FNDA:1,_ZNSt12_Vector_baseIN5Catch12_GLOBAL__N_110ColumnInfoESaIS2_EEC2EOS4_
FN:305,_ZNSt12_Vector_baseIcSaIcEEC2EOS1_
FNDA:0,_ZNSt12_Vector_baseIcSaIcEEC2EOS1_
FN:305,_ZNSt12_Vector_baseINSt7__cxx119sub_matchIN9__gnu_cxx17__normal_iteratorIPKcNS0_12basic_stringIcSt11char_traitsIcESaIcEEEEEEESaISC_EEC2EOSE_
FNDA:0,_ZNSt12_Vector_baseINSt7__cxx119sub_matchIN9__gnu_cxx17__normal_iteratorIPKcNS0_12basic_stringIcSt11char_traitsIcESaIcEEEEEEESaISC_EEC2EOSE_
FN:305,_ZNSt12_Vector_baseISt4pairIccESaIS1_EEC2EOS3_
FNDA:0,_ZNSt12_Vector_baseISt4pairIccESaIS1_EEC2EOS3_
FN:305,_ZNSt12_Vector_baseINSt7__cxx1112regex_traitsIcE10_RegexMaskESaIS3_EEC2EOS5_
FNDA:0,_ZNSt12_Vector_baseINSt7__cxx1112regex_traitsIcE10_RegexMaskESaIS3_EEC2EOS5_
FN:305,_ZNSt12_Vector_baseISt4pairINSt7__cxx1112basic_stringIcSt11char_traitsIcESaIcEEES6_ESaIS7_EEC2EOS9_
FNDA:0,_ZNSt12_Vector_baseISt4pairINSt7__cxx1112basic_stringIcSt11char_traitsIcESaIcEEES6_ESaIS7_EEC2EOS9_
FN:305,_ZNSt12_Vector_baseISt10shared_ptrIN5Catch8TestSpec7PatternEESaIS4_EEC2EOS6_
FNDA:0,_ZNSt12_Vector_baseISt10shared_ptrIN5Catch8TestSpec7PatternEESaIS4_EEC2EOS6_
FN:305,_ZNSt12_Vector_baseISt4pairIlSt6vectorINSt7__cxx119sub_matchIN9__gnu_cxx17__normal_iteratorIPKcNS2_12basic_stringIcSt11char_traitsIcESaIcEEEEEEESaISE_EEESaISH_EEC2EOSJ_
FNDA:0,_ZNSt12_Vector_baseISt4pairIlSt6vectorINSt7__cxx119sub_matchIN9__gnu_cxx17__normal_iteratorIPKcNS2_12basic_stringIcSt11char_traitsIcESaIcEEEEEEESaISE_EEESaISH_EEC2EOSJ_
FN:305,_ZNSt12_Vector_baseINSt7__cxx1112basic_stringIcSt11char_traitsIcESaIcEEESaIS5_EEC2EOS7_
FNDA:331,_ZNSt12_Vector_baseINSt7__cxx1112basic_stringIcSt11char_traitsIcESaIcEEESaIS5_EEC2EOS7_
FN:330,_ZNSt12_Vector_baseIN5Catch5clara6detail11HelpColumnsESaIS3_EED2Ev
FNDA:0,_ZNSt12_Vector_baseIN5Catch5clara6detail11HelpColumnsESaIS3_EED2Ev
FN:330,_ZNSt12_Vector_baseIN5Catch5clara6detail5TokenESaIS3_EED2Ev
FNDA:5,_ZNSt12_Vector_baseIN5Catch5clara6detail5TokenESaIS3_EED2Ev
FN:330,_ZNSt12_Vector_baseIN5Catch14SectionEndInfoESaIS1_EED2Ev
FNDA:1,_ZNSt12_Vector_baseIN5Catch14SectionEndInfoESaIS1_EED2Ev
FN:330,_ZNSt12_Vector_baseIN5Catch13SummaryColumnESaIS1_EED2Ev
FNDA:0,_ZNSt12_Vector_baseIN5Catch13SummaryColumnESaIS1_EED2Ev
FN:330,_ZNSt12_Vector_baseIPN5Catch16TestCaseTracking8ITrackerESaIS3_EED2Ev
FNDA:1,_ZNSt12_Vector_baseIPN5Catch16TestCaseTracking8ITrackerESaIS3_EED2Ev
FN:330,_ZNSt12_Vector_baseImSaImEED2Ev
FNDA:1,_ZNSt12_Vector_baseImSaImEED2Ev
FN:330,_ZNSt12_Vector_baseIN5Catch8TestSpec6FilterESaIS2_EED2Ev
FNDA:5,_ZNSt12_Vector_baseIN5Catch8TestSpec6FilterESaIS2_EED2Ev
FN:330,_ZNSt12_Vector_baseISt10unique_ptrINSt7__cxx1119basic_ostringstreamIcSt11char_traitsIcESaIcEEESt14default_deleteIS6_EESaIS9_EED2Ev
FNDA:0,_ZNSt12_Vector_baseISt10unique_ptrINSt7__cxx1119basic_ostringstreamIcSt11char_traitsIcESaIcEEESt14default_deleteIS6_EESaIS9_EED2Ev
FN:330,_ZNSt12_Vector_baseIN5Catch12_GLOBAL__N_110ColumnInfoESaIS2_EED2Ev
FNDA:2,_ZNSt12_Vector_baseIN5Catch12_GLOBAL__N_110ColumnInfoESaIS2_EED2Ev
FN:330,_ZNSt12_Vector_baseINSt15__exception_ptr13exception_ptrESaIS1_EED2Ev
FNDA:1,_ZNSt12_Vector_baseINSt15__exception_ptr13exception_ptrESaIS1_EED2Ev
FN:330,_ZNSt12_Vector_baseINSt8__detail6_StateIcEESaIS2_EED2Ev
FNDA:0,_ZNSt12_Vector_baseINSt8__detail6_StateIcEESaIS2_EED2Ev
FN:330,_ZNSt12_Vector_baseIN5Catch5clara6detail3OptESaIS3_EED2Ev
FNDA:59,_ZNSt12_Vector_baseIN5Catch5clara6detail3OptESaIS3_EED2Ev
FN:330,_ZNSt12_Vector_baseISt10shared_ptrIN5Catch8TestSpec7PatternEESaIS4_EED2Ev
FNDA:6,_ZNSt12_Vector_baseISt10shared_ptrIN5Catch8TestSpec7PatternEESaIS4_EED2Ev
FN:330,_ZNSt12_Vector_baseIPN5Catch10ISingletonESaIS2_EED2Ev
FNDA:2,_ZNSt12_Vector_baseIPN5Catch10ISingletonESaIS2_EED2Ev
FN:330,_ZNSt12_Vector_baseISt10shared_ptrIN5Catch16TestCaseTracking8ITrackerEESaIS4_EED2Ev
FNDA:22,_ZNSt12_Vector_baseISt10shared_ptrIN5Catch16TestCaseTracking8ITrackerEESaIS4_EED2Ev
FN:330,_ZNSt12_Vector_baseIN5Catch11MessageInfoESaIS1_EED2Ev
FNDA:1,_ZNSt12_Vector_baseIN5Catch11MessageInfoESaIS1_EED2Ev
FN:330,_ZNSt12_Vector_baseIN5Catch5clara6detail3ArgESaIS3_EED2Ev
FNDA:59,_ZNSt12_Vector_baseIN5Catch5clara6detail3ArgESaIS3_EED2Ev
FN:330,_ZNSt12_Vector_baseIN5Catch8TestCaseESaIS1_EED2Ev
FNDA:4,_ZNSt12_Vector_baseIN5Catch8TestCaseESaIS1_EED2Ev
FN:330,_ZNSt12_Vector_baseISt10shared_ptrIN5Catch22CumulativeReporterBaseINS1_13JunitReporterEE4NodeINS1_13TestCaseStatsENS4_11SectionNodeEEEESaIS9_EED2Ev
FNDA:0,_ZNSt12_Vector_baseISt10shared_ptrIN5Catch22CumulativeReporterBaseINS1_13JunitReporterEE4NodeINS1_13TestCaseStatsENS4_11SectionNodeEEEESaIS9_EED2Ev
FN:330,_ZNSt12_Vector_baseISt10unique_ptrIKN5Catch20IExceptionTranslatorESt14default_deleteIS3_EESaIS6_EED2Ev
FNDA:1,_ZNSt12_Vector_baseISt10unique_ptrIKN5Catch20IExceptionTranslatorESt14default_deleteIS3_EESaIS6_EED2Ev
FN:330,_ZNSt12_Vector_baseIN5Catch11SectionInfoESaIS1_EED2Ev
FNDA:1,_ZNSt12_Vector_baseIN5Catch11SectionInfoESaIS1_EED2Ev
FN:330,_ZNSt12_Vector_baseIcSaIcEED2Ev
FNDA:0,_ZNSt12_Vector_baseIcSaIcEED2Ev
FN:330,_ZNSt12_Vector_baseISt4pairIlSt6vectorINSt7__cxx119sub_matchIN9__gnu_cxx17__normal_iteratorIPKcNS2_12basic_stringIcSt11char_traitsIcESaIcEEEEEEESaISE_EEESaISH_EED2Ev
FNDA:0,_ZNSt12_Vector_baseISt4pairIlSt6vectorINSt7__cxx119sub_matchIN9__gnu_cxx17__normal_iteratorIPKcNS2_12basic_stringIcSt11char_traitsIcESaIcEEEEEEESaISE_EEESaISH_EED2Ev
FN:330,_ZNSt12_Vector_baseISt4pairIccESaIS1_EED2Ev
FNDA:0,_ZNSt12_Vector_baseISt4pairIccESaIS1_EED2Ev
FN:330,_ZNSt12_Vector_baseISt4pairIN9__gnu_cxx17__normal_iteratorIPKcNSt7__cxx1112basic_stringIcSt11char_traitsIcESaIcEEEEEiESaISC_EED2Ev
FNDA:0,_ZNSt12_Vector_baseISt4pairIN9__gnu_cxx17__normal_iteratorIPKcNSt7__cxx1112basic_stringIcSt11char_traitsIcESaIcEEEEEiESaISC_EED2Ev
FN:330,_ZNSt12_Vector_baseINSt7__cxx1112regex_traitsIcE10_RegexMaskESaIS3_EED2Ev
FNDA:0,_ZNSt12_Vector_baseINSt7__cxx1112regex_traitsIcE10_RegexMaskESaIS3_EED2Ev
FN:330,_ZNSt12_Vector_baseISt4pairINSt7__cxx1112basic_stringIcSt11char_traitsIcESaIcEEES6_ESaIS7_EED2Ev
FNDA:0,_ZNSt12_Vector_baseISt4pairINSt7__cxx1112basic_stringIcSt11char_traitsIcESaIcEEES6_ESaIS7_EED2Ev
FN:330,_ZNSt12_Vector_baseIN5Catch14AssertionStatsESaIS1_EED2Ev
FNDA:0,_ZNSt12_Vector_baseIN5Catch14AssertionStatsESaIS1_EED2Ev
FN:330,_ZNSt12_Vector_baseISt6vectorISt10shared_ptrIN5Catch22CumulativeReporterBaseINS2_13JunitReporterEE11SectionNodeEESaIS7_EESaIS9_EED2Ev
FNDA:0,_ZNSt12_Vector_baseISt6vectorISt10shared_ptrIN5Catch22CumulativeReporterBaseINS2_13JunitReporterEE11SectionNodeEESaIS7_EESaIS9_EED2Ev
FN:330,_ZNSt12_Vector_baseISt10shared_ptrIN5Catch22CumulativeReporterBaseINS1_13JunitReporterEE4NodeINS1_14TestGroupStatsENS5_INS1_13TestCaseStatsENS4_11SectionNodeEEEEEESaISB_EED2Ev
FNDA:0,_ZNSt12_Vector_baseISt10shared_ptrIN5Catch22CumulativeReporterBaseINS1_13JunitReporterEE4NodeINS1_14TestGroupStatsENS5_INS1_13TestCaseStatsENS4_11SectionNodeEEEEEESaISB_EED2Ev
FN:330,_ZNSt12_Vector_baseISt10shared_ptrIN5Catch22CumulativeReporterBaseINS1_13JunitReporterEE4NodeINS1_12TestRunStatsENS5_INS1_14TestGroupStatsENS5_INS1_13TestCaseStatsENS4_11SectionNodeEEEEEEEESaISD_EED2Ev
FNDA:0,_ZNSt12_Vector_baseISt10shared_ptrIN5Catch22CumulativeReporterBaseINS1_13JunitReporterEE4NodeINS1_12TestRunStatsENS5_INS1_14TestGroupStatsENS5_INS1_13TestCaseStatsENS4_11SectionNodeEEEEEEEESaISD_EED2Ev
FN:330,_ZNSt12_Vector_baseISt10shared_ptrIN5Catch22CumulativeReporterBaseINS1_13JunitReporterEE11SectionNodeEESaIS6_EED2Ev
FNDA:0,_ZNSt12_Vector_baseISt10shared_ptrIN5Catch22CumulativeReporterBaseINS1_13JunitReporterEE11SectionNodeEESaIS6_EED2Ev
FN:330,_ZNSt12_Vector_baseISt10shared_ptrIN5Catch16IReporterFactoryEESaIS3_EED2Ev
FNDA:1,_ZNSt12_Vector_baseISt10shared_ptrIN5Catch16IReporterFactoryEESaIS3_EED2Ev
FN:330,_ZNSt12_Vector_baseINSt7__cxx1112basic_stringIcSt11char_traitsIcESaIcEEESaIS5_EED2Ev
FNDA:1168,_ZNSt12_Vector_baseINSt7__cxx1112basic_stringIcSt11char_traitsIcESaIcEEESaIS5_EED2Ev
FN:330,_ZNSt12_Vector_baseINSt7__cxx119sub_matchIN9__gnu_cxx17__normal_iteratorIPKcNS0_12basic_stringIcSt11char_traitsIcESaIcEEEEEEESaISC_EED2Ev
FNDA:0,_ZNSt12_Vector_baseINSt7__cxx119sub_matchIN9__gnu_cxx17__normal_iteratorIPKcNS0_12basic_stringIcSt11char_traitsIcESaIcEEEEEEESaISC_EED2Ev
FN:330,_ZNSt12_Vector_baseIN5Catch5clara8TextFlow6Column8iteratorESaIS4_EED2Ev
FNDA:0,_ZNSt12_Vector_baseIN5Catch5clara8TextFlow6Column8iteratorESaIS4_EED2Ev
FN:330,_ZNSt12_Vector_baseISt10unique_ptrIN5Catch18IStreamingReporterESt14default_deleteIS2_EESaIS5_EED2Ev
FNDA:0,_ZNSt12_Vector_baseISt10unique_ptrIN5Catch18IStreamingReporterESt14default_deleteIS2_EESaIS5_EED2Ev
FN:330,_ZNSt12_Vector_baseIN5Catch5clara8TextFlow6ColumnESaIS3_EED2Ev
FNDA:0,_ZNSt12_Vector_baseIN5Catch5clara8TextFlow6ColumnESaIS3_EED2Ev
FN:340,_ZNSt12_Vector_baseISt10unique_ptrIKN5Catch20IExceptionTranslatorESt14default_deleteIS3_EESaIS6_EE11_M_allocateEm
FNDA:0,_ZNSt12_Vector_baseISt10unique_ptrIKN5Catch20IExceptionTranslatorESt14default_deleteIS3_EESaIS6_EE11_M_allocateEm
FN:340,_ZNSt12_Vector_baseINSt15__exception_ptr13exception_ptrESaIS1_EE11_M_allocateEm
FNDA:0,_ZNSt12_Vector_baseINSt15__exception_ptr13exception_ptrESaIS1_EE11_M_allocateEm
FN:340,_ZNSt12_Vector_baseISt10shared_ptrIN5Catch22CumulativeReporterBaseINS1_13JunitReporterEE4NodeINS1_12TestRunStatsENS5_INS1_14TestGroupStatsENS5_INS1_13TestCaseStatsENS4_11SectionNodeEEEEEEEESaISD_EE11_M_allocateEm
FNDA:0,_ZNSt12_Vector_baseISt10shared_ptrIN5Catch22CumulativeReporterBaseINS1_13JunitReporterEE4NodeINS1_12TestRunStatsENS5_INS1_14TestGroupStatsENS5_INS1_13TestCaseStatsENS4_11SectionNodeEEEEEEEESaISD_EE11_M_allocateEm
FN:340,_ZNSt12_Vector_baseIPN5Catch16TestCaseTracking8ITrackerESaIS3_EE11_M_allocateEm
FNDA:2,_ZNSt12_Vector_baseIPN5Catch16TestCaseTracking8ITrackerESaIS3_EE11_M_allocateEm
FN:340,_ZNSt12_Vector_baseIN5Catch14AssertionStatsESaIS1_EE11_M_allocateEm
FNDA:0,_ZNSt12_Vector_baseIN5Catch14AssertionStatsESaIS1_EE11_M_allocateEm
FN:340,_ZNSt12_Vector_baseISt10shared_ptrIN5Catch22CumulativeReporterBaseINS1_13JunitReporterEE11SectionNodeEESaIS6_EE11_M_allocateEm
FNDA:0,_ZNSt12_Vector_baseISt10shared_ptrIN5Catch22CumulativeReporterBaseINS1_13JunitReporterEE11SectionNodeEESaIS6_EE11_M_allocateEm
FN:340,_ZNSt12_Vector_baseINSt7__cxx119sub_matchIN9__gnu_cxx17__normal_iteratorIPKcNS0_12basic_stringIcSt11char_traitsIcESaIcEEEEEEESaISC_EE11_M_allocateEm
FNDA:0,_ZNSt12_Vector_baseINSt7__cxx119sub_matchIN9__gnu_cxx17__normal_iteratorIPKcNS0_12basic_stringIcSt11char_traitsIcESaIcEEEEEEESaISC_EE11_M_allocateEm
FN:340,_ZNSt12_Vector_baseISt4pairINSt7__cxx1112basic_stringIcSt11char_traitsIcESaIcEEES6_ESaIS7_EE11_M_allocateEm
FNDA:0,_ZNSt12_Vector_baseISt4pairINSt7__cxx1112basic_stringIcSt11char_traitsIcESaIcEEES6_ESaIS7_EE11_M_allocateEm
FN:340,_ZNSt12_Vector_baseIN5Catch13SummaryColumnESaIS1_EE11_M_allocateEm
FNDA:0,_ZNSt12_Vector_baseIN5Catch13SummaryColumnESaIS1_EE11_M_allocateEm
FN:340,_ZNSt12_Vector_baseISt10unique_ptrINSt7__cxx1119basic_ostringstreamIcSt11char_traitsIcESaIcEEESt14default_deleteIS6_EESaIS9_EE11_M_allocateEm
FNDA:0,_ZNSt12_Vector_baseISt10unique_ptrINSt7__cxx1119basic_ostringstreamIcSt11char_traitsIcESaIcEEESt14default_deleteIS6_EESaIS9_EE11_M_allocateEm
FN:340,_ZNSt12_Vector_baseIcSaIcEE11_M_allocateEm
FNDA:0,_ZNSt12_Vector_baseIcSaIcEE11_M_allocateEm
FN:340,_ZNSt12_Vector_baseIN5Catch11SectionInfoESaIS1_EE11_M_allocateEm
FNDA:3,_ZNSt12_Vector_baseIN5Catch11SectionInfoESaIS1_EE11_M_allocateEm
FN:340,_ZNSt12_Vector_baseIN5Catch12_GLOBAL__N_110ColumnInfoESaIS2_EE11_M_allocateEm
FNDA:1,_ZNSt12_Vector_baseIN5Catch12_GLOBAL__N_110ColumnInfoESaIS2_EE11_M_allocateEm
FN:340,_ZNSt12_Vector_baseISt10shared_ptrIN5Catch8TestSpec7PatternEESaIS4_EE11_M_allocateEm
FNDA:4,_ZNSt12_Vector_baseISt10shared_ptrIN5Catch8TestSpec7PatternEESaIS4_EE11_M_allocateEm
FN:340,_ZNSt12_Vector_baseIN5Catch8TestSpec6FilterESaIS2_EE11_M_allocateEm
FNDA:3,_ZNSt12_Vector_baseIN5Catch8TestSpec6FilterESaIS2_EE11_M_allocateEm
FN:340,_ZNSt12_Vector_baseISt4pairIccESaIS1_EE11_M_allocateEm
FNDA:0,_ZNSt12_Vector_baseISt4pairIccESaIS1_EE11_M_allocateEm
FN:340,_ZNSt12_Vector_baseISt10shared_ptrIN5Catch16TestCaseTracking8ITrackerEESaIS4_EE11_M_allocateEm
FNDA:12,_ZNSt12_Vector_baseISt10shared_ptrIN5Catch16TestCaseTracking8ITrackerEESaIS4_EE11_M_allocateEm
FN:340,_ZNSt12_Vector_baseISt10shared_ptrIN5Catch22CumulativeReporterBaseINS1_13JunitReporterEE4NodeINS1_13TestCaseStatsENS4_11SectionNodeEEEESaIS9_EE11_M_allocateEm
FNDA:0,_ZNSt12_Vector_baseISt10shared_ptrIN5Catch22CumulativeReporterBaseINS1_13JunitReporterEE4NodeINS1_13TestCaseStatsENS4_11SectionNodeEEEESaIS9_EE11_M_allocateEm
FN:340,_ZNSt12_Vector_baseISt4pairIlSt6vectorINSt7__cxx119sub_matchIN9__gnu_cxx17__normal_iteratorIPKcNS2_12basic_stringIcSt11char_traitsIcESaIcEEEEEEESaISE_EEESaISH_EE11_M_allocateEm
FNDA:0,_ZNSt12_Vector_baseISt4pairIlSt6vectorINSt7__cxx119sub_matchIN9__gnu_cxx17__normal_iteratorIPKcNS2_12basic_stringIcSt11char_traitsIcESaIcEEEEEEESaISE_EEESaISH_EE11_M_allocateEm
FN:340,_ZNSt12_Vector_baseINSt8__detail6_StateIcEESaIS2_EE11_M_allocateEm
FNDA:0,_ZNSt12_Vector_baseINSt8__detail6_StateIcEESaIS2_EE11_M_allocateEm
FN:340,_ZNSt12_Vector_baseIN5Catch5clara8TextFlow6Column8iteratorESaIS4_EE11_M_allocateEm
FNDA:0,_ZNSt12_Vector_baseIN5Catch5clara8TextFlow6Column8iteratorESaIS4_EE11_M_allocateEm
FN:340,_ZNSt12_Vector_baseIN5Catch8TestCaseESaIS1_EE11_M_allocateEm
FNDA:3,_ZNSt12_Vector_baseIN5Catch8TestCaseESaIS1_EE11_M_allocateEm
FN:340,_ZNSt12_Vector_baseINSt7__cxx1112regex_traitsIcE10_RegexMaskESaIS3_EE11_M_allocateEm
FNDA:0,_ZNSt12_Vector_baseINSt7__cxx1112regex_traitsIcE10_RegexMaskESaIS3_EE11_M_allocateEm
FN:340,_ZNSt12_Vector_baseINSt7__cxx1112basic_stringIcSt11char_traitsIcESaIcEEESaIS5_EE11_M_allocateEm
FNDA:824,_ZNSt12_Vector_baseINSt7__cxx1112basic_stringIcSt11char_traitsIcESaIcEEESaIS5_EE11_M_allocateEm
FN:340,_ZNSt12_Vector_baseIN5Catch5clara8TextFlow6ColumnESaIS3_EE11_M_allocateEm
FNDA:0,_ZNSt12_Vector_baseIN5Catch5clara8TextFlow6ColumnESaIS3_EE11_M_allocateEm
FN:340,_ZNSt12_Vector_baseImSaImEE11_M_allocateEm
FNDA:0,_ZNSt12_Vector_baseImSaImEE11_M_allocateEm
FN:340,_ZNSt12_Vector_baseIN5Catch5clara6detail5TokenESaIS3_EE11_M_allocateEm
FNDA:4,_ZNSt12_Vector_baseIN5Catch5clara6detail5TokenESaIS3_EE11_M_allocateEm
FN:340,_ZNSt12_Vector_baseIN5Catch5clara6detail11HelpColumnsESaIS3_EE11_M_allocateEm
FNDA:0,_ZNSt12_Vector_baseIN5Catch5clara6detail11HelpColumnsESaIS3_EE11_M_allocateEm
FN:340,_ZNSt12_Vector_baseIN5Catch5clara6detail3ArgESaIS3_EE11_M_allocateEm
FNDA:57,_ZNSt12_Vector_baseIN5Catch5clara6detail3ArgESaIS3_EE11_M_allocateEm
FN:340,_ZNSt12_Vector_baseIN5Catch5clara6detail3OptESaIS3_EE11_M_allocateEm
FNDA:82,_ZNSt12_Vector_baseIN5Catch5clara6detail3OptESaIS3_EE11_M_allocateEm
FN:340,_ZNSt12_Vector_baseIN5Catch14SectionEndInfoESaIS1_EE11_M_allocateEm
FNDA:0,_ZNSt12_Vector_baseIN5Catch14SectionEndInfoESaIS1_EE11_M_allocateEm
FN:340,_ZNSt12_Vector_baseISt4pairIN9__gnu_cxx17__normal_iteratorIPKcNSt7__cxx1112basic_stringIcSt11char_traitsIcESaIcEEEEEiESaISC_EE11_M_allocateEm
FNDA:0,_ZNSt12_Vector_baseISt4pairIN9__gnu_cxx17__normal_iteratorIPKcNSt7__cxx1112basic_stringIcSt11char_traitsIcESaIcEEEEEiESaISC_EE11_M_allocateEm
FN:340,_ZNSt12_Vector_baseISt10shared_ptrIN5Catch22CumulativeReporterBaseINS1_13JunitReporterEE4NodeINS1_14TestGroupStatsENS5_INS1_13TestCaseStatsENS4_11SectionNodeEEEEEESaISB_EE11_M_allocateEm
FNDA:0,_ZNSt12_Vector_baseISt10shared_ptrIN5Catch22CumulativeReporterBaseINS1_13JunitReporterEE4NodeINS1_14TestGroupStatsENS5_INS1_13TestCaseStatsENS4_11SectionNodeEEEEEESaISB_EE11_M_allocateEm
FN:340,_ZNSt12_Vector_baseIN5Catch11MessageInfoESaIS1_EE11_M_allocateEm
FNDA:0,_ZNSt12_Vector_baseIN5Catch11MessageInfoESaIS1_EE11_M_allocateEm
FN:340,_ZNSt12_Vector_baseISt10unique_ptrIN5Catch18IStreamingReporterESt14default_deleteIS2_EESaIS5_EE11_M_allocateEm
FNDA:0,_ZNSt12_Vector_baseISt10unique_ptrIN5Catch18IStreamingReporterESt14default_deleteIS2_EESaIS5_EE11_M_allocateEm
FN:340,_ZNSt12_Vector_baseISt10shared_ptrIN5Catch16IReporterFactoryEESaIS3_EE11_M_allocateEm
FNDA:0,_ZNSt12_Vector_baseISt10shared_ptrIN5Catch16IReporterFactoryEESaIS3_EE11_M_allocateEm
FN:340,_ZNSt12_Vector_baseIPN5Catch10ISingletonESaIS2_EE11_M_allocateEm
FNDA:1,_ZNSt12_Vector_baseIPN5Catch10ISingletonESaIS2_EE11_M_allocateEm
FN:347,_ZNSt12_Vector_baseISt10shared_ptrIN5Catch22CumulativeReporterBaseINS1_13JunitReporterEE4NodeINS1_14TestGroupStatsENS5_INS1_13TestCaseStatsENS4_11SectionNodeEEEEEESaISB_EE13_M_deallocateEPSB_m
FNDA:0,_ZNSt12_Vector_baseISt10shared_ptrIN5Catch22CumulativeReporterBaseINS1_13JunitReporterEE4NodeINS1_14TestGroupStatsENS5_INS1_13TestCaseStatsENS4_11SectionNodeEEEEEESaISB_EE13_M_deallocateEPSB_m
FN:347,_ZNSt12_Vector_baseINSt8__detail6_StateIcEESaIS2_EE13_M_deallocateEPS2_m
FNDA:0,_ZNSt12_Vector_baseINSt8__detail6_StateIcEESaIS2_EE13_M_deallocateEPS2_m
FN:347,_ZNSt12_Vector_baseISt10shared_ptrIN5Catch8TestSpec7PatternEESaIS4_EE13_M_deallocateEPS4_m
FNDA:7,_ZNSt12_Vector_baseISt10shared_ptrIN5Catch8TestSpec7PatternEESaIS4_EE13_M_deallocateEPS4_m
FN:347,_ZNSt12_Vector_baseIN5Catch8TestSpec6FilterESaIS2_EE13_M_deallocateEPS2_m
FNDA:6,_ZNSt12_Vector_baseIN5Catch8TestSpec6FilterESaIS2_EE13_M_deallocateEPS2_m
FN:347,_ZNSt12_Vector_baseIN5Catch12_GLOBAL__N_110ColumnInfoESaIS2_EE13_M_deallocateEPS2_m
FNDA:2,_ZNSt12_Vector_baseIN5Catch12_GLOBAL__N_110ColumnInfoESaIS2_EE13_M_deallocateEPS2_m
FN:347,_ZNSt12_Vector_baseISt10shared_ptrIN5Catch16TestCaseTracking8ITrackerEESaIS4_EE13_M_deallocateEPS4_m
FNDA:34,_ZNSt12_Vector_baseISt10shared_ptrIN5Catch16TestCaseTracking8ITrackerEESaIS4_EE13_M_deallocateEPS4_m
FN:347,_ZNSt12_Vector_baseIN5Catch5clara6detail3ArgESaIS3_EE13_M_deallocateEPS3_m
FNDA:60,_ZNSt12_Vector_baseIN5Catch5clara6detail3ArgESaIS3_EE13_M_deallocateEPS3_m
FN:347,_ZNSt12_Vector_baseIPN5Catch16TestCaseTracking8ITrackerESaIS3_EE13_M_deallocateEPS3_m
FNDA:3,_ZNSt12_Vector_baseIPN5Catch16TestCaseTracking8ITrackerESaIS3_EE13_M_deallocateEPS3_m
FN:347,_ZNSt12_Vector_baseISt10shared_ptrIN5Catch22CumulativeReporterBaseINS1_13JunitReporterEE4NodeINS1_13TestCaseStatsENS4_11SectionNodeEEEESaIS9_EE13_M_deallocateEPS9_m
FNDA:0,_ZNSt12_Vector_baseISt10shared_ptrIN5Catch22CumulativeReporterBaseINS1_13JunitReporterEE4NodeINS1_13TestCaseStatsENS4_11SectionNodeEEEESaIS9_EE13_M_deallocateEPS9_m
FN:347,_ZNSt12_Vector_baseIN5Catch13SummaryColumnESaIS1_EE13_M_deallocateEPS1_m
FNDA:0,_ZNSt12_Vector_baseIN5Catch13SummaryColumnESaIS1_EE13_M_deallocateEPS1_m
FN:347,_ZNSt12_Vector_baseISt10shared_ptrIN5Catch22CumulativeReporterBaseINS1_13JunitReporterEE4NodeINS1_12TestRunStatsENS5_INS1_14TestGroupStatsENS5_INS1_13TestCaseStatsENS4_11SectionNodeEEEEEEEESaISD_EE13_M_deallocateEPSD_m
FNDA:0,_ZNSt12_Vector_baseISt10shared_ptrIN5Catch22CumulativeReporterBaseINS1_13JunitReporterEE4NodeINS1_12TestRunStatsENS5_INS1_14TestGroupStatsENS5_INS1_13TestCaseStatsENS4_11SectionNodeEEEEEEEESaISD_EE13_M_deallocateEPSD_m
FN:347,_ZNSt12_Vector_baseIN5Catch11MessageInfoESaIS1_EE13_M_deallocateEPS1_m
FNDA:1,_ZNSt12_Vector_baseIN5Catch11MessageInfoESaIS1_EE13_M_deallocateEPS1_m
FN:347,_ZNSt12_Vector_baseISt10shared_ptrIN5Catch22CumulativeReporterBaseINS1_13JunitReporterEE11SectionNodeEESaIS6_EE13_M_deallocateEPS6_m
FNDA:0,_ZNSt12_Vector_baseISt10shared_ptrIN5Catch22CumulativeReporterBaseINS1_13JunitReporterEE11SectionNodeEESaIS6_EE13_M_deallocateEPS6_m
FN:347,_ZNSt12_Vector_baseIN5Catch14SectionEndInfoESaIS1_EE13_M_deallocateEPS1_m
FNDA:1,_ZNSt12_Vector_baseIN5Catch14SectionEndInfoESaIS1_EE13_M_deallocateEPS1_m
FN:347,_ZNSt12_Vector_baseImSaImEE13_M_deallocateEPmm
FNDA:1,_ZNSt12_Vector_baseImSaImEE13_M_deallocateEPmm
FN:347,_ZNSt12_Vector_baseISt4pairIlSt6vectorINSt7__cxx119sub_matchIN9__gnu_cxx17__normal_iteratorIPKcNS2_12basic_stringIcSt11char_traitsIcESaIcEEEEEEESaISE_EEESaISH_EE13_M_deallocateEPSH_m
FNDA:0,_ZNSt12_Vector_baseISt4pairIlSt6vectorINSt7__cxx119sub_matchIN9__gnu_cxx17__normal_iteratorIPKcNS2_12basic_stringIcSt11char_traitsIcESaIcEEEEEEESaISE_EEESaISH_EE13_M_deallocateEPSH_m
FN:347,_ZNSt12_Vector_baseIN5Catch8TestCaseESaIS1_EE13_M_deallocateEPS1_m
FNDA:6,_ZNSt12_Vector_baseIN5Catch8TestCaseESaIS1_EE13_M_deallocateEPS1_m
FN:347,_ZNSt12_Vector_baseISt4pairIN9__gnu_cxx17__normal_iteratorIPKcNSt7__cxx1112basic_stringIcSt11char_traitsIcESaIcEEEEEiESaISC_EE13_M_deallocateEPSC_m
FNDA:0,_ZNSt12_Vector_baseISt4pairIN9__gnu_cxx17__normal_iteratorIPKcNSt7__cxx1112basic_stringIcSt11char_traitsIcESaIcEEEEEiESaISC_EE13_M_deallocateEPSC_m
FN:347,_ZNSt12_Vector_baseIPN5Catch10ISingletonESaIS2_EE13_M_deallocateEPS2_m
FNDA:3,_ZNSt12_Vector_baseIPN5Catch10ISingletonESaIS2_EE13_M_deallocateEPS2_m
FN:347,_ZNSt12_Vector_baseISt10unique_ptrIN5Catch18IStreamingReporterESt14default_deleteIS2_EESaIS5_EE13_M_deallocateEPS5_m
FNDA:0,_ZNSt12_Vector_baseISt10unique_ptrIN5Catch18IStreamingReporterESt14default_deleteIS2_EESaIS5_EE13_M_deallocateEPS5_m
FN:347,_ZNSt12_Vector_baseINSt15__exception_ptr13exception_ptrESaIS1_EE13_M_deallocateEPS1_m
FNDA:1,_ZNSt12_Vector_baseINSt15__exception_ptr13exception_ptrESaIS1_EE13_M_deallocateEPS1_m
FN:347,_ZNSt12_Vector_baseISt10shared_ptrIN5Catch16IReporterFactoryEESaIS3_EE13_M_deallocateEPS3_m
FNDA:1,_ZNSt12_Vector_baseISt10shared_ptrIN5Catch16IReporterFactoryEESaIS3_EE13_M_deallocateEPS3_m
FN:347,_ZNSt12_Vector_baseISt10unique_ptrIKN5Catch20IExceptionTranslatorESt14default_deleteIS3_EESaIS6_EE13_M_deallocateEPS6_m
FNDA:1,_ZNSt12_Vector_baseISt10unique_ptrIKN5Catch20IExceptionTranslatorESt14default_deleteIS3_EESaIS6_EE13_M_deallocateEPS6_m
FN:347,_ZNSt12_Vector_baseINSt7__cxx119sub_matchIN9__gnu_cxx17__normal_iteratorIPKcNS0_12basic_stringIcSt11char_traitsIcESaIcEEEEEEESaISC_EE13_M_deallocateEPSC_m
FNDA:0,_ZNSt12_Vector_baseINSt7__cxx119sub_matchIN9__gnu_cxx17__normal_iteratorIPKcNS0_12basic_stringIcSt11char_traitsIcESaIcEEEEEEESaISC_EE13_M_deallocateEPSC_m
FN:347,_ZNSt12_Vector_baseINSt7__cxx1112basic_stringIcSt11char_traitsIcESaIcEEESaIS5_EE13_M_deallocateEPS5_m
FNDA:1213,_ZNSt12_Vector_baseINSt7__cxx1112basic_stringIcSt11char_traitsIcESaIcEEESaIS5_EE13_M_deallocateEPS5_m
FN:347,_ZNSt12_Vector_baseISt6vectorISt10shared_ptrIN5Catch22CumulativeReporterBaseINS2_13JunitReporterEE11SectionNodeEESaIS7_EESaIS9_EE13_M_deallocateEPS9_m
FNDA:0,_ZNSt12_Vector_baseISt6vectorISt10shared_ptrIN5Catch22CumulativeReporterBaseINS2_13JunitReporterEE11SectionNodeEESaIS7_EESaIS9_EE13_M_deallocateEPS9_m
FN:347,_ZNSt12_Vector_baseIN5Catch5clara8TextFlow6Column8iteratorESaIS4_EE13_M_deallocateEPS4_m
FNDA:0,_ZNSt12_Vector_baseIN5Catch5clara8TextFlow6Column8iteratorESaIS4_EE13_M_deallocateEPS4_m
FN:347,_ZNSt12_Vector_baseIN5Catch11SectionInfoESaIS1_EE13_M_deallocateEPS1_m
FNDA:4,_ZNSt12_Vector_baseIN5Catch11SectionInfoESaIS1_EE13_M_deallocateEPS1_m
FN:347,_ZNSt12_Vector_baseIN5Catch5clara8TextFlow6ColumnESaIS3_EE13_M_deallocateEPS3_m
FNDA:0,_ZNSt12_Vector_baseIN5Catch5clara8TextFlow6ColumnESaIS3_EE13_M_deallocateEPS3_m
FN:347,_ZNSt12_Vector_baseINSt7__cxx1112regex_traitsIcE10_RegexMaskESaIS3_EE13_M_deallocateEPS3_m
FNDA:0,_ZNSt12_Vector_baseINSt7__cxx1112regex_traitsIcE10_RegexMaskESaIS3_EE13_M_deallocateEPS3_m
FN:347,_ZNSt12_Vector_baseIN5Catch5clara6detail3OptESaIS3_EE13_M_deallocateEPS3_m
FNDA:85,_ZNSt12_Vector_baseIN5Catch5clara6detail3OptESaIS3_EE13_M_deallocateEPS3_m
FN:347,_ZNSt12_Vector_baseIN5Catch14AssertionStatsESaIS1_EE13_M_deallocateEPS1_m
FNDA:0,_ZNSt12_Vector_baseIN5Catch14AssertionStatsESaIS1_EE13_M_deallocateEPS1_m
FN:347,_ZNSt12_Vector_baseIN5Catch5clara6detail11HelpColumnsESaIS3_EE13_M_deallocateEPS3_m
FNDA:0,_ZNSt12_Vector_baseIN5Catch5clara6detail11HelpColumnsESaIS3_EE13_M_deallocateEPS3_m
FN:347,_ZNSt12_Vector_baseIN5Catch5clara6detail5TokenESaIS3_EE13_M_deallocateEPS3_m
FNDA:5,_ZNSt12_Vector_baseIN5Catch5clara6detail5TokenESaIS3_EE13_M_deallocateEPS3_m
FN:347,_ZNSt12_Vector_baseISt10unique_ptrINSt7__cxx1119basic_ostringstreamIcSt11char_traitsIcESaIcEEESt14default_deleteIS6_EESaIS9_EE13_M_deallocateEPS9_m
FNDA:0,_ZNSt12_Vector_baseISt10unique_ptrINSt7__cxx1119basic_ostringstreamIcSt11char_traitsIcESaIcEEESt14default_deleteIS6_EESaIS9_EE13_M_deallocateEPS9_m
FN:347,_ZNSt12_Vector_baseIcSaIcEE13_M_deallocateEPcm
FNDA:0,_ZNSt12_Vector_baseIcSaIcEE13_M_deallocateEPcm
FN:347,_ZNSt12_Vector_baseISt4pairIccESaIS1_EE13_M_deallocateEPS1_m
FNDA:0,_ZNSt12_Vector_baseISt4pairIccESaIS1_EE13_M_deallocateEPS1_m
FN:347,_ZNSt12_Vector_baseISt4pairINSt7__cxx1112basic_stringIcSt11char_traitsIcESaIcEEES6_ESaIS7_EE13_M_deallocateEPS7_m
FNDA:0,_ZNSt12_Vector_baseISt4pairINSt7__cxx1112basic_stringIcSt11char_traitsIcESaIcEEES6_ESaIS7_EE13_M_deallocateEPS7_m
FN:356,_ZNSt12_Vector_baseIN5Catch5clara8TextFlow6ColumnESaIS3_EE17_M_create_storageEm
FNDA:0,_ZNSt12_Vector_baseIN5Catch5clara8TextFlow6ColumnESaIS3_EE17_M_create_storageEm
FN:356,_ZNSt12_Vector_baseIN5Catch5clara6detail3OptESaIS3_EE17_M_create_storageEm
FNDA:56,_ZNSt12_Vector_baseIN5Catch5clara6detail3OptESaIS3_EE17_M_create_storageEm
FN:356,_ZNSt12_Vector_baseIN5Catch5clara6detail5TokenESaIS3_EE17_M_create_storageEm
FNDA:4,_ZNSt12_Vector_baseIN5Catch5clara6detail5TokenESaIS3_EE17_M_create_storageEm
FN:356,_ZNSt12_Vector_baseIN5Catch5clara6detail3ArgESaIS3_EE17_M_create_storageEm
FNDA:56,_ZNSt12_Vector_baseIN5Catch5clara6detail3ArgESaIS3_EE17_M_create_storageEm
FN:356,_ZNSt12_Vector_baseIN5Catch8TestCaseESaIS1_EE17_M_create_storageEm
FNDA:1,_ZNSt12_Vector_baseIN5Catch8TestCaseESaIS1_EE17_M_create_storageEm
FN:356,_ZNSt12_Vector_baseINSt7__cxx1112basic_stringIcSt11char_traitsIcESaIcEEESaIS5_EE17_M_create_storageEm
FNDA:778,_ZNSt12_Vector_baseINSt7__cxx1112basic_stringIcSt11char_traitsIcESaIcEEESaIS5_EE17_M_create_storageEm
FN:356,_ZNSt12_Vector_baseIN5Catch8TestSpec6FilterESaIS2_EE17_M_create_storageEm
FNDA:2,_ZNSt12_Vector_baseIN5Catch8TestSpec6FilterESaIS2_EE17_M_create_storageEm
FN:356,_ZNSt12_Vector_baseIN5Catch11MessageInfoESaIS1_EE17_M_create_storageEm
FNDA:0,_ZNSt12_Vector_baseIN5Catch11MessageInfoESaIS1_EE17_M_create_storageEm
FN:356,_ZNSt12_Vector_baseINSt7__cxx119sub_matchIN9__gnu_cxx17__normal_iteratorIPKcNS0_12basic_stringIcSt11char_traitsIcESaIcEEEEEEESaISC_EE17_M_create_storageEm
FNDA:0,_ZNSt12_Vector_baseINSt7__cxx119sub_matchIN9__gnu_cxx17__normal_iteratorIPKcNS0_12basic_stringIcSt11char_traitsIcESaIcEEEEEEESaISC_EE17_M_create_storageEm
FN:356,_ZNSt12_Vector_baseINSt7__cxx1112regex_traitsIcE10_RegexMaskESaIS3_EE17_M_create_storageEm
FNDA:0,_ZNSt12_Vector_baseINSt7__cxx1112regex_traitsIcE10_RegexMaskESaIS3_EE17_M_create_storageEm
FN:356,_ZNSt12_Vector_baseISt4pairIccESaIS1_EE17_M_create_storageEm
FNDA:0,_ZNSt12_Vector_baseISt4pairIccESaIS1_EE17_M_create_storageEm
FN:356,_ZNSt12_Vector_baseIcSaIcEE17_M_create_storageEm
FNDA:0,_ZNSt12_Vector_baseIcSaIcEE17_M_create_storageEm
FN:356,_ZNSt12_Vector_baseISt10shared_ptrIN5Catch8TestSpec7PatternEESaIS4_EE17_M_create_storageEm
FNDA:3,_ZNSt12_Vector_baseISt10shared_ptrIN5Catch8TestSpec7PatternEESaIS4_EE17_M_create_storageEm
FN:356,_ZNSt12_Vector_baseISt4pairINSt7__cxx1112basic_stringIcSt11char_traitsIcESaIcEEES6_ESaIS7_EE17_M_create_storageEm
FNDA:0,_ZNSt12_Vector_baseISt4pairINSt7__cxx1112basic_stringIcSt11char_traitsIcESaIcEEES6_ESaIS7_EE17_M_create_storageEm
FN:356,_ZNSt12_Vector_baseISt4pairIN9__gnu_cxx17__normal_iteratorIPKcNSt7__cxx1112basic_stringIcSt11char_traitsIcESaIcEEEEEiESaISC_EE17_M_create_storageEm
FNDA:0,_ZNSt12_Vector_baseISt4pairIN9__gnu_cxx17__normal_iteratorIPKcNSt7__cxx1112basic_stringIcSt11char_traitsIcESaIcEEEEEiESaISC_EE17_M_create_storageEm
FN:450,_ZNSt6vectorINSt15__exception_ptr13exception_ptrESaIS1_EE14_S_do_relocateEPS1_S4_S4_RS2_St17integral_constantIbLb1EE
FNDA:0,_ZNSt6vectorINSt15__exception_ptr13exception_ptrESaIS1_EE14_S_do_relocateEPS1_S4_S4_RS2_St17integral_constantIbLb1EE
FN:450,_ZNSt6vectorISt10shared_ptrIN5Catch22CumulativeReporterBaseINS1_13JunitReporterEE4NodeINS1_13TestCaseStatsENS4_11SectionNodeEEEESaIS9_EE14_S_do_relocateEPS9_SC_SC_RSA_St17integral_constantIbLb1EE
FNDA:0,_ZNSt6vectorISt10shared_ptrIN5Catch22CumulativeReporterBaseINS1_13JunitReporterEE4NodeINS1_13TestCaseStatsENS4_11SectionNodeEEEESaIS9_EE14_S_do_relocateEPS9_SC_SC_RSA_St17integral_constantIbLb1EE
FN:450,_ZNSt6vectorISt10shared_ptrIN5Catch22CumulativeReporterBaseINS1_13JunitReporterEE11SectionNodeEESaIS6_EE14_S_do_relocateEPS6_S9_S9_RS7_St17integral_constantIbLb1EE
FNDA:0,_ZNSt6vectorISt10shared_ptrIN5Catch22CumulativeReporterBaseINS1_13JunitReporterEE11SectionNodeEESaIS6_EE14_S_do_relocateEPS6_S9_S9_RS7_St17integral_constantIbLb1EE
FN:450,_ZNSt6vectorIN5Catch13SummaryColumnESaIS1_EE14_S_do_relocateEPS1_S4_S4_RS2_St17integral_constantIbLb1EE
FNDA:0,_ZNSt6vectorIN5Catch13SummaryColumnESaIS1_EE14_S_do_relocateEPS1_S4_S4_RS2_St17integral_constantIbLb1EE
FN:450,_ZNSt6vectorIN5Catch11SectionInfoESaIS1_EE14_S_do_relocateEPS1_S4_S4_RS2_St17integral_constantIbLb1EE
FNDA:6,_ZNSt6vectorIN5Catch11SectionInfoESaIS1_EE14_S_do_relocateEPS1_S4_S4_RS2_St17integral_constantIbLb1EE
FN:450,_ZNSt6vectorISt10shared_ptrIN5Catch8TestSpec7PatternEESaIS4_EE14_S_do_relocateEPS4_S7_S7_RS5_St17integral_constantIbLb1EE
FNDA:2,_ZNSt6vectorISt10shared_ptrIN5Catch8TestSpec7PatternEESaIS4_EE14_S_do_relocateEPS4_S7_S7_RS5_St17integral_constantIbLb1EE
FN:450,_ZNSt6vectorIN5Catch5clara8TextFlow6Column8iteratorESaIS4_EE14_S_do_relocateEPS4_S7_S7_RS5_St17integral_constantIbLb1EE
FNDA:0,_ZNSt6vectorIN5Catch5clara8TextFlow6Column8iteratorESaIS4_EE14_S_do_relocateEPS4_S7_S7_RS5_St17integral_constantIbLb1EE
FN:450,_ZNSt6vectorIPN5Catch10ISingletonESaIS2_EE14_S_do_relocateEPS2_S5_S5_RS3_St17integral_constantIbLb1EE
FNDA:2,_ZNSt6vectorIPN5Catch10ISingletonESaIS2_EE14_S_do_relocateEPS2_S5_S5_RS3_St17integral_constantIbLb1EE
FN:450,_ZNSt6vectorIN5Catch14SectionEndInfoESaIS1_EE14_S_do_relocateEPS1_S4_S4_RS2_St17integral_constantIbLb1EE
FNDA:0,_ZNSt6vectorIN5Catch14SectionEndInfoESaIS1_EE14_S_do_relocateEPS1_S4_S4_RS2_St17integral_constantIbLb1EE
FN:450,_ZNSt6vectorISt10unique_ptrINSt7__cxx1119basic_ostringstreamIcSt11char_traitsIcESaIcEEESt14default_deleteIS6_EESaIS9_EE14_S_do_relocateEPS9_SC_SC_RSA_St17integral_constantIbLb1EE
FNDA:0,_ZNSt6vectorISt10unique_ptrINSt7__cxx1119basic_ostringstreamIcSt11char_traitsIcESaIcEEESt14default_deleteIS6_EESaIS9_EE14_S_do_relocateEPS9_SC_SC_RSA_St17integral_constantIbLb1EE
FN:450,_ZNSt6vectorIPN5Catch16TestCaseTracking8ITrackerESaIS3_EE14_S_do_relocateEPS3_S6_S6_RS4_St17integral_constantIbLb1EE
FNDA:4,_ZNSt6vectorIPN5Catch16TestCaseTracking8ITrackerESaIS3_EE14_S_do_relocateEPS3_S6_S6_RS4_St17integral_constantIbLb1EE
FN:450,_ZNSt6vectorImSaImEE14_S_do_relocateEPmS2_S2_RS0_St17integral_constantIbLb1EE
FNDA:0,_ZNSt6vectorImSaImEE14_S_do_relocateEPmS2_S2_RS0_St17integral_constantIbLb1EE
FN:450,_ZNSt6vectorISt4pairINSt7__cxx1112basic_stringIcSt11char_traitsIcESaIcEEES6_ESaIS7_EE14_S_do_relocateEPS7_SA_SA_RS8_St17integral_constantIbLb1EE
FNDA:0,_ZNSt6vectorISt4pairINSt7__cxx1112basic_stringIcSt11char_traitsIcESaIcEEES6_ESaIS7_EE14_S_do_relocateEPS7_SA_SA_RS8_St17integral_constantIbLb1EE
FN:450,_ZNSt6vectorISt10unique_ptrIKN5Catch20IExceptionTranslatorESt14default_deleteIS3_EESaIS6_EE14_S_do_relocateEPS6_S9_S9_RS7_St17integral_constantIbLb1EE
FNDA:0,_ZNSt6vectorISt10unique_ptrIKN5Catch20IExceptionTranslatorESt14default_deleteIS3_EESaIS6_EE14_S_do_relocateEPS6_S9_S9_RS7_St17integral_constantIbLb1EE
FN:450,_ZNSt6vectorISt10shared_ptrIN5Catch16TestCaseTracking8ITrackerEESaIS4_EE14_S_do_relocateEPS4_S7_S7_RS5_St17integral_constantIbLb1EE
FNDA:24,_ZNSt6vectorISt10shared_ptrIN5Catch16TestCaseTracking8ITrackerEESaIS4_EE14_S_do_relocateEPS4_S7_S7_RS5_St17integral_constantIbLb1EE
FN:450,_ZNSt6vectorIcSaIcEE14_S_do_relocateEPcS2_S2_RS0_St17integral_constantIbLb1EE
FNDA:0,_ZNSt6vectorIcSaIcEE14_S_do_relocateEPcS2_S2_RS0_St17integral_constantIbLb1EE
FN:450,_ZNSt6vectorISt4pairIccESaIS1_EE14_S_do_relocateEPS1_S4_S4_RS2_St17integral_constantIbLb1EE
FNDA:0,_ZNSt6vectorISt4pairIccESaIS1_EE14_S_do_relocateEPS1_S4_S4_RS2_St17integral_constantIbLb1EE
FN:450,_ZNSt6vectorIN5Catch8TestSpec6FilterESaIS2_EE14_S_do_relocateEPS2_S5_S5_RS3_St17integral_constantIbLb1EE
FNDA:2,_ZNSt6vectorIN5Catch8TestSpec6FilterESaIS2_EE14_S_do_relocateEPS2_S5_S5_RS3_St17integral_constantIbLb1EE
FN:450,_ZNSt6vectorIN5Catch8TestCaseESaIS1_EE14_S_do_relocateEPS1_S4_S4_RS2_St17integral_constantIbLb1EE
FNDA:4,_ZNSt6vectorIN5Catch8TestCaseESaIS1_EE14_S_do_relocateEPS1_S4_S4_RS2_St17integral_constantIbLb1EE
FN:450,_ZNSt6vectorISt10unique_ptrIN5Catch18IStreamingReporterESt14default_deleteIS2_EESaIS5_EE14_S_do_relocateEPS5_S8_S8_RS6_St17integral_constantIbLb1EE
FNDA:0,_ZNSt6vectorISt10unique_ptrIN5Catch18IStreamingReporterESt14default_deleteIS2_EESaIS5_EE14_S_do_relocateEPS5_S8_S8_RS6_St17integral_constantIbLb1EE
FN:450,_ZNSt6vectorISt4pairIlS_INSt7__cxx119sub_matchIN9__gnu_cxx17__normal_iteratorIPKcNS1_12basic_stringIcSt11char_traitsIcESaIcEEEEEEESaISD_EEESaISG_EE14_S_do_relocateEPSG_SJ_SJ_RSH_St17integral_constantIbLb1EE
FNDA:0,_ZNSt6vectorISt4pairIlS_INSt7__cxx119sub_matchIN9__gnu_cxx17__normal_iteratorIPKcNS1_12basic_stringIcSt11char_traitsIcESaIcEEEEEEESaISD_EEESaISG_EE14_S_do_relocateEPSG_SJ_SJ_RSH_St17integral_constantIbLb1EE
FN:450,_ZNSt6vectorISt10shared_ptrIN5Catch16IReporterFactoryEESaIS3_EE14_S_do_relocateEPS3_S6_S6_RS4_St17integral_constantIbLb1EE
FNDA:0,_ZNSt6vectorISt10shared_ptrIN5Catch16IReporterFactoryEESaIS3_EE14_S_do_relocateEPS3_S6_S6_RS4_St17integral_constantIbLb1EE
FN:450,_ZNSt6vectorISt10shared_ptrIN5Catch22CumulativeReporterBaseINS1_13JunitReporterEE4NodeINS1_12TestRunStatsENS5_INS1_14TestGroupStatsENS5_INS1_13TestCaseStatsENS4_11SectionNodeEEEEEEEESaISD_EE14_S_do_relocateEPSD_SG_SG_RSE_St17integral_constantIbLb1EE
FNDA:0,_ZNSt6vectorISt10shared_ptrIN5Catch22CumulativeReporterBaseINS1_13JunitReporterEE4NodeINS1_12TestRunStatsENS5_INS1_14TestGroupStatsENS5_INS1_13TestCaseStatsENS4_11SectionNodeEEEEEEEESaISD_EE14_S_do_relocateEPSD_SG_SG_RSE_St17integral_constantIbLb1EE
FN:450,_ZNSt6vectorINSt7__cxx119sub_matchIN9__gnu_cxx17__normal_iteratorIPKcNS0_12basic_stringIcSt11char_traitsIcESaIcEEEEEEESaISC_EE14_S_do_relocateEPSC_SF_SF_RSD_St17integral_constantIbLb1EE
FNDA:0,_ZNSt6vectorINSt7__cxx119sub_matchIN9__gnu_cxx17__normal_iteratorIPKcNS0_12basic_stringIcSt11char_traitsIcESaIcEEEEEEESaISC_EE14_S_do_relocateEPSC_SF_SF_RSD_St17integral_constantIbLb1EE
FN:450,_ZNSt6vectorIN5Catch5clara6detail3OptESaIS3_EE14_S_do_relocateEPS3_S6_S6_RS4_St17integral_constantIbLb1EE
FNDA:52,_ZNSt6vectorIN5Catch5clara6detail3OptESaIS3_EE14_S_do_relocateEPS3_S6_S6_RS4_St17integral_constantIbLb1EE
FN:450,_ZNSt6vectorIN5Catch5clara6detail3ArgESaIS3_EE14_S_do_relocateEPS3_S6_S6_RS4_St17integral_constantIbLb1EE
FNDA:2,_ZNSt6vectorIN5Catch5clara6detail3ArgESaIS3_EE14_S_do_relocateEPS3_S6_S6_RS4_St17integral_constantIbLb1EE
FN:450,_ZNSt6vectorIN5Catch11MessageInfoESaIS1_EE14_S_do_relocateEPS1_S4_S4_RS2_St17integral_constantIbLb1EE
FNDA:0,_ZNSt6vectorIN5Catch11MessageInfoESaIS1_EE14_S_do_relocateEPS1_S4_S4_RS2_St17integral_constantIbLb1EE
FN:450,_ZNSt6vectorIN5Catch5clara6detail5TokenESaIS3_EE14_S_do_relocateEPS3_S6_S6_RS4_St17integral_constantIbLb1EE
FNDA:0,_ZNSt6vectorIN5Catch5clara6detail5TokenESaIS3_EE14_S_do_relocateEPS3_S6_S6_RS4_St17integral_constantIbLb1EE
FN:450,_ZNSt6vectorINSt7__cxx1112basic_stringIcSt11char_traitsIcESaIcEEESaIS5_EE14_S_do_relocateEPS5_S8_S8_RS6_St17integral_constantIbLb1EE
FNDA:90,_ZNSt6vectorINSt7__cxx1112basic_stringIcSt11char_traitsIcESaIcEEESaIS5_EE14_S_do_relocateEPS5_S8_S8_RS6_St17integral_constantIbLb1EE
FN:450,_ZNSt6vectorISt10shared_ptrIN5Catch22CumulativeReporterBaseINS1_13JunitReporterEE4NodeINS1_14TestGroupStatsENS5_INS1_13TestCaseStatsENS4_11SectionNodeEEEEEESaISB_EE14_S_do_relocateEPSB_SE_SE_RSC_St17integral_constantIbLb1EE
FNDA:0,_ZNSt6vectorISt10shared_ptrIN5Catch22CumulativeReporterBaseINS1_13JunitReporterEE4NodeINS1_14TestGroupStatsENS5_INS1_13TestCaseStatsENS4_11SectionNodeEEEEEESaISB_EE14_S_do_relocateEPSB_SE_SE_RSC_St17integral_constantIbLb1EE
FN:450,_ZNSt6vectorINSt7__cxx1112regex_traitsIcE10_RegexMaskESaIS3_EE14_S_do_relocateEPS3_S6_S6_RS4_St17integral_constantIbLb1EE
FNDA:0,_ZNSt6vectorINSt7__cxx1112regex_traitsIcE10_RegexMaskESaIS3_EE14_S_do_relocateEPS3_S6_S6_RS4_St17integral_constantIbLb1EE
FN:450,_ZNSt6vectorIN5Catch5clara8TextFlow6ColumnESaIS3_EE14_S_do_relocateEPS3_S6_S6_RS4_St17integral_constantIbLb1EE
FNDA:0,_ZNSt6vectorIN5Catch5clara8TextFlow6ColumnESaIS3_EE14_S_do_relocateEPS3_S6_S6_RS4_St17integral_constantIbLb1EE
FN:462,_ZNSt6vectorIPN5Catch10ISingletonESaIS2_EE11_S_relocateEPS2_S5_S5_RS3_
FNDA:2,_ZNSt6vectorIPN5Catch10ISingletonESaIS2_EE11_S_relocateEPS2_S5_S5_RS3_
FN:462,_ZNSt6vectorISt10shared_ptrIN5Catch22CumulativeReporterBaseINS1_13JunitReporterEE4NodeINS1_14TestGroupStatsENS5_INS1_13TestCaseStatsENS4_11SectionNodeEEEEEESaISB_EE11_S_relocateEPSB_SE_SE_RSC_
FNDA:0,_ZNSt6vectorISt10shared_ptrIN5Catch22CumulativeReporterBaseINS1_13JunitReporterEE4NodeINS1_14TestGroupStatsENS5_INS1_13TestCaseStatsENS4_11SectionNodeEEEEEESaISB_EE11_S_relocateEPSB_SE_SE_RSC_
FN:462,_ZNSt6vectorISt10shared_ptrIN5Catch16IReporterFactoryEESaIS3_EE11_S_relocateEPS3_S6_S6_RS4_
FNDA:0,_ZNSt6vectorISt10shared_ptrIN5Catch16IReporterFactoryEESaIS3_EE11_S_relocateEPS3_S6_S6_RS4_
FN:462,_ZNSt6vectorIN5Catch14SectionEndInfoESaIS1_EE11_S_relocateEPS1_S4_S4_RS2_
FNDA:0,_ZNSt6vectorIN5Catch14SectionEndInfoESaIS1_EE11_S_relocateEPS1_S4_S4_RS2_
FN:462,_ZNSt6vectorINSt7__cxx1112regex_traitsIcE10_RegexMaskESaIS3_EE11_S_relocateEPS3_S6_S6_RS4_
FNDA:0,_ZNSt6vectorINSt7__cxx1112regex_traitsIcE10_RegexMaskESaIS3_EE11_S_relocateEPS3_S6_S6_RS4_
FN:462,_ZNSt6vectorISt10shared_ptrIN5Catch22CumulativeReporterBaseINS1_13JunitReporterEE4NodeINS1_13TestCaseStatsENS4_11SectionNodeEEEESaIS9_EE11_S_relocateEPS9_SC_SC_RSA_
FNDA:0,_ZNSt6vectorISt10shared_ptrIN5Catch22CumulativeReporterBaseINS1_13JunitReporterEE4NodeINS1_13TestCaseStatsENS4_11SectionNodeEEEESaIS9_EE11_S_relocateEPS9_SC_SC_RSA_
FN:462,_ZNSt6vectorISt10shared_ptrIN5Catch22CumulativeReporterBaseINS1_13JunitReporterEE11SectionNodeEESaIS6_EE11_S_relocateEPS6_S9_S9_RS7_
FNDA:0,_ZNSt6vectorISt10shared_ptrIN5Catch22CumulativeReporterBaseINS1_13JunitReporterEE11SectionNodeEESaIS6_EE11_S_relocateEPS6_S9_S9_RS7_
FN:462,_ZNSt6vectorINSt15__exception_ptr13exception_ptrESaIS1_EE11_S_relocateEPS1_S4_S4_RS2_
FNDA:0,_ZNSt6vectorINSt15__exception_ptr13exception_ptrESaIS1_EE11_S_relocateEPS1_S4_S4_RS2_
FN:462,_ZNSt6vectorIN5Catch11SectionInfoESaIS1_EE11_S_relocateEPS1_S4_S4_RS2_
FNDA:6,_ZNSt6vectorIN5Catch11SectionInfoESaIS1_EE11_S_relocateEPS1_S4_S4_RS2_
FN:462,_ZNSt6vectorIN5Catch13SummaryColumnESaIS1_EE11_S_relocateEPS1_S4_S4_RS2_
FNDA:0,_ZNSt6vectorIN5Catch13SummaryColumnESaIS1_EE11_S_relocateEPS1_S4_S4_RS2_
FN:462,_ZNSt6vectorIN5Catch5clara8TextFlow6Column8iteratorESaIS4_EE11_S_relocateEPS4_S7_S7_RS5_
FNDA:0,_ZNSt6vectorIN5Catch5clara8TextFlow6Column8iteratorESaIS4_EE11_S_relocateEPS4_S7_S7_RS5_
FN:462,_ZNSt6vectorISt4pairINSt7__cxx1112basic_stringIcSt11char_traitsIcESaIcEEES6_ESaIS7_EE11_S_relocateEPS7_SA_SA_RS8_
FNDA:0,_ZNSt6vectorISt4pairINSt7__cxx1112basic_stringIcSt11char_traitsIcESaIcEEES6_ESaIS7_EE11_S_relocateEPS7_SA_SA_RS8_
FN:462,_ZNSt6vectorISt10unique_ptrIN5Catch18IStreamingReporterESt14default_deleteIS2_EESaIS5_EE11_S_relocateEPS5_S8_S8_RS6_
FNDA:0,_ZNSt6vectorISt10unique_ptrIN5Catch18IStreamingReporterESt14default_deleteIS2_EESaIS5_EE11_S_relocateEPS5_S8_S8_RS6_
FN:462,_ZNSt6vectorISt4pairIccESaIS1_EE11_S_relocateEPS1_S4_S4_RS2_
FNDA:0,_ZNSt6vectorISt4pairIccESaIS1_EE11_S_relocateEPS1_S4_S4_RS2_
FN:462,_ZNSt6vectorIN5Catch11MessageInfoESaIS1_EE11_S_relocateEPS1_S4_S4_RS2_
FNDA:0,_ZNSt6vectorIN5Catch11MessageInfoESaIS1_EE11_S_relocateEPS1_S4_S4_RS2_
FN:462,_ZNSt6vectorISt4pairIlS_INSt7__cxx119sub_matchIN9__gnu_cxx17__normal_iteratorIPKcNS1_12basic_stringIcSt11char_traitsIcESaIcEEEEEEESaISD_EEESaISG_EE11_S_relocateEPSG_SJ_SJ_RSH_
FNDA:0,_ZNSt6vectorISt4pairIlS_INSt7__cxx119sub_matchIN9__gnu_cxx17__normal_iteratorIPKcNS1_12basic_stringIcSt11char_traitsIcESaIcEEEEEEESaISD_EEESaISG_EE11_S_relocateEPSG_SJ_SJ_RSH_
FN:462,_ZNSt6vectorImSaImEE11_S_relocateEPmS2_S2_RS0_
FNDA:0,_ZNSt6vectorImSaImEE11_S_relocateEPmS2_S2_RS0_
FN:462,_ZNSt6vectorIN5Catch5clara6detail3OptESaIS3_EE11_S_relocateEPS3_S6_S6_RS4_
FNDA:52,_ZNSt6vectorIN5Catch5clara6detail3OptESaIS3_EE11_S_relocateEPS3_S6_S6_RS4_
FN:462,_ZNSt6vectorIN5Catch5clara6detail3ArgESaIS3_EE11_S_relocateEPS3_S6_S6_RS4_
FNDA:2,_ZNSt6vectorIN5Catch5clara6detail3ArgESaIS3_EE11_S_relocateEPS3_S6_S6_RS4_
FN:462,_ZNSt6vectorIN5Catch5clara6detail5TokenESaIS3_EE11_S_relocateEPS3_S6_S6_RS4_
FNDA:0,_ZNSt6vectorIN5Catch5clara6detail5TokenESaIS3_EE11_S_relocateEPS3_S6_S6_RS4_
FN:462,_ZNSt6vectorIN5Catch5clara8TextFlow6ColumnESaIS3_EE11_S_relocateEPS3_S6_S6_RS4_
FNDA:0,_ZNSt6vectorIN5Catch5clara8TextFlow6ColumnESaIS3_EE11_S_relocateEPS3_S6_S6_RS4_
FN:462,_ZNSt6vectorIcSaIcEE11_S_relocateEPcS2_S2_RS0_
FNDA:0,_ZNSt6vectorIcSaIcEE11_S_relocateEPcS2_S2_RS0_
FN:462,_ZNSt6vectorINSt7__cxx119sub_matchIN9__gnu_cxx17__normal_iteratorIPKcNS0_12basic_stringIcSt11char_traitsIcESaIcEEEEEEESaISC_EE11_S_relocateEPSC_SF_SF_RSD_
FNDA:0,_ZNSt6vectorINSt7__cxx119sub_matchIN9__gnu_cxx17__normal_iteratorIPKcNS0_12basic_stringIcSt11char_traitsIcESaIcEEEEEEESaISC_EE11_S_relocateEPSC_SF_SF_RSD_
FN:462,_ZNSt6vectorINSt7__cxx1112basic_stringIcSt11char_traitsIcESaIcEEESaIS5_EE11_S_relocateEPS5_S8_S8_RS6_
FNDA:90,_ZNSt6vectorINSt7__cxx1112basic_stringIcSt11char_traitsIcESaIcEEESaIS5_EE11_S_relocateEPS5_S8_S8_RS6_
FN:462,_ZNSt6vectorISt10unique_ptrIKN5Catch20IExceptionTranslatorESt14default_deleteIS3_EESaIS6_EE11_S_relocateEPS6_S9_S9_RS7_
FNDA:0,_ZNSt6vectorISt10unique_ptrIKN5Catch20IExceptionTranslatorESt14default_deleteIS3_EESaIS6_EE11_S_relocateEPS6_S9_S9_RS7_
FN:462,_ZNSt6vectorIN5Catch8TestCaseESaIS1_EE11_S_relocateEPS1_S4_S4_RS2_
FNDA:4,_ZNSt6vectorIN5Catch8TestCaseESaIS1_EE11_S_relocateEPS1_S4_S4_RS2_
FN:462,_ZNSt6vectorIPN5Catch16TestCaseTracking8ITrackerESaIS3_EE11_S_relocateEPS3_S6_S6_RS4_
FNDA:4,_ZNSt6vectorIPN5Catch16TestCaseTracking8ITrackerESaIS3_EE11_S_relocateEPS3_S6_S6_RS4_
FN:462,_ZNSt6vectorISt10shared_ptrIN5Catch22CumulativeReporterBaseINS1_13JunitReporterEE4NodeINS1_12TestRunStatsENS5_INS1_14TestGroupStatsENS5_INS1_13TestCaseStatsENS4_11SectionNodeEEEEEEEESaISD_EE11_S_relocateEPSD_SG_SG_RSE_
FNDA:0,_ZNSt6vectorISt10shared_ptrIN5Catch22CumulativeReporterBaseINS1_13JunitReporterEE4NodeINS1_12TestRunStatsENS5_INS1_14TestGroupStatsENS5_INS1_13TestCaseStatsENS4_11SectionNodeEEEEEEEESaISD_EE11_S_relocateEPSD_SG_SG_RSE_
FN:462,_ZNSt6vectorIN5Catch8TestSpec6FilterESaIS2_EE11_S_relocateEPS2_S5_S5_RS3_
FNDA:2,_ZNSt6vectorIN5Catch8TestSpec6FilterESaIS2_EE11_S_relocateEPS2_S5_S5_RS3_
FN:462,_ZNSt6vectorISt10unique_ptrINSt7__cxx1119basic_ostringstreamIcSt11char_traitsIcESaIcEEESt14default_deleteIS6_EESaIS9_EE11_S_relocateEPS9_SC_SC_RSA_
FNDA:0,_ZNSt6vectorISt10unique_ptrINSt7__cxx1119basic_ostringstreamIcSt11char_traitsIcESaIcEEESt14default_deleteIS6_EESaIS9_EE11_S_relocateEPS9_SC_SC_RSA_
FN:462,_ZNSt6vectorISt10shared_ptrIN5Catch8TestSpec7PatternEESaIS4_EE11_S_relocateEPS4_S7_S7_RS5_
FNDA:2,_ZNSt6vectorISt10shared_ptrIN5Catch8TestSpec7PatternEESaIS4_EE11_S_relocateEPS4_S7_S7_RS5_
FN:462,_ZNSt6vectorISt10shared_ptrIN5Catch16TestCaseTracking8ITrackerEESaIS4_EE11_S_relocateEPS4_S7_S7_RS5_
FNDA:24,_ZNSt6vectorISt10shared_ptrIN5Catch16TestCaseTracking8ITrackerEESaIS4_EE11_S_relocateEPS4_S7_S7_RS5_
FN:484,_ZNSt6vectorINSt7__cxx119sub_matchIN9__gnu_cxx17__normal_iteratorIPKcNS0_12basic_stringIcSt11char_traitsIcESaIcEEEEEEESaISC_EEC2Ev
FNDA:0,_ZNSt6vectorINSt7__cxx119sub_matchIN9__gnu_cxx17__normal_iteratorIPKcNS0_12basic_stringIcSt11char_traitsIcESaIcEEEEEEESaISC_EEC2Ev
FN:484,_ZNSt6vectorINSt7__cxx1112regex_traitsIcE10_RegexMaskESaIS3_EEC2Ev
FNDA:0,_ZNSt6vectorINSt7__cxx1112regex_traitsIcE10_RegexMaskESaIS3_EEC2Ev
FN:484,_ZNSt6vectorISt4pairIccESaIS1_EEC2Ev
FNDA:0,_ZNSt6vectorISt4pairIccESaIS1_EEC2Ev
FN:484,_ZNSt6vectorIcSaIcEEC2Ev
FNDA:0,_ZNSt6vectorIcSaIcEEC2Ev
FN:484,_ZNSt6vectorImSaImEEC2Ev
FNDA:1,_ZNSt6vectorImSaImEEC2Ev
FN:484,_ZNSt6vectorIN5Catch5clara6detail3ArgESaIS3_EEC2Ev
FNDA:2,_ZNSt6vectorIN5Catch5clara6detail3ArgESaIS3_EEC2Ev
FN:484,_ZNSt6vectorIN5Catch8TestSpec6FilterESaIS2_EEC2Ev
FNDA:2,_ZNSt6vectorIN5Catch8TestSpec6FilterESaIS2_EEC2Ev
FN:484,_ZNSt6vectorISt4pairIlS_INSt7__cxx119sub_matchIN9__gnu_cxx17__normal_iteratorIPKcNS1_12basic_stringIcSt11char_traitsIcESaIcEEEEEEESaISD_EEESaISG_EEC2Ev
FNDA:0,_ZNSt6vectorISt4pairIlS_INSt7__cxx119sub_matchIN9__gnu_cxx17__normal_iteratorIPKcNS1_12basic_stringIcSt11char_traitsIcESaIcEEEEEEESaISD_EEESaISG_EEC2Ev
FN:484,_ZNSt6vectorISt4pairINSt7__cxx1112basic_stringIcSt11char_traitsIcESaIcEEES6_ESaIS7_EEC2Ev
FNDA:0,_ZNSt6vectorISt4pairINSt7__cxx1112basic_stringIcSt11char_traitsIcESaIcEEES6_ESaIS7_EEC2Ev
FN:484,_ZNSt6vectorIN5Catch5clara6detail11HelpColumnsESaIS3_EEC2Ev
FNDA:0,_ZNSt6vectorIN5Catch5clara6detail11HelpColumnsESaIS3_EEC2Ev
FN:484,_ZNSt6vectorISt10shared_ptrIN5Catch16IReporterFactoryEESaIS3_EEC2Ev
FNDA:1,_ZNSt6vectorISt10shared_ptrIN5Catch16IReporterFactoryEESaIS3_EEC2Ev
FN:484,_ZNSt6vectorISt10unique_ptrIKN5Catch20IExceptionTranslatorESt14default_deleteIS3_EESaIS6_EEC2Ev
FNDA:1,_ZNSt6vectorISt10unique_ptrIKN5Catch20IExceptionTranslatorESt14default_deleteIS3_EESaIS6_EEC2Ev
FN:484,_ZNSt6vectorINSt15__exception_ptr13exception_ptrESaIS1_EEC2Ev
FNDA:1,_ZNSt6vectorINSt15__exception_ptr13exception_ptrESaIS1_EEC2Ev
FN:484,_ZNSt6vectorIN5Catch11SectionInfoESaIS1_EEC2Ev
FNDA:1,_ZNSt6vectorIN5Catch11SectionInfoESaIS1_EEC2Ev
FN:484,_ZNSt6vectorIN5Catch5clara8TextFlow6ColumnESaIS3_EEC2Ev
FNDA:0,_ZNSt6vectorIN5Catch5clara8TextFlow6ColumnESaIS3_EEC2Ev
FN:484,_ZNSt6vectorIN5Catch5clara6detail5TokenESaIS3_EEC2Ev
FNDA:1,_ZNSt6vectorIN5Catch5clara6detail5TokenESaIS3_EEC2Ev
FN:484,_ZNSt6vectorISt10shared_ptrIN5Catch8TestSpec7PatternEESaIS4_EEC2Ev
FNDA:2,_ZNSt6vectorISt10shared_ptrIN5Catch8TestSpec7PatternEESaIS4_EEC2Ev
FN:484,_ZNSt6vectorIPN5Catch10ISingletonESaIS2_EEC2Ev
FNDA:2,_ZNSt6vectorIPN5Catch10ISingletonESaIS2_EEC2Ev
FN:484,_ZNSt6vectorISt10unique_ptrINSt7__cxx1119basic_ostringstreamIcSt11char_traitsIcESaIcEEESt14default_deleteIS6_EESaIS9_EEC2Ev
FNDA:0,_ZNSt6vectorISt10unique_ptrINSt7__cxx1119basic_ostringstreamIcSt11char_traitsIcESaIcEEESt14default_deleteIS6_EESaIS9_EEC2Ev
FN:484,_ZNSt6vectorIN5Catch8TestCaseESaIS1_EEC2Ev
FNDA:2,_ZNSt6vectorIN5Catch8TestCaseESaIS1_EEC2Ev
FN:484,_ZNSt6vectorIN5Catch5clara6detail3OptESaIS3_EEC2Ev
FNDA:2,_ZNSt6vectorIN5Catch5clara6detail3OptESaIS3_EEC2Ev
FN:484,_ZNSt6vectorINSt8__detail6_StateIcEESaIS2_EEC2Ev
FNDA:0,_ZNSt6vectorINSt8__detail6_StateIcEESaIS2_EEC2Ev
FN:484,_ZNSt6vectorIPN5Catch16TestCaseTracking8ITrackerESaIS3_EEC2Ev
FNDA:1,_ZNSt6vectorIPN5Catch16TestCaseTracking8ITrackerESaIS3_EEC2Ev
FN:484,_ZNSt6vectorISt10shared_ptrIN5Catch22CumulativeReporterBaseINS1_13JunitReporterEE11SectionNodeEESaIS6_EEC2Ev
FNDA:0,_ZNSt6vectorISt10shared_ptrIN5Catch22CumulativeReporterBaseINS1_13JunitReporterEE11SectionNodeEESaIS6_EEC2Ev
FN:484,_ZNSt6vectorINSt7__cxx1112basic_stringIcSt11char_traitsIcESaIcEEESaIS5_EEC2Ev
FNDA:56,_ZNSt6vectorINSt7__cxx1112basic_stringIcSt11char_traitsIcESaIcEEESaIS5_EEC2Ev
FN:484,_ZNSt6vectorISt10shared_ptrIN5Catch16TestCaseTracking8ITrackerEESaIS4_EEC2Ev
FNDA:22,_ZNSt6vectorISt10shared_ptrIN5Catch16TestCaseTracking8ITrackerEESaIS4_EEC2Ev
FN:484,_ZNSt6vectorIN5Catch13SummaryColumnESaIS1_EEC2Ev
FNDA:0,_ZNSt6vectorIN5Catch13SummaryColumnESaIS1_EEC2Ev
FN:484,_ZNSt6vectorISt10shared_ptrIN5Catch22CumulativeReporterBaseINS1_13JunitReporterEE4NodeINS1_12TestRunStatsENS5_INS1_14TestGroupStatsENS5_INS1_13TestCaseStatsENS4_11SectionNodeEEEEEEEESaISD_EEC2Ev
FNDA:0,_ZNSt6vectorISt10shared_ptrIN5Catch22CumulativeReporterBaseINS1_13JunitReporterEE4NodeINS1_12TestRunStatsENS5_INS1_14TestGroupStatsENS5_INS1_13TestCaseStatsENS4_11SectionNodeEEEEEEEESaISD_EEC2Ev
FN:484,_ZNSt6vectorISt10shared_ptrIN5Catch22CumulativeReporterBaseINS1_13JunitReporterEE4NodeINS1_14TestGroupStatsENS5_INS1_13TestCaseStatsENS4_11SectionNodeEEEEEESaISB_EEC2Ev
FNDA:0,_ZNSt6vectorISt10shared_ptrIN5Catch22CumulativeReporterBaseINS1_13JunitReporterEE4NodeINS1_14TestGroupStatsENS5_INS1_13TestCaseStatsENS4_11SectionNodeEEEEEESaISB_EEC2Ev
FN:484,_ZNSt6vectorISt10unique_ptrIN5Catch18IStreamingReporterESt14default_deleteIS2_EESaIS5_EEC2Ev
FNDA:0,_ZNSt6vectorISt10unique_ptrIN5Catch18IStreamingReporterESt14default_deleteIS2_EESaIS5_EEC2Ev
FN:484,_ZNSt6vectorISt10shared_ptrIN5Catch22CumulativeReporterBaseINS1_13JunitReporterEE4NodeINS1_13TestCaseStatsENS4_11SectionNodeEEEESaIS9_EEC2Ev
FNDA:0,_ZNSt6vectorISt10shared_ptrIN5Catch22CumulativeReporterBaseINS1_13JunitReporterEE4NodeINS1_13TestCaseStatsENS4_11SectionNodeEEEESaIS9_EEC2Ev
FN:484,_ZNSt6vectorIS_ISt10shared_ptrIN5Catch22CumulativeReporterBaseINS1_13JunitReporterEE11SectionNodeEESaIS6_EESaIS8_EEC2Ev
FNDA:0,_ZNSt6vectorIS_ISt10shared_ptrIN5Catch22CumulativeReporterBaseINS1_13JunitReporterEE11SectionNodeEESaIS6_EESaIS8_EEC2Ev
FN:484,_ZNSt6vectorIN5Catch14SectionEndInfoESaIS1_EEC2Ev
FNDA:1,_ZNSt6vectorIN5Catch14SectionEndInfoESaIS1_EEC2Ev
FN:484,_ZNSt6vectorIN5Catch5clara8TextFlow6Column8iteratorESaIS4_EEC2Ev
FNDA:0,_ZNSt6vectorIN5Catch5clara8TextFlow6Column8iteratorESaIS4_EEC2Ev
FN:484,_ZNSt6vectorIN5Catch11MessageInfoESaIS1_EEC2Ev
FNDA:1,_ZNSt6vectorIN5Catch11MessageInfoESaIS1_EEC2Ev
FN:484,_ZNSt6vectorIN5Catch14AssertionStatsESaIS1_EEC2Ev
FNDA:0,_ZNSt6vectorIN5Catch14AssertionStatsESaIS1_EEC2Ev
FN:494,_ZNSt6vectorIN5Catch5clara6detail3OptESaIS3_EEC2ERKS4_
FNDA:1,_ZNSt6vectorIN5Catch5clara6detail3OptESaIS3_EEC2ERKS4_
FN:494,_ZNSt6vectorISt10shared_ptrIN5Catch8TestSpec7PatternEESaIS4_EEC2ERKS5_
FNDA:1,_ZNSt6vectorISt10shared_ptrIN5Catch8TestSpec7PatternEESaIS4_EEC2ERKS5_
FN:494,_ZNSt6vectorINSt7__cxx119sub_matchIN9__gnu_cxx17__normal_iteratorIPKcNS0_12basic_stringIcSt11char_traitsIcESaIcEEEEEEESaISC_EEC2ERKSD_
FNDA:0,_ZNSt6vectorINSt7__cxx119sub_matchIN9__gnu_cxx17__normal_iteratorIPKcNS0_12basic_stringIcSt11char_traitsIcESaIcEEEEEEESaISC_EEC2ERKSD_
FN:494,_ZNSt6vectorINSt7__cxx1112basic_stringIcSt11char_traitsIcESaIcEEESaIS5_EEC2ERKS6_
FNDA:2,_ZNSt6vectorINSt7__cxx1112basic_stringIcSt11char_traitsIcESaIcEEESaIS5_EEC2ERKS6_
FN:494,_ZNSt6vectorIN5Catch5clara6detail3ArgESaIS3_EEC2ERKS4_
FNDA:1,_ZNSt6vectorIN5Catch5clara6detail3ArgESaIS3_EEC2ERKS4_
FN:494,_ZNSt6vectorIN5Catch8TestCaseESaIS1_EEC2ERKS2_
FNDA:1,_ZNSt6vectorIN5Catch8TestCaseESaIS1_EEC2ERKS2_
FN:494,_ZNSt6vectorIN5Catch8TestSpec6FilterESaIS2_EEC2ERKS3_
FNDA:1,_ZNSt6vectorIN5Catch8TestSpec6FilterESaIS2_EEC2ERKS3_
FN:507,_ZNSt6vectorISt4pairIN9__gnu_cxx17__normal_iteratorIPKcNSt7__cxx1112basic_stringIcSt11char_traitsIcESaIcEEEEEiESaISC_EEC2EmRKSD_
FNDA:0,_ZNSt6vectorISt4pairIN9__gnu_cxx17__normal_iteratorIPKcNSt7__cxx1112basic_stringIcSt11char_traitsIcESaIcEEEEEiESaISC_EEC2EmRKSD_
FN:550,_ZNSt6vectorINSt7__cxx1112basic_stringIcSt11char_traitsIcESaIcEEESaIS5_EEC2ERKS7_
FNDA:778,_ZNSt6vectorINSt7__cxx1112basic_stringIcSt11char_traitsIcESaIcEEESaIS5_EEC2ERKS7_
FN:550,_ZNSt6vectorIN5Catch8TestSpec6FilterESaIS2_EEC2ERKS4_
FNDA:2,_ZNSt6vectorIN5Catch8TestSpec6FilterESaIS2_EEC2ERKS4_
FN:550,_ZNSt6vectorIN5Catch11MessageInfoESaIS1_EEC2ERKS3_
FNDA:0,_ZNSt6vectorIN5Catch11MessageInfoESaIS1_EEC2ERKS3_
FN:550,_ZNSt6vectorIN5Catch5clara8TextFlow6ColumnESaIS3_EEC2ERKS5_
FNDA:0,_ZNSt6vectorIN5Catch5clara8TextFlow6ColumnESaIS3_EEC2ERKS5_
FN:550,_ZNSt6vectorIN5Catch5clara6detail5TokenESaIS3_EEC2ERKS5_
FNDA:4,_ZNSt6vectorIN5Catch5clara6detail5TokenESaIS3_EEC2ERKS5_
FN:550,_ZNSt6vectorIN5Catch8TestCaseESaIS1_EEC2ERKS3_
FNDA:1,_ZNSt6vectorIN5Catch8TestCaseESaIS1_EEC2ERKS3_
FN:550,_ZNSt6vectorISt4pairINSt7__cxx1112basic_stringIcSt11char_traitsIcESaIcEEES6_ESaIS7_EEC2ERKS9_
FNDA:0,_ZNSt6vectorISt4pairINSt7__cxx1112basic_stringIcSt11char_traitsIcESaIcEEES6_ESaIS7_EEC2ERKS9_
FN:550,_ZNSt6vectorIcSaIcEEC2ERKS1_
FNDA:0,_ZNSt6vectorIcSaIcEEC2ERKS1_
FN:550,_ZNSt6vectorISt4pairIccESaIS1_EEC2ERKS3_
FNDA:0,_ZNSt6vectorISt4pairIccESaIS1_EEC2ERKS3_
FN:550,_ZNSt6vectorINSt7__cxx119sub_matchIN9__gnu_cxx17__normal_iteratorIPKcNS0_12basic_stringIcSt11char_traitsIcESaIcEEEEEEESaISC_EEC2ERKSE_
FNDA:0,_ZNSt6vectorINSt7__cxx119sub_matchIN9__gnu_cxx17__normal_iteratorIPKcNS0_12basic_stringIcSt11char_traitsIcESaIcEEEEEEESaISC_EEC2ERKSE_
FN:550,_ZNSt6vectorINSt7__cxx1112regex_traitsIcE10_RegexMaskESaIS3_EEC2ERKS5_
FNDA:0,_ZNSt6vectorINSt7__cxx1112regex_traitsIcE10_RegexMaskESaIS3_EEC2ERKS5_
FN:550,_ZNSt6vectorIN5Catch5clara6detail3OptESaIS3_EEC2ERKS5_
FNDA:56,_ZNSt6vectorIN5Catch5clara6detail3OptESaIS3_EEC2ERKS5_
FN:550,_ZNSt6vectorIN5Catch5clara6detail3ArgESaIS3_EEC2ERKS5_
FNDA:56,_ZNSt6vectorIN5Catch5clara6detail3ArgESaIS3_EEC2ERKS5_
FN:550,_ZNSt6vectorISt10shared_ptrIN5Catch8TestSpec7PatternEESaIS4_EEC2ERKS6_
FNDA:3,_ZNSt6vectorISt10shared_ptrIN5Catch8TestSpec7PatternEESaIS4_EEC2ERKS6_
FN:569,_ZNSt6vectorIN5Catch12_GLOBAL__N_110ColumnInfoESaIS2_EEC2EOS4_
FNDA:1,_ZNSt6vectorIN5Catch12_GLOBAL__N_110ColumnInfoESaIS2_EEC2EOS4_
FN:569,_ZNSt6vectorISt4pairIlS_INSt7__cxx119sub_matchIN9__gnu_cxx17__normal_iteratorIPKcNS1_12basic_stringIcSt11char_traitsIcESaIcEEEEEEESaISD_EEESaISG_EEC2EOSI_
FNDA:0,_ZNSt6vectorISt4pairIlS_INSt7__cxx119sub_matchIN9__gnu_cxx17__normal_iteratorIPKcNS1_12basic_stringIcSt11char_traitsIcESaIcEEEEEEESaISD_EEESaISG_EEC2EOSI_
FN:569,_ZNSt6vectorINSt7__cxx119sub_matchIN9__gnu_cxx17__normal_iteratorIPKcNS0_12basic_stringIcSt11char_traitsIcESaIcEEEEEEESaISC_EEC2EOSE_
FNDA:0,_ZNSt6vectorINSt7__cxx119sub_matchIN9__gnu_cxx17__normal_iteratorIPKcNS0_12basic_stringIcSt11char_traitsIcESaIcEEEEEEESaISC_EEC2EOSE_
FN:569,_ZNSt6vectorISt4pairINSt7__cxx1112basic_stringIcSt11char_traitsIcESaIcEEES6_ESaIS7_EEC2EOS9_
FNDA:0,_ZNSt6vectorISt4pairINSt7__cxx1112basic_stringIcSt11char_traitsIcESaIcEEES6_ESaIS7_EEC2EOS9_
FN:569,_ZNSt6vectorINSt7__cxx1112regex_traitsIcE10_RegexMaskESaIS3_EEC2EOS5_
FNDA:0,_ZNSt6vectorINSt7__cxx1112regex_traitsIcE10_RegexMaskESaIS3_EEC2EOS5_
FN:569,_ZNSt6vectorISt4pairIccESaIS1_EEC2EOS3_
FNDA:0,_ZNSt6vectorISt4pairIccESaIS1_EEC2EOS3_
FN:569,_ZNSt6vectorIcSaIcEEC2EOS1_
FNDA:0,_ZNSt6vectorIcSaIcEEC2EOS1_
FN:569,_ZNSt6vectorISt10shared_ptrIN5Catch8TestSpec7PatternEESaIS4_EEC2EOS6_
FNDA:0,_ZNSt6vectorISt10shared_ptrIN5Catch8TestSpec7PatternEESaIS4_EEC2EOS6_
FN:569,_ZNSt6vectorINSt7__cxx1112basic_stringIcSt11char_traitsIcESaIcEEESaIS5_EEC2EOS7_
FNDA:331,_ZNSt6vectorINSt7__cxx1112basic_stringIcSt11char_traitsIcESaIcEEESaIS5_EEC2EOS7_
FN:622,_ZNSt6vectorIN5Catch5clara6detail11HelpColumnsESaIS3_EEC2ESt16initializer_listIS3_ERKS4_
FNDA:0,_ZNSt6vectorIN5Catch5clara6detail11HelpColumnsESaIS3_EEC2ESt16initializer_listIS3_ERKS4_
FN:622,_ZNSt6vectorIN5Catch12_GLOBAL__N_110ColumnInfoESaIS2_EEC2ESt16initializer_listIS2_ERKS3_
FNDA:1,_ZNSt6vectorIN5Catch12_GLOBAL__N_110ColumnInfoESaIS2_EEC2ESt16initializer_listIS2_ERKS3_
FN:650,_ZNSt6vectorIcSaIcEEC2IPcvEET_S4_RKS0_
FNDA:0,_ZNSt6vectorIcSaIcEEC2IPcvEET_S4_RKS0_
FN:650,_ZNSt6vectorIcSaIcEEC2IPKcvEET_S5_RKS0_
FNDA:0,_ZNSt6vectorIcSaIcEEC2IPKcvEET_S5_RKS0_
FN:650,_ZNSt6vectorINSt7__cxx1112basic_stringIcSt11char_traitsIcESaIcEEESaIS5_EEC2IPKPKcvEET_SD_RKS6_
FNDA:1,_ZNSt6vectorINSt7__cxx1112basic_stringIcSt11char_traitsIcESaIcEEESaIS5_EEC2IPKPKcvEET_SD_RKS6_
FN:675,_ZNSt6vectorIcSaIcEED2Ev
FNDA:0,_ZNSt6vectorIcSaIcEED2Ev
FN:675,_ZNSt6vectorIS_ISt10shared_ptrIN5Catch22CumulativeReporterBaseINS1_13JunitReporterEE11SectionNodeEESaIS6_EESaIS8_EED2Ev
FNDA:0,_ZNSt6vectorIS_ISt10shared_ptrIN5Catch22CumulativeReporterBaseINS1_13JunitReporterEE11SectionNodeEESaIS6_EESaIS8_EED2Ev
FN:675,_ZNSt6vectorIN5Catch14AssertionStatsESaIS1_EED2Ev
FNDA:0,_ZNSt6vectorIN5Catch14AssertionStatsESaIS1_EED2Ev
FN:675,_ZNSt6vectorIN5Catch5clara6detail5TokenESaIS3_EED2Ev
FNDA:5,_ZNSt6vectorIN5Catch5clara6detail5TokenESaIS3_EED2Ev
FN:675,_ZNSt6vectorINSt7__cxx119sub_matchIN9__gnu_cxx17__normal_iteratorIPKcNS0_12basic_stringIcSt11char_traitsIcESaIcEEEEEEESaISC_EED2Ev
FNDA:0,_ZNSt6vectorINSt7__cxx119sub_matchIN9__gnu_cxx17__normal_iteratorIPKcNS0_12basic_stringIcSt11char_traitsIcESaIcEEEEEEESaISC_EED2Ev
FN:675,_ZNSt6vectorISt10unique_ptrINSt7__cxx1119basic_ostringstreamIcSt11char_traitsIcESaIcEEESt14default_deleteIS6_EESaIS9_EED2Ev
FNDA:0,_ZNSt6vectorISt10unique_ptrINSt7__cxx1119basic_ostringstreamIcSt11char_traitsIcESaIcEEESt14default_deleteIS6_EESaIS9_EED2Ev
FN:675,_ZNSt6vectorIN5Catch8TestCaseESaIS1_EED2Ev
FNDA:4,_ZNSt6vectorIN5Catch8TestCaseESaIS1_EED2Ev
FN:675,_ZNSt6vectorIN5Catch5clara8TextFlow6ColumnESaIS3_EED2Ev
FNDA:0,_ZNSt6vectorIN5Catch5clara8TextFlow6ColumnESaIS3_EED2Ev
FN:675,_ZNSt6vectorIPN5Catch10ISingletonESaIS2_EED2Ev
FNDA:2,_ZNSt6vectorIPN5Catch10ISingletonESaIS2_EED2Ev
FN:675,_ZNSt6vectorINSt15__exception_ptr13exception_ptrESaIS1_EED2Ev
FNDA:1,_ZNSt6vectorINSt15__exception_ptr13exception_ptrESaIS1_EED2Ev
FN:675,_ZNSt6vectorIN5Catch13SummaryColumnESaIS1_EED2Ev
FNDA:0,_ZNSt6vectorIN5Catch13SummaryColumnESaIS1_EED2Ev
FN:675,_ZNSt6vectorIN5Catch5clara6detail11HelpColumnsESaIS3_EED2Ev
FNDA:0,_ZNSt6vectorIN5Catch5clara6detail11HelpColumnsESaIS3_EED2Ev
FN:675,_ZNSt6vectorINSt7__cxx1112basic_stringIcSt11char_traitsIcESaIcEEESaIS5_EED2Ev
FNDA:1168,_ZNSt6vectorINSt7__cxx1112basic_stringIcSt11char_traitsIcESaIcEEESaIS5_EED2Ev
FN:675,_ZNSt6vectorIN5Catch11MessageInfoESaIS1_EED2Ev
FNDA:1,_ZNSt6vectorIN5Catch11MessageInfoESaIS1_EED2Ev
FN:675,_ZNSt6vectorISt10shared_ptrIN5Catch16IReporterFactoryEESaIS3_EED2Ev
FNDA:1,_ZNSt6vectorISt10shared_ptrIN5Catch16IReporterFactoryEESaIS3_EED2Ev
FN:675,_ZNSt6vectorISt10shared_ptrIN5Catch16TestCaseTracking8ITrackerEESaIS4_EED2Ev
FNDA:22,_ZNSt6vectorISt10shared_ptrIN5Catch16TestCaseTracking8ITrackerEESaIS4_EED2Ev
FN:675,_ZNSt6vectorISt4pairIlS_INSt7__cxx119sub_matchIN9__gnu_cxx17__normal_iteratorIPKcNS1_12basic_stringIcSt11char_traitsIcESaIcEEEEEEESaISD_EEESaISG_EED2Ev
FNDA:0,_ZNSt6vectorISt4pairIlS_INSt7__cxx119sub_matchIN9__gnu_cxx17__normal_iteratorIPKcNS1_12basic_stringIcSt11char_traitsIcESaIcEEEEEEESaISD_EEESaISG_EED2Ev
FN:675,_ZNSt6vectorISt4pairIN9__gnu_cxx17__normal_iteratorIPKcNSt7__cxx1112basic_stringIcSt11char_traitsIcESaIcEEEEEiESaISC_EED2Ev
FNDA:0,_ZNSt6vectorISt4pairIN9__gnu_cxx17__normal_iteratorIPKcNSt7__cxx1112basic_stringIcSt11char_traitsIcESaIcEEEEEiESaISC_EED2Ev
FN:675,_ZNSt6vectorISt4pairIccESaIS1_EED2Ev
FNDA:0,_ZNSt6vectorISt4pairIccESaIS1_EED2Ev
FN:675,_ZNSt6vectorINSt7__cxx1112regex_traitsIcE10_RegexMaskESaIS3_EED2Ev
FNDA:0,_ZNSt6vectorINSt7__cxx1112regex_traitsIcE10_RegexMaskESaIS3_EED2Ev
FN:675,_ZNSt6vectorIN5Catch14SectionEndInfoESaIS1_EED2Ev
FNDA:1,_ZNSt6vectorIN5Catch14SectionEndInfoESaIS1_EED2Ev
FN:675,_ZNSt6vectorIPN5Catch16TestCaseTracking8ITrackerESaIS3_EED2Ev
FNDA:1,_ZNSt6vectorIPN5Catch16TestCaseTracking8ITrackerESaIS3_EED2Ev
FN:675,_ZNSt6vectorIN5Catch5clara8TextFlow6Column8iteratorESaIS4_EED2Ev
FNDA:0,_ZNSt6vectorIN5Catch5clara8TextFlow6Column8iteratorESaIS4_EED2Ev
FN:675,_ZNSt6vectorISt4pairINSt7__cxx1112basic_stringIcSt11char_traitsIcESaIcEEES6_ESaIS7_EED2Ev
FNDA:0,_ZNSt6vectorISt4pairINSt7__cxx1112basic_stringIcSt11char_traitsIcESaIcEEES6_ESaIS7_EED2Ev
FN:675,_ZNSt6vectorISt10unique_ptrIKN5Catch20IExceptionTranslatorESt14default_deleteIS3_EESaIS6_EED2Ev
FNDA:1,_ZNSt6vectorISt10unique_ptrIKN5Catch20IExceptionTranslatorESt14default_deleteIS3_EESaIS6_EED2Ev
FN:675,_ZNSt6vectorISt10shared_ptrIN5Catch22CumulativeReporterBaseINS1_13JunitReporterEE11SectionNodeEESaIS6_EED2Ev
FNDA:0,_ZNSt6vectorISt10shared_ptrIN5Catch22CumulativeReporterBaseINS1_13JunitReporterEE11SectionNodeEESaIS6_EED2Ev
FN:675,_ZNSt6vectorISt10shared_ptrIN5Catch22CumulativeReporterBaseINS1_13JunitReporterEE4NodeINS1_12TestRunStatsENS5_INS1_14TestGroupStatsENS5_INS1_13TestCaseStatsENS4_11SectionNodeEEEEEEEESaISD_EED2Ev
FNDA:0,_ZNSt6vectorISt10shared_ptrIN5Catch22CumulativeReporterBaseINS1_13JunitReporterEE4NodeINS1_12TestRunStatsENS5_INS1_14TestGroupStatsENS5_INS1_13TestCaseStatsENS4_11SectionNodeEEEEEEEESaISD_EED2Ev
FN:675,_ZNSt6vectorIN5Catch11SectionInfoESaIS1_EED2Ev
FNDA:1,_ZNSt6vectorIN5Catch11SectionInfoESaIS1_EED2Ev
FN:675,_ZNSt6vectorINSt8__detail6_StateIcEESaIS2_EED2Ev
FNDA:0,_ZNSt6vectorINSt8__detail6_StateIcEESaIS2_EED2Ev
FN:675,_ZNSt6vectorIN5Catch5clara6detail3OptESaIS3_EED2Ev
FNDA:59,_ZNSt6vectorIN5Catch5clara6detail3OptESaIS3_EED2Ev
FN:675,_ZNSt6vectorIN5Catch5clara6detail3ArgESaIS3_EED2Ev
FNDA:59,_ZNSt6vectorIN5Catch5clara6detail3ArgESaIS3_EED2Ev
FN:675,_ZNSt6vectorISt10unique_ptrIN5Catch18IStreamingReporterESt14default_deleteIS2_EESaIS5_EED2Ev
FNDA:0,_ZNSt6vectorISt10unique_ptrIN5Catch18IStreamingReporterESt14default_deleteIS2_EESaIS5_EED2Ev
FN:675,_ZNSt6vectorISt10shared_ptrIN5Catch22CumulativeReporterBaseINS1_13JunitReporterEE4NodeINS1_14TestGroupStatsENS5_INS1_13TestCaseStatsENS4_11SectionNodeEEEEEESaISB_EED2Ev
FNDA:0,_ZNSt6vectorISt10shared_ptrIN5Catch22CumulativeReporterBaseINS1_13JunitReporterEE4NodeINS1_14TestGroupStatsENS5_INS1_13TestCaseStatsENS4_11SectionNodeEEEEEESaISB_EED2Ev
FN:675,_ZNSt6vectorIN5Catch12_GLOBAL__N_110ColumnInfoESaIS2_EED2Ev
FNDA:2,_ZNSt6vectorIN5Catch12_GLOBAL__N_110ColumnInfoESaIS2_EED2Ev
FN:675,_ZNSt6vectorIN5Catch8TestSpec6FilterESaIS2_EED2Ev
FNDA:5,_ZNSt6vectorIN5Catch8TestSpec6FilterESaIS2_EED2Ev
FN:675,_ZNSt6vectorISt10shared_ptrIN5Catch8TestSpec7PatternEESaIS4_EED2Ev
FNDA:6,_ZNSt6vectorISt10shared_ptrIN5Catch8TestSpec7PatternEESaIS4_EED2Ev
FN:675,_ZNSt6vectorImSaImEED2Ev
FNDA:1,_ZNSt6vectorImSaImEED2Ev
FN:675,_ZNSt6vectorISt10shared_ptrIN5Catch22CumulativeReporterBaseINS1_13JunitReporterEE4NodeINS1_13TestCaseStatsENS4_11SectionNodeEEEESaIS9_EED2Ev
FNDA:0,_ZNSt6vectorISt10shared_ptrIN5Catch22CumulativeReporterBaseINS1_13JunitReporterEE4NodeINS1_13TestCaseStatsENS4_11SectionNodeEEEESaIS9_EED2Ev
FN:706,_ZNSt6vectorIN5Catch8TestCaseESaIS1_EEaSEOS3_
FNDA:1,_ZNSt6vectorIN5Catch8TestCaseESaIS1_EEaSEOS3_
FN:706,_ZNSt6vectorISt10shared_ptrIN5Catch8TestSpec7PatternEESaIS4_EEaSEOS6_
FNDA:1,_ZNSt6vectorISt10shared_ptrIN5Catch8TestSpec7PatternEESaIS4_EEaSEOS6_
FN:706,_ZNSt6vectorIN5Catch8TestSpec6FilterESaIS2_EEaSEOS4_
FNDA:1,_ZNSt6vectorIN5Catch8TestSpec6FilterESaIS2_EEaSEOS4_
FN:706,_ZNSt6vectorINSt7__cxx119sub_matchIN9__gnu_cxx17__normal_iteratorIPKcNS0_12basic_stringIcSt11char_traitsIcESaIcEEEEEEESaISC_EEaSEOSE_
FNDA:0,_ZNSt6vectorINSt7__cxx119sub_matchIN9__gnu_cxx17__normal_iteratorIPKcNS0_12basic_stringIcSt11char_traitsIcESaIcEEEEEEESaISC_EEaSEOSE_
FN:706,_ZNSt6vectorIN5Catch5clara6detail3ArgESaIS3_EEaSEOS5_
FNDA:1,_ZNSt6vectorIN5Catch5clara6detail3ArgESaIS3_EEaSEOS5_
FN:706,_ZNSt6vectorIN5Catch5clara6detail3OptESaIS3_EEaSEOS5_
FNDA:1,_ZNSt6vectorIN5Catch5clara6detail3OptESaIS3_EEaSEOS5_
FN:706,_ZNSt6vectorINSt7__cxx1112basic_stringIcSt11char_traitsIcESaIcEEESaIS5_EEaSEOS7_
FNDA:2,_ZNSt6vectorINSt7__cxx1112basic_stringIcSt11char_traitsIcESaIcEEESaIS5_EEaSEOS7_
FN:808,_ZNSt6vectorISt10shared_ptrIN5Catch22CumulativeReporterBaseINS1_13JunitReporterEE4NodeINS1_14TestGroupStatsENS5_INS1_13TestCaseStatsENS4_11SectionNodeEEEEEESaISB_EE5beginEv
FNDA:0,_ZNSt6vectorISt10shared_ptrIN5Catch22CumulativeReporterBaseINS1_13JunitReporterEE4NodeINS1_14TestGroupStatsENS5_INS1_13TestCaseStatsENS4_11SectionNodeEEEEEESaISB_EE5beginEv
FN:808,_ZNSt6vectorISt4pairIlS_INSt7__cxx119sub_matchIN9__gnu_cxx17__normal_iteratorIPKcNS1_12basic_stringIcSt11char_traitsIcESaIcEEEEEEESaISD_EEESaISG_EE5beginEv
FNDA:0,_ZNSt6vectorISt4pairIlS_INSt7__cxx119sub_matchIN9__gnu_cxx17__normal_iteratorIPKcNS1_12basic_stringIcSt11char_traitsIcESaIcEEEEEEESaISD_EEESaISG_EE5beginEv
FN:808,_ZNSt6vectorImSaImEE5beginEv
FNDA:0,_ZNSt6vectorImSaImEE5beginEv
FN:808,_ZNSt6vectorIN5Catch14SectionEndInfoESaIS1_EE5beginEv
FNDA:17,_ZNSt6vectorIN5Catch14SectionEndInfoESaIS1_EE5beginEv
FN:808,_ZNSt6vectorISt10shared_ptrIN5Catch22CumulativeReporterBaseINS1_13JunitReporterEE4NodeINS1_13TestCaseStatsENS4_11SectionNodeEEEESaIS9_EE5beginEv
FNDA:0,_ZNSt6vectorISt10shared_ptrIN5Catch22CumulativeReporterBaseINS1_13JunitReporterEE4NodeINS1_13TestCaseStatsENS4_11SectionNodeEEEESaIS9_EE5beginEv
FN:808,_ZNSt6vectorINSt7__cxx119sub_matchIN9__gnu_cxx17__normal_iteratorIPKcNS0_12basic_stringIcSt11char_traitsIcESaIcEEEEEEESaISC_EE5beginEv
FNDA:0,_ZNSt6vectorINSt7__cxx119sub_matchIN9__gnu_cxx17__normal_iteratorIPKcNS0_12basic_stringIcSt11char_traitsIcESaIcEEEEEEESaISC_EE5beginEv
FN:808,_ZNSt6vectorISt10shared_ptrIN5Catch8TestSpec7PatternEESaIS4_EE5beginEv
FNDA:1,_ZNSt6vectorISt10shared_ptrIN5Catch8TestSpec7PatternEESaIS4_EE5beginEv
FN:808,_ZNSt6vectorISt10shared_ptrIN5Catch16IReporterFactoryEESaIS3_EE5beginEv
FNDA:0,_ZNSt6vectorISt10shared_ptrIN5Catch16IReporterFactoryEESaIS3_EE5beginEv
FN:808,_ZNSt6vectorISt4pairIccESaIS1_EE5beginEv
FNDA:0,_ZNSt6vectorISt4pairIccESaIS1_EE5beginEv
FN:808,_ZNSt6vectorINSt7__cxx1112basic_stringIcSt11char_traitsIcESaIcEEESaIS5_EE5beginEv
FNDA:53,_ZNSt6vectorINSt7__cxx1112basic_stringIcSt11char_traitsIcESaIcEEESaIS5_EE5beginEv
FN:808,_ZNSt6vectorIPN5Catch10ISingletonESaIS2_EE5beginEv
FNDA:3,_ZNSt6vectorIPN5Catch10ISingletonESaIS2_EE5beginEv
FN:808,_ZNSt6vectorINSt8__detail6_StateIcEESaIS2_EE5beginEv
FNDA:0,_ZNSt6vectorINSt8__detail6_StateIcEESaIS2_EE5beginEv
FN:808,_ZNSt6vectorIN5Catch12_GLOBAL__N_110ColumnInfoESaIS2_EE5beginEv
FNDA:0,_ZNSt6vectorIN5Catch12_GLOBAL__N_110ColumnInfoESaIS2_EE5beginEv
FN:808,_ZNSt6vectorIPN5Catch16TestCaseTracking8ITrackerESaIS3_EE5beginEv
FNDA:2,_ZNSt6vectorIPN5Catch16TestCaseTracking8ITrackerESaIS3_EE5beginEv
FN:808,_ZNSt6vectorISt10shared_ptrIN5Catch16TestCaseTracking8ITrackerEESaIS4_EE5beginEv
FNDA:224,_ZNSt6vectorISt10shared_ptrIN5Catch16TestCaseTracking8ITrackerEESaIS4_EE5beginEv
FN:808,_ZNSt6vectorIN5Catch5clara6detail5TokenESaIS3_EE5beginEv
FNDA:0,_ZNSt6vectorIN5Catch5clara6detail5TokenESaIS3_EE5beginEv
FN:808,_ZNSt6vectorIN5Catch11SectionInfoESaIS1_EE5beginEv
FNDA:3,_ZNSt6vectorIN5Catch11SectionInfoESaIS1_EE5beginEv
FN:808,_ZNSt6vectorISt4pairINSt7__cxx1112basic_stringIcSt11char_traitsIcESaIcEEES6_ESaIS7_EE5beginEv
FNDA:0,_ZNSt6vectorISt4pairINSt7__cxx1112basic_stringIcSt11char_traitsIcESaIcEEES6_ESaIS7_EE5beginEv
FN:808,_ZNSt6vectorIN5Catch8TestCaseESaIS1_EE5beginEv
FNDA:2,_ZNSt6vectorIN5Catch8TestCaseESaIS1_EE5beginEv
FN:808,_ZNSt6vectorIN5Catch14AssertionStatsESaIS1_EE5beginEv
FNDA:0,_ZNSt6vectorIN5Catch14AssertionStatsESaIS1_EE5beginEv
FN:808,_ZNSt6vectorISt10shared_ptrIN5Catch22CumulativeReporterBaseINS1_13JunitReporterEE11SectionNodeEESaIS6_EE5beginEv
FNDA:0,_ZNSt6vectorISt10shared_ptrIN5Catch22CumulativeReporterBaseINS1_13JunitReporterEE11SectionNodeEESaIS6_EE5beginEv
FN:808,_ZNSt6vectorIN5Catch5clara8TextFlow6ColumnESaIS3_EE5beginEv
FNDA:0,_ZNSt6vectorIN5Catch5clara8TextFlow6ColumnESaIS3_EE5beginEv
FN:808,_ZNSt6vectorINSt15__exception_ptr13exception_ptrESaIS1_EE5beginEv
FNDA:0,_ZNSt6vectorINSt15__exception_ptr13exception_ptrESaIS1_EE5beginEv
FN:808,_ZNSt6vectorISt10unique_ptrIN5Catch18IStreamingReporterESt14default_deleteIS2_EESaIS5_EE5beginEv
FNDA:0,_ZNSt6vectorISt10unique_ptrIN5Catch18IStreamingReporterESt14default_deleteIS2_EESaIS5_EE5beginEv
FN:808,_ZNSt6vectorIcSaIcEE5beginEv
FNDA:0,_ZNSt6vectorIcSaIcEE5beginEv
FN:808,_ZNSt6vectorIN5Catch8TestSpec6FilterESaIS2_EE5beginEv
FNDA:1,_ZNSt6vectorIN5Catch8TestSpec6FilterESaIS2_EE5beginEv
FN:808,_ZNSt6vectorIN5Catch5clara8TextFlow6Column8iteratorESaIS4_EE5beginEv
FNDA:0,_ZNSt6vectorIN5Catch5clara8TextFlow6Column8iteratorESaIS4_EE5beginEv
FN:808,_ZNSt6vectorINSt7__cxx1112regex_traitsIcE10_RegexMaskESaIS3_EE5beginEv
FNDA:0,_ZNSt6vectorINSt7__cxx1112regex_traitsIcE10_RegexMaskESaIS3_EE5beginEv
FN:808,_ZNSt6vectorIN5Catch5clara6detail3OptESaIS3_EE5beginEv
FNDA:26,_ZNSt6vectorIN5Catch5clara6detail3OptESaIS3_EE5beginEv
FN:808,_ZNSt6vectorISt10unique_ptrINSt7__cxx1119basic_ostringstreamIcSt11char_traitsIcESaIcEEESt14default_deleteIS6_EESaIS9_EE5beginEv
FNDA:0,_ZNSt6vectorISt10unique_ptrINSt7__cxx1119basic_ostringstreamIcSt11char_traitsIcESaIcEEESt14default_deleteIS6_EESaIS9_EE5beginEv
FN:808,_ZNSt6vectorIN5Catch5clara6detail3ArgESaIS3_EE5beginEv
FNDA:1,_ZNSt6vectorIN5Catch5clara6detail3ArgESaIS3_EE5beginEv
FN:808,_ZNSt6vectorISt10shared_ptrIN5Catch22CumulativeReporterBaseINS1_13JunitReporterEE4NodeINS1_12TestRunStatsENS5_INS1_14TestGroupStatsENS5_INS1_13TestCaseStatsENS4_11SectionNodeEEEEEEEESaISD_EE5beginEv
FNDA:0,_ZNSt6vectorISt10shared_ptrIN5Catch22CumulativeReporterBaseINS1_13JunitReporterEE4NodeINS1_12TestRunStatsENS5_INS1_14TestGroupStatsENS5_INS1_13TestCaseStatsENS4_11SectionNodeEEEEEEEESaISD_EE5beginEv
FN:808,_ZNSt6vectorISt10unique_ptrIKN5Catch20IExceptionTranslatorESt14default_deleteIS3_EESaIS6_EE5beginEv
FNDA:0,_ZNSt6vectorISt10unique_ptrIKN5Catch20IExceptionTranslatorESt14default_deleteIS3_EESaIS6_EE5beginEv
FN:808,_ZNSt6vectorIN5Catch5clara6detail11HelpColumnsESaIS3_EE5beginEv
FNDA:0,_ZNSt6vectorIN5Catch5clara6detail11HelpColumnsESaIS3_EE5beginEv
FN:808,_ZNSt6vectorIN5Catch11MessageInfoESaIS1_EE5beginEv
FNDA:0,_ZNSt6vectorIN5Catch11MessageInfoESaIS1_EE5beginEv
FN:808,_ZNSt6vectorIN5Catch13SummaryColumnESaIS1_EE5beginEv
FNDA:0,_ZNSt6vectorIN5Catch13SummaryColumnESaIS1_EE5beginEv
FN:817,_ZNKSt6vectorISt10unique_ptrIKN5Catch20IExceptionTranslatorESt14default_deleteIS3_EESaIS6_EE5beginEv
FNDA:0,_ZNKSt6vectorISt10unique_ptrIKN5Catch20IExceptionTranslatorESt14default_deleteIS3_EESaIS6_EE5beginEv
FN:817,_ZNKSt6vectorISt4pairIccESaIS1_EE5beginEv
FNDA:0,_ZNKSt6vectorISt4pairIccESaIS1_EE5beginEv
FN:817,_ZNKSt6vectorIcSaIcEE5beginEv
FNDA:0,_ZNKSt6vectorIcSaIcEE5beginEv
FN:817,_ZNKSt6vectorISt10shared_ptrIN5Catch8TestSpec7PatternEESaIS4_EE5beginEv
FNDA:6,_ZNKSt6vectorISt10shared_ptrIN5Catch8TestSpec7PatternEESaIS4_EE5beginEv
FN:817,_ZNKSt6vectorINSt7__cxx119sub_matchIN9__gnu_cxx17__normal_iteratorIPKcNS0_12basic_stringIcSt11char_traitsIcESaIcEEEEEEESaISC_EE5beginEv
FNDA:0,_ZNKSt6vectorINSt7__cxx119sub_matchIN9__gnu_cxx17__normal_iteratorIPKcNS0_12basic_stringIcSt11char_traitsIcESaIcEEEEEEESaISC_EE5beginEv
FN:817,_ZNKSt6vectorIN5Catch8TestSpec6FilterESaIS2_EE5beginEv
FNDA:4,_ZNKSt6vectorIN5Catch8TestSpec6FilterESaIS2_EE5beginEv
FN:817,_ZNKSt6vectorIN5Catch5clara6detail3ArgESaIS3_EE5beginEv
FNDA:57,_ZNKSt6vectorIN5Catch5clara6detail3ArgESaIS3_EE5beginEv
FN:817,_ZNKSt6vectorISt4pairIlS_INSt7__cxx119sub_matchIN9__gnu_cxx17__normal_iteratorIPKcNS1_12basic_stringIcSt11char_traitsIcESaIcEEEEEEESaISD_EEESaISG_EE5beginEv
FNDA:0,_ZNKSt6vectorISt4pairIlS_INSt7__cxx119sub_matchIN9__gnu_cxx17__normal_iteratorIPKcNS1_12basic_stringIcSt11char_traitsIcESaIcEEEEEEESaISD_EEESaISG_EE5beginEv
FN:817,_ZNKSt6vectorIN5Catch5clara6detail3OptESaIS3_EE5beginEv
FNDA:57,_ZNKSt6vectorIN5Catch5clara6detail3OptESaIS3_EE5beginEv
FN:817,_ZNKSt6vectorINSt7__cxx1112basic_stringIcSt11char_traitsIcESaIcEEESaIS5_EE5beginEv
FNDA:820,_ZNKSt6vectorINSt7__cxx1112basic_stringIcSt11char_traitsIcESaIcEEESaIS5_EE5beginEv
FN:817,_ZNKSt6vectorIN5Catch11MessageInfoESaIS1_EE5beginEv
FNDA:0,_ZNKSt6vectorIN5Catch11MessageInfoESaIS1_EE5beginEv
FN:817,_ZNKSt6vectorIN5Catch14SectionEndInfoESaIS1_EE5beginEv
FNDA:0,_ZNKSt6vectorIN5Catch14SectionEndInfoESaIS1_EE5beginEv
FN:817,_ZNKSt6vectorIN5Catch14AssertionStatsESaIS1_EE5beginEv
FNDA:0,_ZNKSt6vectorIN5Catch14AssertionStatsESaIS1_EE5beginEv
FN:817,_ZNKSt6vectorISt10shared_ptrIN5Catch22CumulativeReporterBaseINS1_13JunitReporterEE11SectionNodeEESaIS6_EE5beginEv
FNDA:0,_ZNKSt6vectorISt10shared_ptrIN5Catch22CumulativeReporterBaseINS1_13JunitReporterEE11SectionNodeEESaIS6_EE5beginEv
FN:817,_ZNKSt6vectorIPN5Catch16TestCaseTracking8ITrackerESaIS3_EE5beginEv
FNDA:19,_ZNKSt6vectorIPN5Catch16TestCaseTracking8ITrackerESaIS3_EE5beginEv
FN:817,_ZNKSt6vectorISt10shared_ptrIN5Catch22CumulativeReporterBaseINS1_13JunitReporterEE4NodeINS1_13TestCaseStatsENS4_11SectionNodeEEEESaIS9_EE5beginEv
FNDA:0,_ZNKSt6vectorISt10shared_ptrIN5Catch22CumulativeReporterBaseINS1_13JunitReporterEE4NodeINS1_13TestCaseStatsENS4_11SectionNodeEEEESaIS9_EE5beginEv
FN:817,_ZNKSt6vectorISt4pairINSt7__cxx1112basic_stringIcSt11char_traitsIcESaIcEEES6_ESaIS7_EE5beginEv
FNDA:0,_ZNKSt6vectorISt4pairINSt7__cxx1112basic_stringIcSt11char_traitsIcESaIcEEES6_ESaIS7_EE5beginEv
FN:817,_ZNKSt6vectorIN5Catch13SummaryColumnESaIS1_EE5beginEv
FNDA:0,_ZNKSt6vectorIN5Catch13SummaryColumnESaIS1_EE5beginEv
FN:817,_ZNKSt6vectorISt10shared_ptrIN5Catch16IReporterFactoryEESaIS3_EE5beginEv
FNDA:1,_ZNKSt6vectorISt10shared_ptrIN5Catch16IReporterFactoryEESaIS3_EE5beginEv
FN:817,_ZNKSt6vectorIN5Catch8TestCaseESaIS1_EE5beginEv
FNDA:5,_ZNKSt6vectorIN5Catch8TestCaseESaIS1_EE5beginEv
FN:817,_ZNKSt6vectorISt10shared_ptrIN5Catch16TestCaseTracking8ITrackerEESaIS4_EE5beginEv
FNDA:19,_ZNKSt6vectorISt10shared_ptrIN5Catch16TestCaseTracking8ITrackerEESaIS4_EE5beginEv
FN:817,_ZNKSt6vectorIN5Catch11SectionInfoESaIS1_EE5beginEv
FNDA:0,_ZNKSt6vectorIN5Catch11SectionInfoESaIS1_EE5beginEv
FN:817,_ZNKSt6vectorINSt15__exception_ptr13exception_ptrESaIS1_EE5beginEv
FNDA:1,_ZNKSt6vectorINSt15__exception_ptr13exception_ptrESaIS1_EE5beginEv
FN:817,_ZNKSt6vectorIN5Catch5clara6detail5TokenESaIS3_EE5beginEv
FNDA:5,_ZNKSt6vectorIN5Catch5clara6detail5TokenESaIS3_EE5beginEv
FN:817,_ZNKSt6vectorIN5Catch5clara8TextFlow6Column8iteratorESaIS4_EE5beginEv
FNDA:0,_ZNKSt6vectorIN5Catch5clara8TextFlow6Column8iteratorESaIS4_EE5beginEv
FN:817,_ZNKSt6vectorIN5Catch5clara8TextFlow6ColumnESaIS3_EE5beginEv
FNDA:0,_ZNKSt6vectorIN5Catch5clara8TextFlow6ColumnESaIS3_EE5beginEv
FN:817,_ZNKSt6vectorINSt7__cxx1112regex_traitsIcE10_RegexMaskESaIS3_EE5beginEv
FNDA:0,_ZNKSt6vectorINSt7__cxx1112regex_traitsIcE10_RegexMaskESaIS3_EE5beginEv
FN:817,_ZNKSt6vectorImSaImEE5beginEv
FNDA:0,_ZNKSt6vectorImSaImEE5beginEv
FN:826,_ZNSt6vectorIcSaIcEE3endEv
FNDA:0,_ZNSt6vectorIcSaIcEE3endEv
FN:826,_ZNSt6vectorIN5Catch11SectionInfoESaIS1_EE3endEv
FNDA:3,_ZNSt6vectorIN5Catch11SectionInfoESaIS1_EE3endEv
FN:826,_ZNSt6vectorINSt7__cxx1112regex_traitsIcE10_RegexMaskESaIS3_EE3endEv
FNDA:0,_ZNSt6vectorINSt7__cxx1112regex_traitsIcE10_RegexMaskESaIS3_EE3endEv
FN:826,_ZNSt6vectorISt10shared_ptrIN5Catch16IReporterFactoryEESaIS3_EE3endEv
FNDA:0,_ZNSt6vectorISt10shared_ptrIN5Catch16IReporterFactoryEESaIS3_EE3endEv
FN:826,_ZNSt6vectorISt10shared_ptrIN5Catch8TestSpec7PatternEESaIS4_EE3endEv
FNDA:1,_ZNSt6vectorISt10shared_ptrIN5Catch8TestSpec7PatternEESaIS4_EE3endEv
FN:826,_ZNSt6vectorISt10unique_ptrIN5Catch18IStreamingReporterESt14default_deleteIS2_EESaIS5_EE3endEv
FNDA:0,_ZNSt6vectorISt10unique_ptrIN5Catch18IStreamingReporterESt14default_deleteIS2_EESaIS5_EE3endEv
FN:826,_ZNSt6vectorISt10unique_ptrINSt7__cxx1119basic_ostringstreamIcSt11char_traitsIcESaIcEEESt14default_deleteIS6_EESaIS9_EE3endEv
FNDA:0,_ZNSt6vectorISt10unique_ptrINSt7__cxx1119basic_ostringstreamIcSt11char_traitsIcESaIcEEESt14default_deleteIS6_EESaIS9_EE3endEv
FN:826,_ZNSt6vectorIN5Catch12_GLOBAL__N_110ColumnInfoESaIS2_EE3endEv
FNDA:0,_ZNSt6vectorIN5Catch12_GLOBAL__N_110ColumnInfoESaIS2_EE3endEv
FN:826,_ZNSt6vectorImSaImEE3endEv
FNDA:0,_ZNSt6vectorImSaImEE3endEv
FN:826,_ZNSt6vectorISt4pairINSt7__cxx1112basic_stringIcSt11char_traitsIcESaIcEEES6_ESaIS7_EE3endEv
FNDA:0,_ZNSt6vectorISt4pairINSt7__cxx1112basic_stringIcSt11char_traitsIcESaIcEEES6_ESaIS7_EE3endEv
FN:826,_ZNSt6vectorISt4pairIlS_INSt7__cxx119sub_matchIN9__gnu_cxx17__normal_iteratorIPKcNS1_12basic_stringIcSt11char_traitsIcESaIcEEEEEEESaISD_EEESaISG_EE3endEv
FNDA:0,_ZNSt6vectorISt4pairIlS_INSt7__cxx119sub_matchIN9__gnu_cxx17__normal_iteratorIPKcNS1_12basic_stringIcSt11char_traitsIcESaIcEEEEEEESaISD_EEESaISG_EE3endEv
FN:826,_ZNSt6vectorIN5Catch5clara8TextFlow6ColumnESaIS3_EE3endEv
FNDA:0,_ZNSt6vectorIN5Catch5clara8TextFlow6ColumnESaIS3_EE3endEv
FN:826,_ZNSt6vectorIN5Catch14AssertionStatsESaIS1_EE3endEv
FNDA:0,_ZNSt6vectorIN5Catch14AssertionStatsESaIS1_EE3endEv
FN:826,_ZNSt6vectorISt4pairIccESaIS1_EE3endEv
FNDA:0,_ZNSt6vectorISt4pairIccESaIS1_EE3endEv
FN:826,_ZNSt6vectorIN5Catch5clara6detail3ArgESaIS3_EE3endEv
FNDA:1,_ZNSt6vectorIN5Catch5clara6detail3ArgESaIS3_EE3endEv
FN:826,_ZNSt6vectorISt10unique_ptrIKN5Catch20IExceptionTranslatorESt14default_deleteIS3_EESaIS6_EE3endEv
FNDA:0,_ZNSt6vectorISt10unique_ptrIKN5Catch20IExceptionTranslatorESt14default_deleteIS3_EESaIS6_EE3endEv
FN:826,_ZNSt6vectorINSt8__detail6_StateIcEESaIS2_EE3endEv
FNDA:0,_ZNSt6vectorINSt8__detail6_StateIcEESaIS2_EE3endEv
FN:826,_ZNSt6vectorIPN5Catch10ISingletonESaIS2_EE3endEv
FNDA:3,_ZNSt6vectorIPN5Catch10ISingletonESaIS2_EE3endEv
FN:826,_ZNSt6vectorIN5Catch5clara8TextFlow6Column8iteratorESaIS4_EE3endEv
FNDA:0,_ZNSt6vectorIN5Catch5clara8TextFlow6Column8iteratorESaIS4_EE3endEv
FN:826,_ZNSt6vectorIN5Catch11MessageInfoESaIS1_EE3endEv
FNDA:0,_ZNSt6vectorIN5Catch11MessageInfoESaIS1_EE3endEv
FN:826,_ZNSt6vectorIN5Catch8TestSpec6FilterESaIS2_EE3endEv
FNDA:1,_ZNSt6vectorIN5Catch8TestSpec6FilterESaIS2_EE3endEv
FN:826,_ZNSt6vectorINSt15__exception_ptr13exception_ptrESaIS1_EE3endEv
FNDA:0,_ZNSt6vectorINSt15__exception_ptr13exception_ptrESaIS1_EE3endEv
FN:826,_ZNSt6vectorINSt7__cxx1112basic_stringIcSt11char_traitsIcESaIcEEESaIS5_EE3endEv
FNDA:53,_ZNSt6vectorINSt7__cxx1112basic_stringIcSt11char_traitsIcESaIcEEESaIS5_EE3endEv
FN:826,_ZNSt6vectorIN5Catch5clara6detail5TokenESaIS3_EE3endEv
FNDA:0,_ZNSt6vectorIN5Catch5clara6detail5TokenESaIS3_EE3endEv
FN:826,_ZNSt6vectorINSt7__cxx119sub_matchIN9__gnu_cxx17__normal_iteratorIPKcNS0_12basic_stringIcSt11char_traitsIcESaIcEEEEEEESaISC_EE3endEv
FNDA:0,_ZNSt6vectorINSt7__cxx119sub_matchIN9__gnu_cxx17__normal_iteratorIPKcNS0_12basic_stringIcSt11char_traitsIcESaIcEEEEEEESaISC_EE3endEv
FN:826,_ZNSt6vectorISt10shared_ptrIN5Catch22CumulativeReporterBaseINS1_13JunitReporterEE4NodeINS1_14TestGroupStatsENS5_INS1_13TestCaseStatsENS4_11SectionNodeEEEEEESaISB_EE3endEv
FNDA:0,_ZNSt6vectorISt10shared_ptrIN5Catch22CumulativeReporterBaseINS1_13JunitReporterEE4NodeINS1_14TestGroupStatsENS5_INS1_13TestCaseStatsENS4_11SectionNodeEEEEEESaISB_EE3endEv
FN:826,_ZNSt6vectorIN5Catch13SummaryColumnESaIS1_EE3endEv
FNDA:0,_ZNSt6vectorIN5Catch13SummaryColumnESaIS1_EE3endEv
FN:826,_ZNSt6vectorISt10shared_ptrIN5Catch22CumulativeReporterBaseINS1_13JunitReporterEE4NodeINS1_13TestCaseStatsENS4_11SectionNodeEEEESaIS9_EE3endEv
FNDA:0,_ZNSt6vectorISt10shared_ptrIN5Catch22CumulativeReporterBaseINS1_13JunitReporterEE4NodeINS1_13TestCaseStatsENS4_11SectionNodeEEEESaIS9_EE3endEv
FN:826,_ZNSt6vectorIPN5Catch16TestCaseTracking8ITrackerESaIS3_EE3endEv
FNDA:40,_ZNSt6vectorIPN5Catch16TestCaseTracking8ITrackerESaIS3_EE3endEv
FN:826,_ZNSt6vectorISt10shared_ptrIN5Catch22CumulativeReporterBaseINS1_13JunitReporterEE4NodeINS1_12TestRunStatsENS5_INS1_14TestGroupStatsENS5_INS1_13TestCaseStatsENS4_11SectionNodeEEEEEEEESaISD_EE3endEv
FNDA:0,_ZNSt6vectorISt10shared_ptrIN5Catch22CumulativeReporterBaseINS1_13JunitReporterEE4NodeINS1_12TestRunStatsENS5_INS1_14TestGroupStatsENS5_INS1_13TestCaseStatsENS4_11SectionNodeEEEEEEEESaISD_EE3endEv
FN:826,_ZNSt6vectorISt10shared_ptrIN5Catch22CumulativeReporterBaseINS1_13JunitReporterEE11SectionNodeEESaIS6_EE3endEv
FNDA:0,_ZNSt6vectorISt10shared_ptrIN5Catch22CumulativeReporterBaseINS1_13JunitReporterEE11SectionNodeEESaIS6_EE3endEv
FN:826,_ZNSt6vectorIN5Catch5clara6detail11HelpColumnsESaIS3_EE3endEv
FNDA:0,_ZNSt6vectorIN5Catch5clara6detail11HelpColumnsESaIS3_EE3endEv
FN:826,_ZNSt6vectorIN5Catch8TestCaseESaIS1_EE3endEv
FNDA:2,_ZNSt6vectorIN5Catch8TestCaseESaIS1_EE3endEv
FN:826,_ZNSt6vectorISt10shared_ptrIN5Catch16TestCaseTracking8ITrackerEESaIS4_EE3endEv
FNDA:455,_ZNSt6vectorISt10shared_ptrIN5Catch16TestCaseTracking8ITrackerEESaIS4_EE3endEv
FN:826,_ZNSt6vectorIN5Catch5clara6detail3OptESaIS3_EE3endEv
FNDA:26,_ZNSt6vectorIN5Catch5clara6detail3OptESaIS3_EE3endEv
FN:826,_ZNSt6vectorIN5Catch14SectionEndInfoESaIS1_EE3endEv
FNDA:17,_ZNSt6vectorIN5Catch14SectionEndInfoESaIS1_EE3endEv
FN:835,_ZNKSt6vectorINSt7__cxx1112regex_traitsIcE10_RegexMaskESaIS3_EE3endEv
FNDA:0,_ZNKSt6vectorINSt7__cxx1112regex_traitsIcE10_RegexMaskESaIS3_EE3endEv
FN:835,_ZNKSt6vectorINSt15__exception_ptr13exception_ptrESaIS1_EE3endEv
FNDA:1,_ZNKSt6vectorINSt15__exception_ptr13exception_ptrESaIS1_EE3endEv
FN:835,_ZNKSt6vectorIN5Catch8TestCaseESaIS1_EE3endEv
FNDA:5,_ZNKSt6vectorIN5Catch8TestCaseESaIS1_EE3endEv
FN:835,_ZNKSt6vectorISt4pairIccESaIS1_EE3endEv
FNDA:0,_ZNKSt6vectorISt4pairIccESaIS1_EE3endEv
FN:835,_ZNKSt6vectorISt10shared_ptrIN5Catch16TestCaseTracking8ITrackerEESaIS4_EE3endEv
FNDA:19,_ZNKSt6vectorISt10shared_ptrIN5Catch16TestCaseTracking8ITrackerEESaIS4_EE3endEv
FN:835,_ZNKSt6vectorISt10shared_ptrIN5Catch16IReporterFactoryEESaIS3_EE3endEv
FNDA:1,_ZNKSt6vectorISt10shared_ptrIN5Catch16IReporterFactoryEESaIS3_EE3endEv
FN:835,_ZNKSt6vectorIN5Catch5clara8TextFlow6Column8iteratorESaIS4_EE3endEv
FNDA:0,_ZNKSt6vectorIN5Catch5clara8TextFlow6Column8iteratorESaIS4_EE3endEv
FN:835,_ZNKSt6vectorIN5Catch13SummaryColumnESaIS1_EE3endEv
FNDA:0,_ZNKSt6vectorIN5Catch13SummaryColumnESaIS1_EE3endEv
FN:835,_ZNKSt6vectorIN5Catch5clara6detail3OptESaIS3_EE3endEv
FNDA:57,_ZNKSt6vectorIN5Catch5clara6detail3OptESaIS3_EE3endEv
FN:835,_ZNKSt6vectorISt10unique_ptrIKN5Catch20IExceptionTranslatorESt14default_deleteIS3_EESaIS6_EE3endEv
FNDA:0,_ZNKSt6vectorISt10unique_ptrIKN5Catch20IExceptionTranslatorESt14default_deleteIS3_EESaIS6_EE3endEv
FN:835,_ZNKSt6vectorIN5Catch11SectionInfoESaIS1_EE3endEv
FNDA:0,_ZNKSt6vectorIN5Catch11SectionInfoESaIS1_EE3endEv
FN:835,_ZNKSt6vectorIN5Catch5clara6detail5TokenESaIS3_EE3endEv
FNDA:5,_ZNKSt6vectorIN5Catch5clara6detail5TokenESaIS3_EE3endEv
FN:835,_ZNKSt6vectorIPN5Catch16TestCaseTracking8ITrackerESaIS3_EE3endEv
FNDA:19,_ZNKSt6vectorIPN5Catch16TestCaseTracking8ITrackerESaIS3_EE3endEv
FN:835,_ZNKSt6vectorISt4pairIlS_INSt7__cxx119sub_matchIN9__gnu_cxx17__normal_iteratorIPKcNS1_12basic_stringIcSt11char_traitsIcESaIcEEEEEEESaISD_EEESaISG_EE3endEv
FNDA:0,_ZNKSt6vectorISt4pairIlS_INSt7__cxx119sub_matchIN9__gnu_cxx17__normal_iteratorIPKcNS1_12basic_stringIcSt11char_traitsIcESaIcEEEEEEESaISD_EEESaISG_EE3endEv
FN:835,_ZNKSt6vectorIN5Catch8TestSpec6FilterESaIS2_EE3endEv
FNDA:4,_ZNKSt6vectorIN5Catch8TestSpec6FilterESaIS2_EE3endEv
FN:835,_ZNKSt6vectorISt10shared_ptrIN5Catch8TestSpec7PatternEESaIS4_EE3endEv
FNDA:6,_ZNKSt6vectorISt10shared_ptrIN5Catch8TestSpec7PatternEESaIS4_EE3endEv
FN:835,_ZNKSt6vectorISt10shared_ptrIN5Catch22CumulativeReporterBaseINS1_13JunitReporterEE4NodeINS1_13TestCaseStatsENS4_11SectionNodeEEEESaIS9_EE3endEv
FNDA:0,_ZNKSt6vectorISt10shared_ptrIN5Catch22CumulativeReporterBaseINS1_13JunitReporterEE4NodeINS1_13TestCaseStatsENS4_11SectionNodeEEEESaIS9_EE3endEv
FN:835,_ZNKSt6vectorIN5Catch11MessageInfoESaIS1_EE3endEv
FNDA:0,_ZNKSt6vectorIN5Catch11MessageInfoESaIS1_EE3endEv
FN:835,_ZNKSt6vectorISt10shared_ptrIN5Catch22CumulativeReporterBaseINS1_13JunitReporterEE11SectionNodeEESaIS6_EE3endEv
FNDA:0,_ZNKSt6vectorISt10shared_ptrIN5Catch22CumulativeReporterBaseINS1_13JunitReporterEE11SectionNodeEESaIS6_EE3endEv
FN:835,_ZNKSt6vectorINSt7__cxx1112basic_stringIcSt11char_traitsIcESaIcEEESaIS5_EE3endEv
FNDA:822,_ZNKSt6vectorINSt7__cxx1112basic_stringIcSt11char_traitsIcESaIcEEESaIS5_EE3endEv
FN:835,_ZNKSt6vectorIN5Catch14SectionEndInfoESaIS1_EE3endEv
FNDA:0,_ZNKSt6vectorIN5Catch14SectionEndInfoESaIS1_EE3endEv
FN:835,_ZNKSt6vectorINSt7__cxx119sub_matchIN9__gnu_cxx17__normal_iteratorIPKcNS0_12basic_stringIcSt11char_traitsIcESaIcEEEEEEESaISC_EE3endEv
FNDA:0,_ZNKSt6vectorINSt7__cxx119sub_matchIN9__gnu_cxx17__normal_iteratorIPKcNS0_12basic_stringIcSt11char_traitsIcESaIcEEEEEEESaISC_EE3endEv
FN:835,_ZNKSt6vectorIN5Catch14AssertionStatsESaIS1_EE3endEv
FNDA:0,_ZNKSt6vectorIN5Catch14AssertionStatsESaIS1_EE3endEv
FN:835,_ZNKSt6vectorIcSaIcEE3endEv
FNDA:0,_ZNKSt6vectorIcSaIcEE3endEv
FN:835,_ZNKSt6vectorImSaImEE3endEv
FNDA:0,_ZNKSt6vectorImSaImEE3endEv
FN:835,_ZNKSt6vectorIN5Catch5clara8TextFlow6ColumnESaIS3_EE3endEv
FNDA:0,_ZNKSt6vectorIN5Catch5clara8TextFlow6ColumnESaIS3_EE3endEv
FN:835,_ZNKSt6vectorISt4pairINSt7__cxx1112basic_stringIcSt11char_traitsIcESaIcEEES6_ESaIS7_EE3endEv
FNDA:0,_ZNKSt6vectorISt4pairINSt7__cxx1112basic_stringIcSt11char_traitsIcESaIcEEES6_ESaIS7_EE3endEv
FN:835,_ZNKSt6vectorIN5Catch5clara6detail3ArgESaIS3_EE3endEv
FNDA:57,_ZNKSt6vectorIN5Catch5clara6detail3ArgESaIS3_EE3endEv
FN:844,_ZNSt6vectorIN5Catch14SectionEndInfoESaIS1_EE6rbeginEv
FNDA:17,_ZNSt6vectorIN5Catch14SectionEndInfoESaIS1_EE6rbeginEv
FN:862,_ZNSt6vectorIN5Catch14SectionEndInfoESaIS1_EE4rendEv
FNDA:17,_ZNSt6vectorIN5Catch14SectionEndInfoESaIS1_EE4rendEv
FN:881,_ZNKSt6vectorIN5Catch5clara6detail11HelpColumnsESaIS3_EE6cbeginEv
FNDA:0,_ZNKSt6vectorIN5Catch5clara6detail11HelpColumnsESaIS3_EE6cbeginEv
FN:881,_ZNKSt6vectorIcSaIcEE6cbeginEv
FNDA:0,_ZNKSt6vectorIcSaIcEE6cbeginEv
FN:881,_ZNKSt6vectorINSt7__cxx1112basic_stringIcSt11char_traitsIcESaIcEEESaIS5_EE6cbeginEv
FNDA:2,_ZNKSt6vectorINSt7__cxx1112basic_stringIcSt11char_traitsIcESaIcEEESaIS5_EE6cbeginEv
FN:881,_ZNKSt6vectorIN5Catch11MessageInfoESaIS1_EE6cbeginEv
FNDA:0,_ZNKSt6vectorIN5Catch11MessageInfoESaIS1_EE6cbeginEv
FN:881,_ZNKSt6vectorIN5Catch5clara6detail5TokenESaIS3_EE6cbeginEv
FNDA:0,_ZNKSt6vectorIN5Catch5clara6detail5TokenESaIS3_EE6cbeginEv
FN:915,_ZNKSt6vectorIPN5Catch16TestCaseTracking8ITrackerESaIS3_EE4sizeEv
FNDA:8,_ZNKSt6vectorIPN5Catch16TestCaseTracking8ITrackerESaIS3_EE4sizeEv
FN:915,_ZNKSt6vectorIN5Catch13SummaryColumnESaIS1_EE4sizeEv
FNDA:0,_ZNKSt6vectorIN5Catch13SummaryColumnESaIS1_EE4sizeEv
FN:915,_ZNKSt6vectorISt10shared_ptrIN5Catch22CumulativeReporterBaseINS1_13JunitReporterEE11SectionNodeEESaIS6_EE4sizeEv
FNDA:0,_ZNKSt6vectorISt10shared_ptrIN5Catch22CumulativeReporterBaseINS1_13JunitReporterEE11SectionNodeEESaIS6_EE4sizeEv
FN:915,_ZNKSt6vectorIN5Catch5clara6detail3OptESaIS3_EE4sizeEv
FNDA:161,_ZNKSt6vectorIN5Catch5clara6detail3OptESaIS3_EE4sizeEv
FN:915,_ZNKSt6vectorIN5Catch5clara8TextFlow6Column8iteratorESaIS4_EE4sizeEv
FNDA:0,_ZNKSt6vectorIN5Catch5clara8TextFlow6Column8iteratorESaIS4_EE4sizeEv
FN:915,_ZNKSt6vectorImSaImEE4sizeEv
FNDA:1,_ZNKSt6vectorImSaImEE4sizeEv
FN:915,_ZNKSt6vectorIN5Catch5clara6detail3ArgESaIS3_EE4sizeEv
FNDA:61,_ZNKSt6vectorIN5Catch5clara6detail3ArgESaIS3_EE4sizeEv
FN:915,_ZNKSt6vectorINSt7__cxx119sub_matchIN9__gnu_cxx17__normal_iteratorIPKcNS0_12basic_stringIcSt11char_traitsIcESaIcEEEEEEESaISC_EE4sizeEv
FNDA:0,_ZNKSt6vectorINSt7__cxx119sub_matchIN9__gnu_cxx17__normal_iteratorIPKcNS0_12basic_stringIcSt11char_traitsIcESaIcEEEEEEESaISC_EE4sizeEv
FN:915,_ZNKSt6vectorINSt15__exception_ptr13exception_ptrESaIS1_EE4sizeEv
FNDA:0,_ZNKSt6vectorINSt15__exception_ptr13exception_ptrESaIS1_EE4sizeEv
FN:915,_ZNKSt6vectorIN5Catch14SectionEndInfoESaIS1_EE4sizeEv
FNDA:0,_ZNKSt6vectorIN5Catch14SectionEndInfoESaIS1_EE4sizeEv
FN:915,_ZNKSt6vectorISt10shared_ptrIN5Catch8TestSpec7PatternEESaIS4_EE4sizeEv
FNDA:7,_ZNKSt6vectorISt10shared_ptrIN5Catch8TestSpec7PatternEESaIS4_EE4sizeEv
FN:915,_ZNKSt6vectorIPN5Catch10ISingletonESaIS2_EE4sizeEv
FNDA:4,_ZNKSt6vectorIPN5Catch10ISingletonESaIS2_EE4sizeEv
FN:915,_ZNKSt6vectorIN5Catch5clara8TextFlow6ColumnESaIS3_EE4sizeEv
FNDA:0,_ZNKSt6vectorIN5Catch5clara8TextFlow6ColumnESaIS3_EE4sizeEv
FN:915,_ZNKSt6vectorISt10shared_ptrIN5Catch16TestCaseTracking8ITrackerEESaIS4_EE4sizeEv
FNDA:48,_ZNKSt6vectorISt10shared_ptrIN5Catch16TestCaseTracking8ITrackerEESaIS4_EE4sizeEv
FN:915,_ZNKSt6vectorISt10shared_ptrIN5Catch22CumulativeReporterBaseINS1_13JunitReporterEE4NodeINS1_12TestRunStatsENS5_INS1_14TestGroupStatsENS5_INS1_13TestCaseStatsENS4_11SectionNodeEEEEEEEESaISD_EE4sizeEv
FNDA:0,_ZNKSt6vectorISt10shared_ptrIN5Catch22CumulativeReporterBaseINS1_13JunitReporterEE4NodeINS1_12TestRunStatsENS5_INS1_14TestGroupStatsENS5_INS1_13TestCaseStatsENS4_11SectionNodeEEEEEEEESaISD_EE4sizeEv
FN:915,_ZNKSt6vectorIN5Catch5clara6detail11HelpColumnsESaIS3_EE4sizeEv
FNDA:0,_ZNKSt6vectorIN5Catch5clara6detail11HelpColumnsESaIS3_EE4sizeEv
FN:915,_ZNKSt6vectorINSt7__cxx1112regex_traitsIcE10_RegexMaskESaIS3_EE4sizeEv
FNDA:0,_ZNKSt6vectorINSt7__cxx1112regex_traitsIcE10_RegexMaskESaIS3_EE4sizeEv
FN:915,_ZNKSt6vectorIN5Catch12_GLOBAL__N_110ColumnInfoESaIS2_EE4sizeEv
FNDA:0,_ZNKSt6vectorIN5Catch12_GLOBAL__N_110ColumnInfoESaIS2_EE4sizeEv
FN:915,_ZNKSt6vectorIN5Catch8TestSpec6FilterESaIS2_EE4sizeEv
FNDA:6,_ZNKSt6vectorIN5Catch8TestSpec6FilterESaIS2_EE4sizeEv
FN:915,_ZNKSt6vectorIcSaIcEE4sizeEv
FNDA:0,_ZNKSt6vectorIcSaIcEE4sizeEv
FN:915,_ZNKSt6vectorIN5Catch5clara6detail5TokenESaIS3_EE4sizeEv
FNDA:6,_ZNKSt6vectorIN5Catch5clara6detail5TokenESaIS3_EE4sizeEv
FN:915,_ZNKSt6vectorIN5Catch11SectionInfoESaIS1_EE4sizeEv
FNDA:12,_ZNKSt6vectorIN5Catch11SectionInfoESaIS1_EE4sizeEv
FN:915,_ZNKSt6vectorISt10unique_ptrINSt7__cxx1119basic_ostringstreamIcSt11char_traitsIcESaIcEEESt14default_deleteIS6_EESaIS9_EE4sizeEv
FNDA:0,_ZNKSt6vectorISt10unique_ptrINSt7__cxx1119basic_ostringstreamIcSt11char_traitsIcESaIcEEESt14default_deleteIS6_EESaIS9_EE4sizeEv
FN:915,_ZNKSt6vectorISt4pairIccESaIS1_EE4sizeEv
FNDA:0,_ZNKSt6vectorISt4pairIccESaIS1_EE4sizeEv
FN:915,_ZNKSt6vectorISt4pairINSt7__cxx1112basic_stringIcSt11char_traitsIcESaIcEEES6_ESaIS7_EE4sizeEv
FNDA:0,_ZNKSt6vectorISt4pairINSt7__cxx1112basic_stringIcSt11char_traitsIcESaIcEEES6_ESaIS7_EE4sizeEv
FN:915,_ZNKSt6vectorIN5Catch14AssertionStatsESaIS1_EE4sizeEv
FNDA:0,_ZNKSt6vectorIN5Catch14AssertionStatsESaIS1_EE4sizeEv
FN:915,_ZNKSt6vectorISt10unique_ptrIKN5Catch20IExceptionTranslatorESt14default_deleteIS3_EESaIS6_EE4sizeEv
FNDA:0,_ZNKSt6vectorISt10unique_ptrIKN5Catch20IExceptionTranslatorESt14default_deleteIS3_EESaIS6_EE4sizeEv
FN:915,_ZNKSt6vectorIN5Catch11MessageInfoESaIS1_EE4sizeEv
FNDA:0,_ZNKSt6vectorIN5Catch11MessageInfoESaIS1_EE4sizeEv
FN:915,_ZNKSt6vectorINSt8__detail6_StateIcEESaIS2_EE4sizeEv
FNDA:0,_ZNKSt6vectorINSt8__detail6_StateIcEESaIS2_EE4sizeEv
FN:915,_ZNKSt6vectorINSt7__cxx1112basic_stringIcSt11char_traitsIcESaIcEEESaIS5_EE4sizeEv
FNDA:978,_ZNKSt6vectorINSt7__cxx1112basic_stringIcSt11char_traitsIcESaIcEEESaIS5_EE4sizeEv
FN:915,_ZNKSt6vectorISt10unique_ptrIN5Catch18IStreamingReporterESt14default_deleteIS2_EESaIS5_EE4sizeEv
FNDA:0,_ZNKSt6vectorISt10unique_ptrIN5Catch18IStreamingReporterESt14default_deleteIS2_EESaIS5_EE4sizeEv
FN:915,_ZNKSt6vectorIN5Catch8TestCaseESaIS1_EE4sizeEv
FNDA:9,_ZNKSt6vectorIN5Catch8TestCaseESaIS1_EE4sizeEv
FN:915,_ZNKSt6vectorISt10shared_ptrIN5Catch22CumulativeReporterBaseINS1_13JunitReporterEE4NodeINS1_14TestGroupStatsENS5_INS1_13TestCaseStatsENS4_11SectionNodeEEEEEESaISB_EE4sizeEv
FNDA:0,_ZNKSt6vectorISt10shared_ptrIN5Catch22CumulativeReporterBaseINS1_13JunitReporterEE4NodeINS1_14TestGroupStatsENS5_INS1_13TestCaseStatsENS4_11SectionNodeEEEEEESaISB_EE4sizeEv
FN:915,_ZNKSt6vectorISt4pairIlS_INSt7__cxx119sub_matchIN9__gnu_cxx17__normal_iteratorIPKcNS1_12basic_stringIcSt11char_traitsIcESaIcEEEEEEESaISD_EEESaISG_EE4sizeEv
FNDA:0,_ZNKSt6vectorISt4pairIlS_INSt7__cxx119sub_matchIN9__gnu_cxx17__normal_iteratorIPKcNS1_12basic_stringIcSt11char_traitsIcESaIcEEEEEEESaISD_EEESaISG_EE4sizeEv
FN:915,_ZNKSt6vectorISt10shared_ptrIN5Catch16IReporterFactoryEESaIS3_EE4sizeEv
FNDA:0,_ZNKSt6vectorISt10shared_ptrIN5Catch16IReporterFactoryEESaIS3_EE4sizeEv
FN:915,_ZNKSt6vectorISt10shared_ptrIN5Catch22CumulativeReporterBaseINS1_13JunitReporterEE4NodeINS1_13TestCaseStatsENS4_11SectionNodeEEEESaIS9_EE4sizeEv
FNDA:0,_ZNKSt6vectorISt10shared_ptrIN5Catch22CumulativeReporterBaseINS1_13JunitReporterEE4NodeINS1_13TestCaseStatsENS4_11SectionNodeEEEESaIS9_EE4sizeEv
FN:920,_ZNKSt6vectorIcSaIcEE8max_sizeEv
FNDA:0,_ZNKSt6vectorIcSaIcEE8max_sizeEv
FN:920,_ZNKSt6vectorISt4pairINSt7__cxx1112basic_stringIcSt11char_traitsIcESaIcEEES6_ESaIS7_EE8max_sizeEv
FNDA:0,_ZNKSt6vectorISt4pairINSt7__cxx1112basic_stringIcSt11char_traitsIcESaIcEEES6_ESaIS7_EE8max_sizeEv
FN:920,_ZNKSt6vectorIN5Catch11MessageInfoESaIS1_EE8max_sizeEv
FNDA:0,_ZNKSt6vectorIN5Catch11MessageInfoESaIS1_EE8max_sizeEv
FN:920,_ZNKSt6vectorISt4pairIccESaIS1_EE8max_sizeEv
FNDA:0,_ZNKSt6vectorISt4pairIccESaIS1_EE8max_sizeEv
FN:920,_ZNKSt6vectorISt10shared_ptrIN5Catch22CumulativeReporterBaseINS1_13JunitReporterEE4NodeINS1_12TestRunStatsENS5_INS1_14TestGroupStatsENS5_INS1_13TestCaseStatsENS4_11SectionNodeEEEEEEEESaISD_EE8max_sizeEv
FNDA:0,_ZNKSt6vectorISt10shared_ptrIN5Catch22CumulativeReporterBaseINS1_13JunitReporterEE4NodeINS1_12TestRunStatsENS5_INS1_14TestGroupStatsENS5_INS1_13TestCaseStatsENS4_11SectionNodeEEEEEEEESaISD_EE8max_sizeEv
FN:920,_ZNKSt6vectorINSt7__cxx1112regex_traitsIcE10_RegexMaskESaIS3_EE8max_sizeEv
FNDA:0,_ZNKSt6vectorINSt7__cxx1112regex_traitsIcE10_RegexMaskESaIS3_EE8max_sizeEv
FN:920,_ZNKSt6vectorIN5Catch13SummaryColumnESaIS1_EE8max_sizeEv
FNDA:0,_ZNKSt6vectorIN5Catch13SummaryColumnESaIS1_EE8max_sizeEv
FN:920,_ZNKSt6vectorISt10unique_ptrIN5Catch18IStreamingReporterESt14default_deleteIS2_EESaIS5_EE8max_sizeEv
FNDA:0,_ZNKSt6vectorISt10unique_ptrIN5Catch18IStreamingReporterESt14default_deleteIS2_EESaIS5_EE8max_sizeEv
FN:920,_ZNKSt6vectorISt10unique_ptrIKN5Catch20IExceptionTranslatorESt14default_deleteIS3_EESaIS6_EE8max_sizeEv
FNDA:0,_ZNKSt6vectorISt10unique_ptrIKN5Catch20IExceptionTranslatorESt14default_deleteIS3_EESaIS6_EE8max_sizeEv
FN:920,_ZNKSt6vectorISt10shared_ptrIN5Catch22CumulativeReporterBaseINS1_13JunitReporterEE4NodeINS1_14TestGroupStatsENS5_INS1_13TestCaseStatsENS4_11SectionNodeEEEEEESaISB_EE8max_sizeEv
FNDA:0,_ZNKSt6vectorISt10shared_ptrIN5Catch22CumulativeReporterBaseINS1_13JunitReporterEE4NodeINS1_14TestGroupStatsENS5_INS1_13TestCaseStatsENS4_11SectionNodeEEEEEESaISB_EE8max_sizeEv
FN:920,_ZNKSt6vectorIPN5Catch16TestCaseTracking8ITrackerESaIS3_EE8max_sizeEv
FNDA:4,_ZNKSt6vectorIPN5Catch16TestCaseTracking8ITrackerESaIS3_EE8max_sizeEv
FN:920,_ZNKSt6vectorImSaImEE8max_sizeEv
FNDA:0,_ZNKSt6vectorImSaImEE8max_sizeEv
FN:920,_ZNKSt6vectorIN5Catch5clara6detail11HelpColumnsESaIS3_EE8max_sizeEv
FNDA:0,_ZNKSt6vectorIN5Catch5clara6detail11HelpColumnsESaIS3_EE8max_sizeEv
FN:920,_ZNKSt6vectorISt10shared_ptrIN5Catch22CumulativeReporterBaseINS1_13JunitReporterEE4NodeINS1_13TestCaseStatsENS4_11SectionNodeEEEESaIS9_EE8max_sizeEv
FNDA:0,_ZNKSt6vectorISt10shared_ptrIN5Catch22CumulativeReporterBaseINS1_13JunitReporterEE4NodeINS1_13TestCaseStatsENS4_11SectionNodeEEEESaIS9_EE8max_sizeEv
FN:920,_ZNKSt6vectorIN5Catch5clara6detail5TokenESaIS3_EE8max_sizeEv
FNDA:0,_ZNKSt6vectorIN5Catch5clara6detail5TokenESaIS3_EE8max_sizeEv
FN:920,_ZNKSt6vectorISt10unique_ptrINSt7__cxx1119basic_ostringstreamIcSt11char_traitsIcESaIcEEESt14default_deleteIS6_EESaIS9_EE8max_sizeEv
FNDA:0,_ZNKSt6vectorISt10unique_ptrINSt7__cxx1119basic_ostringstreamIcSt11char_traitsIcESaIcEEESt14default_deleteIS6_EESaIS9_EE8max_sizeEv
FN:920,_ZNKSt6vectorISt10shared_ptrIN5Catch22CumulativeReporterBaseINS1_13JunitReporterEE11SectionNodeEESaIS6_EE8max_sizeEv
FNDA:0,_ZNKSt6vectorISt10shared_ptrIN5Catch22CumulativeReporterBaseINS1_13JunitReporterEE11SectionNodeEESaIS6_EE8max_sizeEv
FN:920,_ZNKSt6vectorISt10shared_ptrIN5Catch8TestSpec7PatternEESaIS4_EE8max_sizeEv
FNDA:2,_ZNKSt6vectorISt10shared_ptrIN5Catch8TestSpec7PatternEESaIS4_EE8max_sizeEv
FN:920,_ZNKSt6vectorIN5Catch8TestSpec6FilterESaIS2_EE8max_sizeEv
FNDA:2,_ZNKSt6vectorIN5Catch8TestSpec6FilterESaIS2_EE8max_sizeEv
FN:920,_ZNKSt6vectorINSt7__cxx119sub_matchIN9__gnu_cxx17__normal_iteratorIPKcNS0_12basic_stringIcSt11char_traitsIcESaIcEEEEEEESaISC_EE8max_sizeEv
FNDA:0,_ZNKSt6vectorINSt7__cxx119sub_matchIN9__gnu_cxx17__normal_iteratorIPKcNS0_12basic_stringIcSt11char_traitsIcESaIcEEEEEEESaISC_EE8max_sizeEv
FN:920,_ZNKSt6vectorISt10shared_ptrIN5Catch16TestCaseTracking8ITrackerEESaIS4_EE8max_sizeEv
FNDA:24,_ZNKSt6vectorISt10shared_ptrIN5Catch16TestCaseTracking8ITrackerEESaIS4_EE8max_sizeEv
FN:920,_ZNKSt6vectorINSt8__detail6_StateIcEESaIS2_EE8max_sizeEv
FNDA:0,_ZNKSt6vectorINSt8__detail6_StateIcEESaIS2_EE8max_sizeEv
FN:920,_ZNKSt6vectorINSt15__exception_ptr13exception_ptrESaIS1_EE8max_sizeEv
FNDA:0,_ZNKSt6vectorINSt15__exception_ptr13exception_ptrESaIS1_EE8max_sizeEv
FN:920,_ZNKSt6vectorIN5Catch11SectionInfoESaIS1_EE8max_sizeEv
FNDA:6,_ZNKSt6vectorIN5Catch11SectionInfoESaIS1_EE8max_sizeEv
FN:920,_ZNKSt6vectorISt10shared_ptrIN5Catch16IReporterFactoryEESaIS3_EE8max_sizeEv
FNDA:0,_ZNKSt6vectorISt10shared_ptrIN5Catch16IReporterFactoryEESaIS3_EE8max_sizeEv
FN:920,_ZNKSt6vectorIN5Catch5clara6detail3OptESaIS3_EE8max_sizeEv
FNDA:52,_ZNKSt6vectorIN5Catch5clara6detail3OptESaIS3_EE8max_sizeEv
FN:920,_ZNKSt6vectorIN5Catch5clara6detail3ArgESaIS3_EE8max_sizeEv
FNDA:2,_ZNKSt6vectorIN5Catch5clara6detail3ArgESaIS3_EE8max_sizeEv
FN:920,_ZNKSt6vectorIN5Catch5clara8TextFlow6Column8iteratorESaIS4_EE8max_sizeEv
FNDA:0,_ZNKSt6vectorIN5Catch5clara8TextFlow6Column8iteratorESaIS4_EE8max_sizeEv
FN:920,_ZNKSt6vectorIN5Catch5clara8TextFlow6ColumnESaIS3_EE8max_sizeEv
FNDA:0,_ZNKSt6vectorIN5Catch5clara8TextFlow6ColumnESaIS3_EE8max_sizeEv
FN:920,_ZNKSt6vectorINSt7__cxx1112basic_stringIcSt11char_traitsIcESaIcEEESaIS5_EE8max_sizeEv
FNDA:90,_ZNKSt6vectorINSt7__cxx1112basic_stringIcSt11char_traitsIcESaIcEEESaIS5_EE8max_sizeEv
FN:920,_ZNKSt6vectorIN5Catch8TestCaseESaIS1_EE8max_sizeEv
FNDA:4,_ZNKSt6vectorIN5Catch8TestCaseESaIS1_EE8max_sizeEv
FN:920,_ZNKSt6vectorIN5Catch14SectionEndInfoESaIS1_EE8max_sizeEv
FNDA:0,_ZNKSt6vectorIN5Catch14SectionEndInfoESaIS1_EE8max_sizeEv
FN:920,_ZNKSt6vectorIPN5Catch10ISingletonESaIS2_EE8max_sizeEv
FNDA:2,_ZNKSt6vectorIPN5Catch10ISingletonESaIS2_EE8max_sizeEv
FN:920,_ZNKSt6vectorISt4pairIlS_INSt7__cxx119sub_matchIN9__gnu_cxx17__normal_iteratorIPKcNS1_12basic_stringIcSt11char_traitsIcESaIcEEEEEEESaISD_EEESaISG_EE8max_sizeEv
FNDA:0,_ZNKSt6vectorISt4pairIlS_INSt7__cxx119sub_matchIN9__gnu_cxx17__normal_iteratorIPKcNS1_12basic_stringIcSt11char_traitsIcESaIcEEEEEEESaISD_EEESaISG_EE8max_sizeEv
FN:920,_ZNKSt6vectorIN5Catch14AssertionStatsESaIS1_EE8max_sizeEv
FNDA:0,_ZNKSt6vectorIN5Catch14AssertionStatsESaIS1_EE8max_sizeEv
FN:934,_ZNSt6vectorIN5Catch5clara6detail5TokenESaIS3_EE6resizeEm
FNDA:1,_ZNSt6vectorIN5Catch5clara6detail5TokenESaIS3_EE6resizeEm
FN:934,_ZNSt6vectorINSt7__cxx119sub_matchIN9__gnu_cxx17__normal_iteratorIPKcNS0_12basic_stringIcSt11char_traitsIcESaIcEEEEEEESaISC_EE6resizeEm
FNDA:0,_ZNSt6vectorINSt7__cxx119sub_matchIN9__gnu_cxx17__normal_iteratorIPKcNS0_12basic_stringIcSt11char_traitsIcESaIcEEEEEEESaISC_EE6resizeEm
FN:995,_ZNKSt6vectorINSt7__cxx1112basic_stringIcSt11char_traitsIcESaIcEEESaIS5_EE8capacityEv
FNDA:0,_ZNKSt6vectorINSt7__cxx1112basic_stringIcSt11char_traitsIcESaIcEEESaIS5_EE8capacityEv
FN:995,_ZNKSt6vectorIN5Catch5clara6detail3OptESaIS3_EE8capacityEv
FNDA:0,_ZNKSt6vectorIN5Catch5clara6detail3OptESaIS3_EE8capacityEv
FN:995,_ZNKSt6vectorIN5Catch5clara6detail3ArgESaIS3_EE8capacityEv
FNDA:0,_ZNKSt6vectorIN5Catch5clara6detail3ArgESaIS3_EE8capacityEv
FN:995,_ZNKSt6vectorINSt7__cxx119sub_matchIN9__gnu_cxx17__normal_iteratorIPKcNS0_12basic_stringIcSt11char_traitsIcESaIcEEEEEEESaISC_EE8capacityEv
FNDA:0,_ZNKSt6vectorINSt7__cxx119sub_matchIN9__gnu_cxx17__normal_iteratorIPKcNS0_12basic_stringIcSt11char_traitsIcESaIcEEEEEEESaISC_EE8capacityEv
FN:995,_ZNKSt6vectorIN5Catch5clara8TextFlow6Column8iteratorESaIS4_EE8capacityEv
FNDA:0,_ZNKSt6vectorIN5Catch5clara8TextFlow6Column8iteratorESaIS4_EE8capacityEv
FN:995,_ZNKSt6vectorImSaImEE8capacityEv
FNDA:0,_ZNKSt6vectorImSaImEE8capacityEv
FN:995,_ZNKSt6vectorIN5Catch8TestCaseESaIS1_EE8capacityEv
FNDA:0,_ZNKSt6vectorIN5Catch8TestCaseESaIS1_EE8capacityEv
FN:1004,_ZNKSt6vectorImSaImEE5emptyEv
FNDA:0,_ZNKSt6vectorImSaImEE5emptyEv
FN:1004,_ZNKSt6vectorIN5Catch5clara6detail5TokenESaIS3_EE5emptyEv
FNDA:1,_ZNKSt6vectorIN5Catch5clara6detail5TokenESaIS3_EE5emptyEv
FN:1004,_ZNKSt6vectorIN5Catch14AssertionStatsESaIS1_EE5emptyEv
FNDA:0,_ZNKSt6vectorIN5Catch14AssertionStatsESaIS1_EE5emptyEv
FN:1004,_ZNKSt6vectorISt10shared_ptrIN5Catch22CumulativeReporterBaseINS1_13JunitReporterEE11SectionNodeEESaIS6_EE5emptyEv
FNDA:0,_ZNKSt6vectorISt10shared_ptrIN5Catch22CumulativeReporterBaseINS1_13JunitReporterEE11SectionNodeEESaIS6_EE5emptyEv
FN:1004,_ZNKSt6vectorIN5Catch8TestSpec6FilterESaIS2_EE5emptyEv
FNDA:0,_ZNKSt6vectorIN5Catch8TestSpec6FilterESaIS2_EE5emptyEv
FN:1004,_ZNKSt6vectorINSt15__exception_ptr13exception_ptrESaIS1_EE5emptyEv
FNDA:1,_ZNKSt6vectorINSt15__exception_ptr13exception_ptrESaIS1_EE5emptyEv
FN:1004,_ZNKSt6vectorISt10unique_ptrIKN5Catch20IExceptionTranslatorESt14default_deleteIS3_EESaIS6_EE5emptyEv
FNDA:0,_ZNKSt6vectorISt10unique_ptrIKN5Catch20IExceptionTranslatorESt14default_deleteIS3_EESaIS6_EE5emptyEv
FN:1004,_ZNKSt6vectorISt10shared_ptrIN5Catch16IReporterFactoryEESaIS3_EE5emptyEv
FNDA:1,_ZNKSt6vectorISt10shared_ptrIN5Catch16IReporterFactoryEESaIS3_EE5emptyEv
FN:1004,_ZNKSt6vectorISt10shared_ptrIN5Catch8TestSpec7PatternEESaIS4_EE5emptyEv
FNDA:1,_ZNKSt6vectorISt10shared_ptrIN5Catch8TestSpec7PatternEESaIS4_EE5emptyEv
FN:1004,_ZNKSt6vectorISt10shared_ptrIN5Catch16TestCaseTracking8ITrackerEESaIS4_EE5emptyEv
FNDA:19,_ZNKSt6vectorISt10shared_ptrIN5Catch16TestCaseTracking8ITrackerEESaIS4_EE5emptyEv
FN:1004,_ZNKSt6vectorIN5Catch5clara6detail3OptESaIS3_EE5emptyEv
FNDA:0,_ZNKSt6vectorIN5Catch5clara6detail3OptESaIS3_EE5emptyEv
FN:1004,_ZNKSt6vectorIN5Catch14SectionEndInfoESaIS1_EE5emptyEv
FNDA:0,_ZNKSt6vectorIN5Catch14SectionEndInfoESaIS1_EE5emptyEv
FN:1004,_ZNKSt6vectorIPN5Catch16TestCaseTracking8ITrackerESaIS3_EE5emptyEv
FNDA:19,_ZNKSt6vectorIPN5Catch16TestCaseTracking8ITrackerESaIS3_EE5emptyEv
FN:1004,_ZNKSt6vectorISt4pairIlS_INSt7__cxx119sub_matchIN9__gnu_cxx17__normal_iteratorIPKcNS1_12basic_stringIcSt11char_traitsIcESaIcEEEEEEESaISD_EEESaISG_EE5emptyEv
FNDA:0,_ZNKSt6vectorISt4pairIlS_INSt7__cxx119sub_matchIN9__gnu_cxx17__normal_iteratorIPKcNS1_12basic_stringIcSt11char_traitsIcESaIcEEEEEEESaISD_EEESaISG_EE5emptyEv
FN:1004,_ZNKSt6vectorIN5Catch11SectionInfoESaIS1_EE5emptyEv
FNDA:0,_ZNKSt6vectorIN5Catch11SectionInfoESaIS1_EE5emptyEv
FN:1004,_ZNKSt6vectorINSt7__cxx1112basic_stringIcSt11char_traitsIcESaIcEEESaIS5_EE5emptyEv
FNDA:39,_ZNKSt6vectorINSt7__cxx1112basic_stringIcSt11char_traitsIcESaIcEEESaIS5_EE5emptyEv
FN:1004,_ZNKSt6vectorIN5Catch8TestCaseESaIS1_EE5emptyEv
FNDA:2,_ZNKSt6vectorIN5Catch8TestCaseESaIS1_EE5emptyEv
FN:1040,_ZNSt6vectorImSaImEEixEm
FNDA:0,_ZNSt6vectorImSaImEEixEm
FN:1040,_ZNSt6vectorISt10unique_ptrINSt7__cxx1119basic_ostringstreamIcSt11char_traitsIcESaIcEEESt14default_deleteIS6_EESaIS9_EEixEm
FNDA:0,_ZNSt6vectorISt10unique_ptrINSt7__cxx1119basic_ostringstreamIcSt11char_traitsIcESaIcEEESt14default_deleteIS6_EESaIS9_EEixEm
FN:1040,_ZNSt6vectorINSt8__detail6_StateIcEESaIS2_EEixEm
FNDA:0,_ZNSt6vectorINSt8__detail6_StateIcEESaIS2_EEixEm
FN:1040,_ZNSt6vectorIN5Catch11MessageInfoESaIS1_EEixEm
FNDA:0,_ZNSt6vectorIN5Catch11MessageInfoESaIS1_EEixEm
FN:1040,_ZNSt6vectorINSt7__cxx1112basic_stringIcSt11char_traitsIcESaIcEEESaIS5_EEixEm
FNDA:0,_ZNSt6vectorINSt7__cxx1112basic_stringIcSt11char_traitsIcESaIcEEESaIS5_EEixEm
FN:1040,_ZNSt6vectorIN5Catch5clara8TextFlow6Column8iteratorESaIS4_EEixEm
FNDA:0,_ZNSt6vectorIN5Catch5clara8TextFlow6Column8iteratorESaIS4_EEixEm
FN:1040,_ZNSt6vectorISt4pairIN9__gnu_cxx17__normal_iteratorIPKcNSt7__cxx1112basic_stringIcSt11char_traitsIcESaIcEEEEEiESaISC_EEixEm
FNDA:0,_ZNSt6vectorISt4pairIN9__gnu_cxx17__normal_iteratorIPKcNSt7__cxx1112basic_stringIcSt11char_traitsIcESaIcEEEEEiESaISC_EEixEm
FN:1040,_ZNSt6vectorINSt7__cxx119sub_matchIN9__gnu_cxx17__normal_iteratorIPKcNS0_12basic_stringIcSt11char_traitsIcESaIcEEEEEEESaISC_EEixEm
FNDA:0,_ZNSt6vectorINSt7__cxx119sub_matchIN9__gnu_cxx17__normal_iteratorIPKcNS0_12basic_stringIcSt11char_traitsIcESaIcEEEEEEESaISC_EEixEm
FN:1040,_ZNSt6vectorIN5Catch12_GLOBAL__N_110ColumnInfoESaIS2_EEixEm
FNDA:0,_ZNSt6vectorIN5Catch12_GLOBAL__N_110ColumnInfoESaIS2_EEixEm
FN:1058,_ZNKSt6vectorIN5Catch5clara8TextFlow6ColumnESaIS3_EEixEm
FNDA:0,_ZNKSt6vectorIN5Catch5clara8TextFlow6ColumnESaIS3_EEixEm
FN:1058,_ZNKSt6vectorIN5Catch5clara8TextFlow6Column8iteratorESaIS4_EEixEm
FNDA:0,_ZNKSt6vectorIN5Catch5clara8TextFlow6Column8iteratorESaIS4_EEixEm
FN:1058,_ZNKSt6vectorINSt7__cxx1112basic_stringIcSt11char_traitsIcESaIcEEESaIS5_EEixEm
FNDA:0,_ZNKSt6vectorINSt7__cxx1112basic_stringIcSt11char_traitsIcESaIcEEESaIS5_EEixEm
FN:1058,_ZNKSt6vectorIN5Catch12_GLOBAL__N_110ColumnInfoESaIS2_EEixEm
FNDA:0,_ZNKSt6vectorIN5Catch12_GLOBAL__N_110ColumnInfoESaIS2_EEixEm
FN:1058,_ZNKSt6vectorINSt8__detail6_StateIcEESaIS2_EEixEm
FNDA:0,_ZNKSt6vectorINSt8__detail6_StateIcEESaIS2_EEixEm
FN:1058,_ZNKSt6vectorISt10unique_ptrIKN5Catch20IExceptionTranslatorESt14default_deleteIS3_EESaIS6_EEixEm
FNDA:0,_ZNKSt6vectorISt10unique_ptrIKN5Catch20IExceptionTranslatorESt14default_deleteIS3_EESaIS6_EEixEm
FN:1129,_ZNKSt6vectorIN5Catch5clara6detail5TokenESaIS3_EE5frontEv
FNDA:0,_ZNKSt6vectorIN5Catch5clara6detail5TokenESaIS3_EE5frontEv
FN:1129,_ZNKSt6vectorISt10shared_ptrIN5Catch22CumulativeReporterBaseINS1_13JunitReporterEE11SectionNodeEESaIS6_EE5frontEv
FNDA:0,_ZNKSt6vectorISt10shared_ptrIN5Catch22CumulativeReporterBaseINS1_13JunitReporterEE11SectionNodeEESaIS6_EE5frontEv
FN:1140,_ZNSt6vectorISt10unique_ptrINSt7__cxx1119basic_ostringstreamIcSt11char_traitsIcESaIcEEESt14default_deleteIS6_EESaIS9_EE4backEv
FNDA:0,_ZNSt6vectorISt10unique_ptrINSt7__cxx1119basic_ostringstreamIcSt11char_traitsIcESaIcEEESt14default_deleteIS6_EESaIS9_EE4backEv
FN:1140,_ZNSt6vectorIcSaIcEE4backEv
FNDA:0,_ZNSt6vectorIcSaIcEE4backEv
FN:1140,_ZNSt6vectorIN5Catch13SummaryColumnESaIS1_EE4backEv
FNDA:0,_ZNSt6vectorIN5Catch13SummaryColumnESaIS1_EE4backEv
FN:1140,_ZNSt6vectorISt10unique_ptrIN5Catch18IStreamingReporterESt14default_deleteIS2_EESaIS5_EE4backEv
FNDA:0,_ZNSt6vectorISt10unique_ptrIN5Catch18IStreamingReporterESt14default_deleteIS2_EESaIS5_EE4backEv
FN:1140,_ZNSt6vectorIN5Catch11MessageInfoESaIS1_EE4backEv
FNDA:0,_ZNSt6vectorIN5Catch11MessageInfoESaIS1_EE4backEv
FN:1140,_ZNSt6vectorIPN5Catch16TestCaseTracking8ITrackerESaIS3_EE4backEv
FNDA:38,_ZNSt6vectorIPN5Catch16TestCaseTracking8ITrackerESaIS3_EE4backEv
FN:1140,_ZNSt6vectorISt10shared_ptrIN5Catch22CumulativeReporterBaseINS1_13JunitReporterEE4NodeINS1_14TestGroupStatsENS5_INS1_13TestCaseStatsENS4_11SectionNodeEEEEEESaISB_EE4backEv
FNDA:0,_ZNSt6vectorISt10shared_ptrIN5Catch22CumulativeReporterBaseINS1_13JunitReporterEE4NodeINS1_14TestGroupStatsENS5_INS1_13TestCaseStatsENS4_11SectionNodeEEEEEESaISB_EE4backEv
FN:1140,_ZNSt6vectorISt10unique_ptrIKN5Catch20IExceptionTranslatorESt14default_deleteIS3_EESaIS6_EE4backEv
FNDA:0,_ZNSt6vectorISt10unique_ptrIKN5Catch20IExceptionTranslatorESt14default_deleteIS3_EESaIS6_EE4backEv
FN:1140,_ZNSt6vectorIN5Catch5clara6detail5TokenESaIS3_EE4backEv
FNDA:0,_ZNSt6vectorIN5Catch5clara6detail5TokenESaIS3_EE4backEv
FN:1140,_ZNSt6vectorISt4pairINSt7__cxx1112basic_stringIcSt11char_traitsIcESaIcEEES6_ESaIS7_EE4backEv
FNDA:0,_ZNSt6vectorISt4pairINSt7__cxx1112basic_stringIcSt11char_traitsIcESaIcEEES6_ESaIS7_EE4backEv
FN:1140,_ZNSt6vectorIN5Catch5clara8TextFlow6Column8iteratorESaIS4_EE4backEv
FNDA:0,_ZNSt6vectorIN5Catch5clara8TextFlow6Column8iteratorESaIS4_EE4backEv
FN:1140,_ZNSt6vectorISt4pairIccESaIS1_EE4backEv
FNDA:0,_ZNSt6vectorISt4pairIccESaIS1_EE4backEv
FN:1140,_ZNSt6vectorISt10shared_ptrIN5Catch22CumulativeReporterBaseINS1_13JunitReporterEE11SectionNodeEESaIS6_EE4backEv
FNDA:0,_ZNSt6vectorISt10shared_ptrIN5Catch22CumulativeReporterBaseINS1_13JunitReporterEE11SectionNodeEESaIS6_EE4backEv
FN:1140,_ZNSt6vectorISt4pairIlS_INSt7__cxx119sub_matchIN9__gnu_cxx17__normal_iteratorIPKcNS1_12basic_stringIcSt11char_traitsIcESaIcEEEEEEESaISD_EEESaISG_EE4backEv
FNDA:0,_ZNSt6vectorISt4pairIlS_INSt7__cxx119sub_matchIN9__gnu_cxx17__normal_iteratorIPKcNS1_12basic_stringIcSt11char_traitsIcESaIcEEEEEEESaISD_EEESaISG_EE4backEv
FN:1140,_ZNSt6vectorIN5Catch11SectionInfoESaIS1_EE4backEv
FNDA:0,_ZNSt6vectorIN5Catch11SectionInfoESaIS1_EE4backEv
FN:1140,_ZNSt6vectorINSt8__detail6_StateIcEESaIS2_EE4backEv
FNDA:0,_ZNSt6vectorINSt8__detail6_StateIcEESaIS2_EE4backEv
FN:1140,_ZNSt6vectorINSt7__cxx1112basic_stringIcSt11char_traitsIcESaIcEEESaIS5_EE4backEv
FNDA:0,_ZNSt6vectorINSt7__cxx1112basic_stringIcSt11char_traitsIcESaIcEEESaIS5_EE4backEv
FN:1140,_ZNSt6vectorImSaImEE4backEv
FNDA:0,_ZNSt6vectorImSaImEE4backEv
FN:1140,_ZNSt6vectorISt10shared_ptrIN5Catch16TestCaseTracking8ITrackerEESaIS4_EE4backEv
FNDA:19,_ZNSt6vectorISt10shared_ptrIN5Catch16TestCaseTracking8ITrackerEESaIS4_EE4backEv
FN:1165,_ZNSt6vectorIcSaIcEE4dataEv
FNDA:0,_ZNSt6vectorIcSaIcEE4dataEv
FN:1184,_ZNSt6vectorISt10shared_ptrIN5Catch22CumulativeReporterBaseINS1_13JunitReporterEE4NodeINS1_14TestGroupStatsENS5_INS1_13TestCaseStatsENS4_11SectionNodeEEEEEESaISB_EE9push_backERKSB_
FNDA:0,_ZNSt6vectorISt10shared_ptrIN5Catch22CumulativeReporterBaseINS1_13JunitReporterEE4NodeINS1_14TestGroupStatsENS5_INS1_13TestCaseStatsENS4_11SectionNodeEEEEEESaISB_EE9push_backERKSB_
FN:1184,_ZNSt6vectorISt10shared_ptrIN5Catch22CumulativeReporterBaseINS1_13JunitReporterEE4NodeINS1_12TestRunStatsENS5_INS1_14TestGroupStatsENS5_INS1_13TestCaseStatsENS4_11SectionNodeEEEEEEEESaISD_EE9push_backERKSD_
FNDA:0,_ZNSt6vectorISt10shared_ptrIN5Catch22CumulativeReporterBaseINS1_13JunitReporterEE4NodeINS1_12TestRunStatsENS5_INS1_14TestGroupStatsENS5_INS1_13TestCaseStatsENS4_11SectionNodeEEEEEEEESaISD_EE9push_backERKSD_
FN:1184,_ZNSt6vectorISt10shared_ptrIN5Catch16IReporterFactoryEESaIS3_EE9push_backERKS3_
FNDA:0,_ZNSt6vectorISt10shared_ptrIN5Catch16IReporterFactoryEESaIS3_EE9push_backERKS3_
FN:1184,_ZNSt6vectorIN5Catch11SectionInfoESaIS1_EE9push_backERKS1_
FNDA:36,_ZNSt6vectorIN5Catch11SectionInfoESaIS1_EE9push_backERKS1_
FN:1184,_ZNSt6vectorIN5Catch8TestCaseESaIS1_EE9push_backERKS1_
FNDA:2,_ZNSt6vectorIN5Catch8TestCaseESaIS1_EE9push_backERKS1_
FN:1184,_ZNSt6vectorISt10shared_ptrIN5Catch16TestCaseTracking8ITrackerEESaIS4_EE9push_backERKS4_
FNDA:20,_ZNSt6vectorISt10shared_ptrIN5Catch16TestCaseTracking8ITrackerEESaIS4_EE9push_backERKS4_
FN:1184,_ZNSt6vectorIN5Catch11MessageInfoESaIS1_EE9push_backERKS1_
FNDA:0,_ZNSt6vectorIN5Catch11MessageInfoESaIS1_EE9push_backERKS1_
FN:1184,_ZNSt6vectorImSaImEE9push_backERKm
FNDA:0,_ZNSt6vectorImSaImEE9push_backERKm
FN:1184,_ZNSt6vectorIN5Catch14AssertionStatsESaIS1_EE9push_backERKS1_
FNDA:0,_ZNSt6vectorIN5Catch14AssertionStatsESaIS1_EE9push_backERKS1_
FN:1184,_ZNSt6vectorISt10shared_ptrIN5Catch22CumulativeReporterBaseINS1_13JunitReporterEE11SectionNodeEESaIS6_EE9push_backERKS6_
FNDA:0,_ZNSt6vectorISt10shared_ptrIN5Catch22CumulativeReporterBaseINS1_13JunitReporterEE11SectionNodeEESaIS6_EE9push_backERKS6_
FN:1184,_ZNSt6vectorISt10shared_ptrIN5Catch22CumulativeReporterBaseINS1_13JunitReporterEE4NodeINS1_13TestCaseStatsENS4_11SectionNodeEEEESaIS9_EE9push_backERKS9_
FNDA:0,_ZNSt6vectorISt10shared_ptrIN5Catch22CumulativeReporterBaseINS1_13JunitReporterEE4NodeINS1_13TestCaseStatsENS4_11SectionNodeEEEESaIS9_EE9push_backERKS9_
FN:1184,_ZNSt6vectorINSt7__cxx1112regex_traitsIcE10_RegexMaskESaIS3_EE9push_backERKS3_
FNDA:0,_ZNSt6vectorINSt7__cxx1112regex_traitsIcE10_RegexMaskESaIS3_EE9push_backERKS3_
FN:1184,_ZNSt6vectorIN5Catch8TestSpec6FilterESaIS2_EE9push_backERKS2_
FNDA:1,_ZNSt6vectorIN5Catch8TestSpec6FilterESaIS2_EE9push_backERKS2_
FN:1184,_ZNSt6vectorIN5Catch5clara6detail3OptESaIS3_EE9push_backERKS3_
FNDA:26,_ZNSt6vectorIN5Catch5clara6detail3OptESaIS3_EE9push_backERKS3_
FN:1184,_ZNSt6vectorIN5Catch5clara6detail3ArgESaIS3_EE9push_backERKS3_
FNDA:1,_ZNSt6vectorIN5Catch5clara6detail3ArgESaIS3_EE9push_backERKS3_
FN:1184,_ZNSt6vectorIN5Catch5clara8TextFlow6ColumnESaIS3_EE9push_backERKS3_
FNDA:0,_ZNSt6vectorIN5Catch5clara8TextFlow6ColumnESaIS3_EE9push_backERKS3_
FN:1184,_ZNSt6vectorINSt7__cxx1112basic_stringIcSt11char_traitsIcESaIcEEESaIS5_EE9push_backERKS5_
FNDA:45,_ZNSt6vectorINSt7__cxx1112basic_stringIcSt11char_traitsIcESaIcEEESaIS5_EE9push_backERKS5_
FN:1184,_ZNSt6vectorIN5Catch14SectionEndInfoESaIS1_EE9push_backERKS1_
FNDA:0,_ZNSt6vectorIN5Catch14SectionEndInfoESaIS1_EE9push_backERKS1_
FN:1184,_ZNSt6vectorIPN5Catch10ISingletonESaIS2_EE9push_backERKS2_
FNDA:1,_ZNSt6vectorIPN5Catch10ISingletonESaIS2_EE9push_backERKS2_
FN:1184,_ZNSt6vectorINSt15__exception_ptr13exception_ptrESaIS1_EE9push_backERKS1_
FNDA:0,_ZNSt6vectorINSt15__exception_ptr13exception_ptrESaIS1_EE9push_backERKS1_
FN:1184,_ZNSt6vectorISt10shared_ptrIN5Catch8TestSpec7PatternEESaIS4_EE9push_backERKS4_
FNDA:1,_ZNSt6vectorISt10shared_ptrIN5Catch8TestSpec7PatternEESaIS4_EE9push_backERKS4_
FN:1200,_ZNSt6vectorIPN5Catch16TestCaseTracking8ITrackerESaIS3_EE9push_backEOS3_
FNDA:19,_ZNSt6vectorIPN5Catch16TestCaseTracking8ITrackerESaIS3_EE9push_backEOS3_
FN:1200,_ZNSt6vectorIcSaIcEE9push_backEOc
FNDA:0,_ZNSt6vectorIcSaIcEE9push_backEOc
FN:1200,_ZNSt6vectorISt10unique_ptrIN5Catch18IStreamingReporterESt14default_deleteIS2_EESaIS5_EE9push_backEOS5_
FNDA:0,_ZNSt6vectorISt10unique_ptrIN5Catch18IStreamingReporterESt14default_deleteIS2_EESaIS5_EE9push_backEOS5_
FN:1200,_ZNSt6vectorISt10unique_ptrINSt7__cxx1119basic_ostringstreamIcSt11char_traitsIcESaIcEEESt14default_deleteIS6_EESaIS9_EE9push_backEOS9_
FNDA:0,_ZNSt6vectorISt10unique_ptrINSt7__cxx1119basic_ostringstreamIcSt11char_traitsIcESaIcEEESt14default_deleteIS6_EESaIS9_EE9push_backEOS9_
FN:1200,_ZNSt6vectorISt4pairINSt7__cxx1112basic_stringIcSt11char_traitsIcESaIcEEES6_ESaIS7_EE9push_backEOS7_
FNDA:0,_ZNSt6vectorISt4pairINSt7__cxx1112basic_stringIcSt11char_traitsIcESaIcEEES6_ESaIS7_EE9push_backEOS7_
FN:1200,_ZNSt6vectorINSt7__cxx1112basic_stringIcSt11char_traitsIcESaIcEEESaIS5_EE9push_backEOS5_
FNDA:0,_ZNSt6vectorINSt7__cxx1112basic_stringIcSt11char_traitsIcESaIcEEESaIS5_EE9push_backEOS5_
FN:1200,_ZNSt6vectorIN5Catch13SummaryColumnESaIS1_EE9push_backEOS1_
FNDA:0,_ZNSt6vectorIN5Catch13SummaryColumnESaIS1_EE9push_backEOS1_
FN:1200,_ZNSt6vectorIN5Catch5clara8TextFlow6Column8iteratorESaIS4_EE9push_backEOS4_
FNDA:0,_ZNSt6vectorIN5Catch5clara8TextFlow6Column8iteratorESaIS4_EE9push_backEOS4_
FN:1200,_ZNSt6vectorISt4pairIccESaIS1_EE9push_backEOS1_
FNDA:0,_ZNSt6vectorISt4pairIccESaIS1_EE9push_backEOS1_
FN:1200,_ZNSt6vectorIN5Catch5clara6detail5TokenESaIS3_EE9push_backEOS3_
FNDA:0,_ZNSt6vectorIN5Catch5clara6detail5TokenESaIS3_EE9push_backEOS3_
FN:1200,_ZNSt6vectorINSt8__detail6_StateIcEESaIS2_EE9push_backEOS2_
FNDA:0,_ZNSt6vectorINSt8__detail6_StateIcEESaIS2_EE9push_backEOS2_
FN:1200,_ZNSt6vectorISt10unique_ptrIKN5Catch20IExceptionTranslatorESt14default_deleteIS3_EESaIS6_EE9push_backEOS6_
FNDA:0,_ZNSt6vectorISt10unique_ptrIKN5Catch20IExceptionTranslatorESt14default_deleteIS3_EESaIS6_EE9push_backEOS6_
FN:1222,_ZNSt6vectorIN5Catch11SectionInfoESaIS1_EE8pop_backEv
FNDA:36,_ZNSt6vectorIN5Catch11SectionInfoESaIS1_EE8pop_backEv
FN:1222,_ZNSt6vectorISt10shared_ptrIN5Catch22CumulativeReporterBaseINS1_13JunitReporterEE11SectionNodeEESaIS6_EE8pop_backEv
FNDA:0,_ZNSt6vectorISt10shared_ptrIN5Catch22CumulativeReporterBaseINS1_13JunitReporterEE11SectionNodeEESaIS6_EE8pop_backEv
FN:1222,_ZNSt6vectorIPN5Catch16TestCaseTracking8ITrackerESaIS3_EE8pop_backEv
FNDA:19,_ZNSt6vectorIPN5Catch16TestCaseTracking8ITrackerESaIS3_EE8pop_backEv
FN:1222,_ZNSt6vectorINSt7__cxx1112basic_stringIcSt11char_traitsIcESaIcEEESaIS5_EE8pop_backEv
FNDA:0,_ZNSt6vectorINSt7__cxx1112basic_stringIcSt11char_traitsIcESaIcEEESaIS5_EE8pop_backEv
FN:1222,_ZNSt6vectorImSaImEE8pop_backEv
FNDA:0,_ZNSt6vectorImSaImEE8pop_backEv
FN:1376,_ZNSt6vectorINSt7__cxx1112basic_stringIcSt11char_traitsIcESaIcEEESaIS5_EE6insertIN9__gnu_cxx17__normal_iteratorIPKS5_S7_EEvEENSA_IPS5_S7_EESD_T_SG_
FNDA:0,_ZNSt6vectorINSt7__cxx1112basic_stringIcSt11char_traitsIcESaIcEEESaIS5_EE6insertIN9__gnu_cxx17__normal_iteratorIPKS5_S7_EEvEENSA_IPS5_S7_EESD_T_SG_
FN:1376,_ZNSt6vectorIN5Catch5clara6detail11HelpColumnsESaIS3_EE6insertIN9__gnu_cxx17__normal_iteratorIPS3_S5_EEvEESA_NS8_IPKS3_S5_EET_SE_
FNDA:0,_ZNSt6vectorIN5Catch5clara6detail11HelpColumnsESaIS3_EE6insertIN9__gnu_cxx17__normal_iteratorIPS3_S5_EEvEESA_NS8_IPKS3_S5_EET_SE_
FN:1427,_ZNSt6vectorIN5Catch5clara6detail5TokenESaIS3_EE5eraseEN9__gnu_cxx17__normal_iteratorIPKS3_S5_EE
FNDA:0,_ZNSt6vectorIN5Catch5clara6detail5TokenESaIS3_EE5eraseEN9__gnu_cxx17__normal_iteratorIPKS3_S5_EE
FN:1454,_ZNSt6vectorIN5Catch11MessageInfoESaIS1_EE5eraseEN9__gnu_cxx17__normal_iteratorIPKS1_S3_EES8_
FNDA:0,_ZNSt6vectorIN5Catch11MessageInfoESaIS1_EE5eraseEN9__gnu_cxx17__normal_iteratorIPKS1_S3_EES8_
FN:1454,_ZNSt6vectorIcSaIcEE5eraseEN9__gnu_cxx17__normal_iteratorIPKcS1_EES6_
FNDA:0,_ZNSt6vectorIcSaIcEE5eraseEN9__gnu_cxx17__normal_iteratorIPKcS1_EES6_
FN:1454,_ZNSt6vectorINSt7__cxx1112basic_stringIcSt11char_traitsIcESaIcEEESaIS5_EE5eraseEN9__gnu_cxx17__normal_iteratorIPKS5_S7_EESC_
FNDA:2,_ZNSt6vectorINSt7__cxx1112basic_stringIcSt11char_traitsIcESaIcEEESaIS5_EE5eraseEN9__gnu_cxx17__normal_iteratorIPKS5_S7_EESC_
FN:1477,_ZNSt6vectorISt10shared_ptrIN5Catch22CumulativeReporterBaseINS1_13JunitReporterEE4NodeINS1_14TestGroupStatsENS5_INS1_13TestCaseStatsENS4_11SectionNodeEEEEEESaISB_EE4swapERSD_
FNDA:0,_ZNSt6vectorISt10shared_ptrIN5Catch22CumulativeReporterBaseINS1_13JunitReporterEE4NodeINS1_14TestGroupStatsENS5_INS1_13TestCaseStatsENS4_11SectionNodeEEEEEESaISB_EE4swapERSD_
FN:1477,_ZNSt6vectorISt10shared_ptrIN5Catch22CumulativeReporterBaseINS1_13JunitReporterEE4NodeINS1_13TestCaseStatsENS4_11SectionNodeEEEESaIS9_EE4swapERSB_
FNDA:0,_ZNSt6vectorISt10shared_ptrIN5Catch22CumulativeReporterBaseINS1_13JunitReporterEE4NodeINS1_13TestCaseStatsENS4_11SectionNodeEEEESaIS9_EE4swapERSB_
FN:1495,_ZNSt6vectorIN5Catch5clara6detail3OptESaIS3_EE5clearEv
FNDA:0,_ZNSt6vectorIN5Catch5clara6detail3OptESaIS3_EE5clearEv
FN:1495,_ZNSt6vectorINSt7__cxx119sub_matchIN9__gnu_cxx17__normal_iteratorIPKcNS0_12basic_stringIcSt11char_traitsIcESaIcEEEEEEESaISC_EE5clearEv
FNDA:0,_ZNSt6vectorINSt7__cxx119sub_matchIN9__gnu_cxx17__normal_iteratorIPKcNS0_12basic_stringIcSt11char_traitsIcESaIcEEEEEEESaISC_EE5clearEv
FN:1495,_ZNSt6vectorImSaImEE5clearEv
FNDA:2,_ZNSt6vectorImSaImEE5clearEv
FN:1495,_ZNSt6vectorIN5Catch11MessageInfoESaIS1_EE5clearEv
FNDA:36,_ZNSt6vectorIN5Catch11MessageInfoESaIS1_EE5clearEv
FN:1495,_ZNSt6vectorIN5Catch14SectionEndInfoESaIS1_EE5clearEv
FNDA:17,_ZNSt6vectorIN5Catch14SectionEndInfoESaIS1_EE5clearEv
FN:1495,_ZNSt6vectorINSt7__cxx1112basic_stringIcSt11char_traitsIcESaIcEEESaIS5_EE5clearEv
FNDA:2,_ZNSt6vectorINSt7__cxx1112basic_stringIcSt11char_traitsIcESaIcEEESaIS5_EE5clearEv
FN:1495,_ZNSt6vectorIN5Catch5clara6detail3ArgESaIS3_EE5clearEv
FNDA:0,_ZNSt6vectorIN5Catch5clara6detail3ArgESaIS3_EE5clearEv
FN:1495,_ZNSt6vectorISt10shared_ptrIN5Catch16TestCaseTracking8ITrackerEESaIS4_EE5clearEv
FNDA:0,_ZNSt6vectorISt10shared_ptrIN5Catch16TestCaseTracking8ITrackerEESaIS4_EE5clearEv
FN:1495,_ZNSt6vectorISt4pairIlS_INSt7__cxx119sub_matchIN9__gnu_cxx17__normal_iteratorIPKcNS1_12basic_stringIcSt11char_traitsIcESaIcEEEEEEESaISD_EEESaISG_EE5clearEv
FNDA:0,_ZNSt6vectorISt4pairIlS_INSt7__cxx119sub_matchIN9__gnu_cxx17__normal_iteratorIPKcNS1_12basic_stringIcSt11char_traitsIcESaIcEEEEEEESaISD_EEESaISG_EE5clearEv
FN:1505,_ZNSt6vectorINSt7__cxx1112basic_stringIcSt11char_traitsIcESaIcEEESaIS5_EE20_M_allocate_and_copyIN9__gnu_cxx17__normal_iteratorIPKS5_S7_EEEEPS5_mT_SF_
FNDA:0,_ZNSt6vectorINSt7__cxx1112basic_stringIcSt11char_traitsIcESaIcEEESaIS5_EE20_M_allocate_and_copyIN9__gnu_cxx17__normal_iteratorIPKS5_S7_EEEEPS5_mT_SF_
FN:1505,_ZNSt6vectorIN5Catch5clara6detail3OptESaIS3_EE20_M_allocate_and_copyIN9__gnu_cxx17__normal_iteratorIPKS3_S5_EEEEPS3_mT_SD_
FNDA:0,_ZNSt6vectorIN5Catch5clara6detail3OptESaIS3_EE20_M_allocate_and_copyIN9__gnu_cxx17__normal_iteratorIPKS3_S5_EEEEPS3_mT_SD_
FN:1505,_ZNSt6vectorINSt7__cxx119sub_matchIN9__gnu_cxx17__normal_iteratorIPKcNS0_12basic_stringIcSt11char_traitsIcESaIcEEEEEEESaISC_EE20_M_allocate_and_copyINS3_IPKSC_SE_EEEEPSC_mT_SK_
FNDA:0,_ZNSt6vectorINSt7__cxx119sub_matchIN9__gnu_cxx17__normal_iteratorIPKcNS0_12basic_stringIcSt11char_traitsIcESaIcEEEEEEESaISC_EE20_M_allocate_and_copyINS3_IPKSC_SE_EEEEPSC_mT_SK_
FN:1505,_ZNSt6vectorIN5Catch5clara6detail3ArgESaIS3_EE20_M_allocate_and_copyIN9__gnu_cxx17__normal_iteratorIPKS3_S5_EEEEPS3_mT_SD_
FNDA:0,_ZNSt6vectorIN5Catch5clara6detail3ArgESaIS3_EE20_M_allocate_and_copyIN9__gnu_cxx17__normal_iteratorIPKS3_S5_EEEEPS3_mT_SD_
FN:1574,_ZNSt6vectorIcSaIcEE19_M_range_initializeIPcEEvT_S4_St20forward_iterator_tag
FNDA:0,_ZNSt6vectorIcSaIcEE19_M_range_initializeIPcEEvT_S4_St20forward_iterator_tag
FN:1574,_ZNSt6vectorIN5Catch5clara6detail11HelpColumnsESaIS3_EE19_M_range_initializeIPKS3_EEvT_S9_St20forward_iterator_tag
FNDA:0,_ZNSt6vectorIN5Catch5clara6detail11HelpColumnsESaIS3_EE19_M_range_initializeIPKS3_EEvT_S9_St20forward_iterator_tag
FN:1574,_ZNSt6vectorIcSaIcEE19_M_range_initializeIPKcEEvT_S5_St20forward_iterator_tag
FNDA:0,_ZNSt6vectorIcSaIcEE19_M_range_initializeIPKcEEvT_S5_St20forward_iterator_tag
FN:1574,_ZNSt6vectorINSt7__cxx1112basic_stringIcSt11char_traitsIcESaIcEEESaIS5_EE19_M_range_initializeIPKPKcEEvT_SD_St20forward_iterator_tag
FNDA:1,_ZNSt6vectorINSt7__cxx1112basic_stringIcSt11char_traitsIcESaIcEEESaIS5_EE19_M_range_initializeIPKPKcEEvT_SD_St20forward_iterator_tag
FN:1574,_ZNSt6vectorIN5Catch12_GLOBAL__N_110ColumnInfoESaIS2_EE19_M_range_initializeIPKS2_EEvT_S8_St20forward_iterator_tag
FNDA:1,_ZNSt6vectorIN5Catch12_GLOBAL__N_110ColumnInfoESaIS2_EE19_M_range_initializeIPKS2_EEvT_S8_St20forward_iterator_tag
FN:1600,_ZNSt6vectorISt4pairIN9__gnu_cxx17__normal_iteratorIPKcNSt7__cxx1112basic_stringIcSt11char_traitsIcESaIcEEEEEiESaISC_EE21_M_default_initializeEm
FNDA:0,_ZNSt6vectorISt4pairIN9__gnu_cxx17__normal_iteratorIPKcNSt7__cxx1112basic_stringIcSt11char_traitsIcESaIcEEEEEiESaISC_EE21_M_default_initializeEm
FN:1659,_ZNSt6vectorIN5Catch5clara6detail11HelpColumnsESaIS3_EE18_M_insert_dispatchIN9__gnu_cxx17__normal_iteratorIPS3_S5_EEEEvSA_T_SB_St12__false_type
FNDA:0,_ZNSt6vectorIN5Catch5clara6detail11HelpColumnsESaIS3_EE18_M_insert_dispatchIN9__gnu_cxx17__normal_iteratorIPS3_S5_EEEEvSA_T_SB_St12__false_type
FN:1659,_ZNSt6vectorINSt7__cxx1112basic_stringIcSt11char_traitsIcESaIcEEESaIS5_EE18_M_insert_dispatchIN9__gnu_cxx17__normal_iteratorIPKS5_S7_EEEEvNSA_IPS5_S7_EET_SG_St12__false_type
FNDA:0,_ZNSt6vectorINSt7__cxx1112basic_stringIcSt11char_traitsIcESaIcEEESaIS5_EE18_M_insert_dispatchIN9__gnu_cxx17__normal_iteratorIPKS5_S7_EEEEvNSA_IPS5_S7_EET_SG_St12__false_type
FN:1753,_ZNKSt6vectorIN5Catch14AssertionStatsESaIS1_EE12_M_check_lenEmPKc
FNDA:0,_ZNKSt6vectorIN5Catch14AssertionStatsESaIS1_EE12_M_check_lenEmPKc
FN:1753,_ZNKSt6vectorISt10unique_ptrIKN5Catch20IExceptionTranslatorESt14default_deleteIS3_EESaIS6_EE12_M_check_lenEmPKc
FNDA:0,_ZNKSt6vectorISt10unique_ptrIKN5Catch20IExceptionTranslatorESt14default_deleteIS3_EESaIS6_EE12_M_check_lenEmPKc
FN:1753,_ZNKSt6vectorIN5Catch5clara6detail3ArgESaIS3_EE12_M_check_lenEmPKc
FNDA:1,_ZNKSt6vectorIN5Catch5clara6detail3ArgESaIS3_EE12_M_check_lenEmPKc
FN:1753,_ZNKSt6vectorIN5Catch11MessageInfoESaIS1_EE12_M_check_lenEmPKc
FNDA:0,_ZNKSt6vectorIN5Catch11MessageInfoESaIS1_EE12_M_check_lenEmPKc
FN:1753,_ZNKSt6vectorImSaImEE12_M_check_lenEmPKc
FNDA:0,_ZNKSt6vectorImSaImEE12_M_check_lenEmPKc
FN:1753,_ZNKSt6vectorIPN5Catch16TestCaseTracking8ITrackerESaIS3_EE12_M_check_lenEmPKc
FNDA:2,_ZNKSt6vectorIPN5Catch16TestCaseTracking8ITrackerESaIS3_EE12_M_check_lenEmPKc
FN:1753,_ZNKSt6vectorISt10shared_ptrIN5Catch22CumulativeReporterBaseINS1_13JunitReporterEE11SectionNodeEESaIS6_EE12_M_check_lenEmPKc
FNDA:0,_ZNKSt6vectorISt10shared_ptrIN5Catch22CumulativeReporterBaseINS1_13JunitReporterEE11SectionNodeEESaIS6_EE12_M_check_lenEmPKc
FN:1753,_ZNKSt6vectorIN5Catch8TestCaseESaIS1_EE12_M_check_lenEmPKc
FNDA:2,_ZNKSt6vectorIN5Catch8TestCaseESaIS1_EE12_M_check_lenEmPKc
FN:1753,_ZNKSt6vectorIN5Catch5clara6detail3OptESaIS3_EE12_M_check_lenEmPKc
FNDA:26,_ZNKSt6vectorIN5Catch5clara6detail3OptESaIS3_EE12_M_check_lenEmPKc
FN:1753,_ZNKSt6vectorISt4pairIccESaIS1_EE12_M_check_lenEmPKc
FNDA:0,_ZNKSt6vectorISt4pairIccESaIS1_EE12_M_check_lenEmPKc
FN:1753,_ZNKSt6vectorISt4pairIlS_INSt7__cxx119sub_matchIN9__gnu_cxx17__normal_iteratorIPKcNS1_12basic_stringIcSt11char_traitsIcESaIcEEEEEEESaISD_EEESaISG_EE12_M_check_lenEmS6_
FNDA:0,_ZNKSt6vectorISt4pairIlS_INSt7__cxx119sub_matchIN9__gnu_cxx17__normal_iteratorIPKcNS1_12basic_stringIcSt11char_traitsIcESaIcEEEEEEESaISD_EEESaISG_EE12_M_check_lenEmS6_
FN:1753,_ZNKSt6vectorIN5Catch13SummaryColumnESaIS1_EE12_M_check_lenEmPKc
FNDA:0,_ZNKSt6vectorIN5Catch13SummaryColumnESaIS1_EE12_M_check_lenEmPKc
FN:1753,_ZNKSt6vectorIN5Catch11SectionInfoESaIS1_EE12_M_check_lenEmPKc
FNDA:3,_ZNKSt6vectorIN5Catch11SectionInfoESaIS1_EE12_M_check_lenEmPKc
FN:1753,_ZNKSt6vectorISt10shared_ptrIN5Catch16TestCaseTracking8ITrackerEESaIS4_EE12_M_check_lenEmPKc
FNDA:12,_ZNKSt6vectorISt10shared_ptrIN5Catch16TestCaseTracking8ITrackerEESaIS4_EE12_M_check_lenEmPKc
FN:1753,_ZNKSt6vectorISt10shared_ptrIN5Catch22CumulativeReporterBaseINS1_13JunitReporterEE4NodeINS1_13TestCaseStatsENS4_11SectionNodeEEEESaIS9_EE12_M_check_lenEmPKc
FNDA:0,_ZNKSt6vectorISt10shared_ptrIN5Catch22CumulativeReporterBaseINS1_13JunitReporterEE4NodeINS1_13TestCaseStatsENS4_11SectionNodeEEEESaIS9_EE12_M_check_lenEmPKc
FN:1753,_ZNKSt6vectorISt10shared_ptrIN5Catch22CumulativeReporterBaseINS1_13JunitReporterEE4NodeINS1_12TestRunStatsENS5_INS1_14TestGroupStatsENS5_INS1_13TestCaseStatsENS4_11SectionNodeEEEEEEEESaISD_EE12_M_check_lenEmPKc
FNDA:0,_ZNKSt6vectorISt10shared_ptrIN5Catch22CumulativeReporterBaseINS1_13JunitReporterEE4NodeINS1_12TestRunStatsENS5_INS1_14TestGroupStatsENS5_INS1_13TestCaseStatsENS4_11SectionNodeEEEEEEEESaISD_EE12_M_check_lenEmPKc
FN:1753,_ZNKSt6vectorIN5Catch5clara8TextFlow6Column8iteratorESaIS4_EE12_M_check_lenEmPKc
FNDA:0,_ZNKSt6vectorIN5Catch5clara8TextFlow6Column8iteratorESaIS4_EE12_M_check_lenEmPKc
FN:1753,_ZNKSt6vectorISt10shared_ptrIN5Catch22CumulativeReporterBaseINS1_13JunitReporterEE4NodeINS1_14TestGroupStatsENS5_INS1_13TestCaseStatsENS4_11SectionNodeEEEEEESaISB_EE12_M_check_lenEmPKc
FNDA:0,_ZNKSt6vectorISt10shared_ptrIN5Catch22CumulativeReporterBaseINS1_13JunitReporterEE4NodeINS1_14TestGroupStatsENS5_INS1_13TestCaseStatsENS4_11SectionNodeEEEEEESaISB_EE12_M_check_lenEmPKc
FN:1753,_ZNKSt6vectorIN5Catch14SectionEndInfoESaIS1_EE12_M_check_lenEmPKc
FNDA:0,_ZNKSt6vectorIN5Catch14SectionEndInfoESaIS1_EE12_M_check_lenEmPKc
FN:1753,_ZNKSt6vectorISt10unique_ptrINSt7__cxx1119basic_ostringstreamIcSt11char_traitsIcESaIcEEESt14default_deleteIS6_EESaIS9_EE12_M_check_lenEmPKc
FNDA:0,_ZNKSt6vectorISt10unique_ptrINSt7__cxx1119basic_ostringstreamIcSt11char_traitsIcESaIcEEESt14default_deleteIS6_EESaIS9_EE12_M_check_lenEmPKc
FN:1753,_ZNKSt6vectorISt10shared_ptrIN5Catch16IReporterFactoryEESaIS3_EE12_M_check_lenEmPKc
FNDA:0,_ZNKSt6vectorISt10shared_ptrIN5Catch16IReporterFactoryEESaIS3_EE12_M_check_lenEmPKc
FN:1753,_ZNKSt6vectorINSt7__cxx119sub_matchIN9__gnu_cxx17__normal_iteratorIPKcNS0_12basic_stringIcSt11char_traitsIcESaIcEEEEEEESaISC_EE12_M_check_lenEmS5_
FNDA:0,_ZNKSt6vectorINSt7__cxx119sub_matchIN9__gnu_cxx17__normal_iteratorIPKcNS0_12basic_stringIcSt11char_traitsIcESaIcEEEEEEESaISC_EE12_M_check_lenEmS5_
FN:1753,_ZNKSt6vectorISt10unique_ptrIN5Catch18IStreamingReporterESt14default_deleteIS2_EESaIS5_EE12_M_check_lenEmPKc
FNDA:0,_ZNKSt6vectorISt10unique_ptrIN5Catch18IStreamingReporterESt14default_deleteIS2_EESaIS5_EE12_M_check_lenEmPKc
FN:1753,_ZNKSt6vectorISt4pairINSt7__cxx1112basic_stringIcSt11char_traitsIcESaIcEEES6_ESaIS7_EE12_M_check_lenEmPKc
FNDA:0,_ZNKSt6vectorISt4pairINSt7__cxx1112basic_stringIcSt11char_traitsIcESaIcEEES6_ESaIS7_EE12_M_check_lenEmPKc
FN:1753,_ZNKSt6vectorINSt7__cxx1112basic_stringIcSt11char_traitsIcESaIcEEESaIS5_EE12_M_check_lenEmPKc
FNDA:45,_ZNKSt6vectorINSt7__cxx1112basic_stringIcSt11char_traitsIcESaIcEEESaIS5_EE12_M_check_lenEmPKc
FN:1753,_ZNKSt6vectorIPN5Catch10ISingletonESaIS2_EE12_M_check_lenEmPKc
FNDA:1,_ZNKSt6vectorIPN5Catch10ISingletonESaIS2_EE12_M_check_lenEmPKc
FN:1753,_ZNKSt6vectorINSt7__cxx1112regex_traitsIcE10_RegexMaskESaIS3_EE12_M_check_lenEmPKc
FNDA:0,_ZNKSt6vectorINSt7__cxx1112regex_traitsIcE10_RegexMaskESaIS3_EE12_M_check_lenEmPKc
FN:1753,_ZNKSt6vectorIcSaIcEE12_M_check_lenEmPKc
FNDA:0,_ZNKSt6vectorIcSaIcEE12_M_check_lenEmPKc
FN:1753,_ZNKSt6vectorIN5Catch5clara8TextFlow6ColumnESaIS3_EE12_M_check_lenEmPKc
FNDA:0,_ZNKSt6vectorIN5Catch5clara8TextFlow6ColumnESaIS3_EE12_M_check_lenEmPKc
FN:1753,_ZNKSt6vectorINSt8__detail6_StateIcEESaIS2_EE12_M_check_lenEmPKc
FNDA:0,_ZNKSt6vectorINSt8__detail6_StateIcEESaIS2_EE12_M_check_lenEmPKc
FN:1753,_ZNKSt6vectorISt10shared_ptrIN5Catch8TestSpec7PatternEESaIS4_EE12_M_check_lenEmPKc
FNDA:1,_ZNKSt6vectorISt10shared_ptrIN5Catch8TestSpec7PatternEESaIS4_EE12_M_check_lenEmPKc
FN:1753,_ZNKSt6vectorIN5Catch8TestSpec6FilterESaIS2_EE12_M_check_lenEmPKc
FNDA:1,_ZNKSt6vectorIN5Catch8TestSpec6FilterESaIS2_EE12_M_check_lenEmPKc
FN:1753,_ZNKSt6vectorIN5Catch5clara6detail11HelpColumnsESaIS3_EE12_M_check_lenEmPKc
FNDA:0,_ZNKSt6vectorIN5Catch5clara6detail11HelpColumnsESaIS3_EE12_M_check_lenEmPKc
FN:1753,_ZNKSt6vectorIN5Catch5clara6detail5TokenESaIS3_EE12_M_check_lenEmPKc
FNDA:0,_ZNKSt6vectorIN5Catch5clara6detail5TokenESaIS3_EE12_M_check_lenEmPKc
FN:1753,_ZNKSt6vectorINSt15__exception_ptr13exception_ptrESaIS1_EE12_M_check_lenEmPKc
FNDA:0,_ZNKSt6vectorINSt15__exception_ptr13exception_ptrESaIS1_EE12_M_check_lenEmPKc
FN:1764,_ZNSt6vectorISt4pairIN9__gnu_cxx17__normal_iteratorIPKcNSt7__cxx1112basic_stringIcSt11char_traitsIcESaIcEEEEEiESaISC_EE17_S_check_init_lenEmRKSD_
FNDA:0,_ZNSt6vectorISt4pairIN9__gnu_cxx17__normal_iteratorIPKcNSt7__cxx1112basic_stringIcSt11char_traitsIcESaIcEEEEEiESaISC_EE17_S_check_init_lenEmRKSD_
FN:1764,_ZNSt6vectorIcSaIcEE17_S_check_init_lenEmRKS0_
FNDA:0,_ZNSt6vectorIcSaIcEE17_S_check_init_lenEmRKS0_
FN:1764,_ZNSt6vectorIN5Catch5clara6detail11HelpColumnsESaIS3_EE17_S_check_init_lenEmRKS4_
FNDA:0,_ZNSt6vectorIN5Catch5clara6detail11HelpColumnsESaIS3_EE17_S_check_init_lenEmRKS4_
FN:1764,_ZNSt6vectorINSt7__cxx1112basic_stringIcSt11char_traitsIcESaIcEEESaIS5_EE17_S_check_init_lenEmRKS6_
FNDA:1,_ZNSt6vectorINSt7__cxx1112basic_stringIcSt11char_traitsIcESaIcEEESaIS5_EE17_S_check_init_lenEmRKS6_
FN:1764,_ZNSt6vectorIN5Catch12_GLOBAL__N_110ColumnInfoESaIS2_EE17_S_check_init_lenEmRKS3_
FNDA:1,_ZNSt6vectorIN5Catch12_GLOBAL__N_110ColumnInfoESaIS2_EE17_S_check_init_lenEmRKS3_
FN:1773,_ZNSt6vectorIcSaIcEE11_S_max_sizeERKS0_
FNDA:0,_ZNSt6vectorIcSaIcEE11_S_max_sizeERKS0_
FN:1773,_ZNSt6vectorIN5Catch8TestCaseESaIS1_EE11_S_max_sizeERKS2_
FNDA:4,_ZNSt6vectorIN5Catch8TestCaseESaIS1_EE11_S_max_sizeERKS2_
FN:1773,_ZNSt6vectorIN5Catch12_GLOBAL__N_110ColumnInfoESaIS2_EE11_S_max_sizeERKS3_
FNDA:1,_ZNSt6vectorIN5Catch12_GLOBAL__N_110ColumnInfoESaIS2_EE11_S_max_sizeERKS3_
FN:1773,_ZNSt6vectorISt4pairIccESaIS1_EE11_S_max_sizeERKS2_
FNDA:0,_ZNSt6vectorISt4pairIccESaIS1_EE11_S_max_sizeERKS2_
FN:1773,_ZNSt6vectorIN5Catch5clara6detail11HelpColumnsESaIS3_EE11_S_max_sizeERKS4_
FNDA:0,_ZNSt6vectorIN5Catch5clara6detail11HelpColumnsESaIS3_EE11_S_max_sizeERKS4_
FN:1773,_ZNSt6vectorIN5Catch14SectionEndInfoESaIS1_EE11_S_max_sizeERKS2_
FNDA:0,_ZNSt6vectorIN5Catch14SectionEndInfoESaIS1_EE11_S_max_sizeERKS2_
FN:1773,_ZNSt6vectorISt4pairINSt7__cxx1112basic_stringIcSt11char_traitsIcESaIcEEES6_ESaIS7_EE11_S_max_sizeERKS8_
FNDA:0,_ZNSt6vectorISt4pairINSt7__cxx1112basic_stringIcSt11char_traitsIcESaIcEEES6_ESaIS7_EE11_S_max_sizeERKS8_
FN:1773,_ZNSt6vectorIN5Catch5clara6detail5TokenESaIS3_EE11_S_max_sizeERKS4_
FNDA:0,_ZNSt6vectorIN5Catch5clara6detail5TokenESaIS3_EE11_S_max_sizeERKS4_
FN:1773,_ZNSt6vectorINSt7__cxx1112basic_stringIcSt11char_traitsIcESaIcEEESaIS5_EE11_S_max_sizeERKS6_
FNDA:91,_ZNSt6vectorINSt7__cxx1112basic_stringIcSt11char_traitsIcESaIcEEESaIS5_EE11_S_max_sizeERKS6_
FN:1773,_ZNSt6vectorISt4pairIlS_INSt7__cxx119sub_matchIN9__gnu_cxx17__normal_iteratorIPKcNS1_12basic_stringIcSt11char_traitsIcESaIcEEEEEEESaISD_EEESaISG_EE11_S_max_sizeERKSH_
FNDA:0,_ZNSt6vectorISt4pairIlS_INSt7__cxx119sub_matchIN9__gnu_cxx17__normal_iteratorIPKcNS1_12basic_stringIcSt11char_traitsIcESaIcEEEEEEESaISD_EEESaISG_EE11_S_max_sizeERKSH_
FN:1773,_ZNSt6vectorINSt8__detail6_StateIcEESaIS2_EE11_S_max_sizeERKS3_
FNDA:0,_ZNSt6vectorINSt8__detail6_StateIcEESaIS2_EE11_S_max_sizeERKS3_
FN:1773,_ZNSt6vectorISt10shared_ptrIN5Catch22CumulativeReporterBaseINS1_13JunitReporterEE4NodeINS1_12TestRunStatsENS5_INS1_14TestGroupStatsENS5_INS1_13TestCaseStatsENS4_11SectionNodeEEEEEEEESaISD_EE11_S_max_sizeERKSE_
FNDA:0,_ZNSt6vectorISt10shared_ptrIN5Catch22CumulativeReporterBaseINS1_13JunitReporterEE4NodeINS1_12TestRunStatsENS5_INS1_14TestGroupStatsENS5_INS1_13TestCaseStatsENS4_11SectionNodeEEEEEEEESaISD_EE11_S_max_sizeERKSE_
FN:1773,_ZNSt6vectorIN5Catch14AssertionStatsESaIS1_EE11_S_max_sizeERKS2_
FNDA:0,_ZNSt6vectorIN5Catch14AssertionStatsESaIS1_EE11_S_max_sizeERKS2_
FN:1773,_ZNSt6vectorISt10unique_ptrINSt7__cxx1119basic_ostringstreamIcSt11char_traitsIcESaIcEEESt14default_deleteIS6_EESaIS9_EE11_S_max_sizeERKSA_
FNDA:0,_ZNSt6vectorISt10unique_ptrINSt7__cxx1119basic_ostringstreamIcSt11char_traitsIcESaIcEEESt14default_deleteIS6_EESaIS9_EE11_S_max_sizeERKSA_
FN:1773,_ZNSt6vectorIPN5Catch16TestCaseTracking8ITrackerESaIS3_EE11_S_max_sizeERKS4_
FNDA:4,_ZNSt6vectorIPN5Catch16TestCaseTracking8ITrackerESaIS3_EE11_S_max_sizeERKS4_
FN:1773,_ZNSt6vectorISt10unique_ptrIKN5Catch20IExceptionTranslatorESt14default_deleteIS3_EESaIS6_EE11_S_max_sizeERKS7_
FNDA:0,_ZNSt6vectorISt10unique_ptrIKN5Catch20IExceptionTranslatorESt14default_deleteIS3_EESaIS6_EE11_S_max_sizeERKS7_
FN:1773,_ZNSt6vectorINSt7__cxx1112regex_traitsIcE10_RegexMaskESaIS3_EE11_S_max_sizeERKS4_
FNDA:0,_ZNSt6vectorINSt7__cxx1112regex_traitsIcE10_RegexMaskESaIS3_EE11_S_max_sizeERKS4_
FN:1773,_ZNSt6vectorISt10shared_ptrIN5Catch8TestSpec7PatternEESaIS4_EE11_S_max_sizeERKS5_
FNDA:2,_ZNSt6vectorISt10shared_ptrIN5Catch8TestSpec7PatternEESaIS4_EE11_S_max_sizeERKS5_
FN:1773,_ZNSt6vectorIN5Catch8TestSpec6FilterESaIS2_EE11_S_max_sizeERKS3_
FNDA:2,_ZNSt6vectorIN5Catch8TestSpec6FilterESaIS2_EE11_S_max_sizeERKS3_
FN:1773,_ZNSt6vectorIN5Catch11SectionInfoESaIS1_EE11_S_max_sizeERKS2_
FNDA:6,_ZNSt6vectorIN5Catch11SectionInfoESaIS1_EE11_S_max_sizeERKS2_
FN:1773,_ZNSt6vectorIN5Catch5clara8TextFlow6Column8iteratorESaIS4_EE11_S_max_sizeERKS5_
FNDA:0,_ZNSt6vectorIN5Catch5clara8TextFlow6Column8iteratorESaIS4_EE11_S_max_sizeERKS5_
FN:1773,_ZNSt6vectorISt10shared_ptrIN5Catch16TestCaseTracking8ITrackerEESaIS4_EE11_S_max_sizeERKS5_
FNDA:24,_ZNSt6vectorISt10shared_ptrIN5Catch16TestCaseTracking8ITrackerEESaIS4_EE11_S_max_sizeERKS5_
FN:1773,_ZNSt6vectorISt4pairIN9__gnu_cxx17__normal_iteratorIPKcNSt7__cxx1112basic_stringIcSt11char_traitsIcESaIcEEEEEiESaISC_EE11_S_max_sizeERKSD_
FNDA:0,_ZNSt6vectorISt4pairIN9__gnu_cxx17__normal_iteratorIPKcNSt7__cxx1112basic_stringIcSt11char_traitsIcESaIcEEEEEiESaISC_EE11_S_max_sizeERKSD_
FN:1773,_ZNSt6vectorINSt15__exception_ptr13exception_ptrESaIS1_EE11_S_max_sizeERKS2_
FNDA:0,_ZNSt6vectorINSt15__exception_ptr13exception_ptrESaIS1_EE11_S_max_sizeERKS2_
FN:1773,_ZNSt6vectorIPN5Catch10ISingletonESaIS2_EE11_S_max_sizeERKS3_
FNDA:2,_ZNSt6vectorIPN5Catch10ISingletonESaIS2_EE11_S_max_sizeERKS3_
FN:1773,_ZNSt6vectorIN5Catch13SummaryColumnESaIS1_EE11_S_max_sizeERKS2_
FNDA:0,_ZNSt6vectorIN5Catch13SummaryColumnESaIS1_EE11_S_max_sizeERKS2_
FN:1773,_ZNSt6vectorINSt7__cxx119sub_matchIN9__gnu_cxx17__normal_iteratorIPKcNS0_12basic_stringIcSt11char_traitsIcESaIcEEEEEEESaISC_EE11_S_max_sizeERKSD_
FNDA:0,_ZNSt6vectorINSt7__cxx119sub_matchIN9__gnu_cxx17__normal_iteratorIPKcNS0_12basic_stringIcSt11char_traitsIcESaIcEEEEEEESaISC_EE11_S_max_sizeERKSD_
FN:1773,_ZNSt6vectorISt10shared_ptrIN5Catch16IReporterFactoryEESaIS3_EE11_S_max_sizeERKS4_
FNDA:0,_ZNSt6vectorISt10shared_ptrIN5Catch16IReporterFactoryEESaIS3_EE11_S_max_sizeERKS4_
FN:1773,_ZNSt6vectorISt10shared_ptrIN5Catch22CumulativeReporterBaseINS1_13JunitReporterEE11SectionNodeEESaIS6_EE11_S_max_sizeERKS7_
FNDA:0,_ZNSt6vectorISt10shared_ptrIN5Catch22CumulativeReporterBaseINS1_13JunitReporterEE11SectionNodeEESaIS6_EE11_S_max_sizeERKS7_
FN:1773,_ZNSt6vectorImSaImEE11_S_max_sizeERKS0_
FNDA:0,_ZNSt6vectorImSaImEE11_S_max_sizeERKS0_
FN:1773,_ZNSt6vectorIN5Catch11MessageInfoESaIS1_EE11_S_max_sizeERKS2_
FNDA:0,_ZNSt6vectorIN5Catch11MessageInfoESaIS1_EE11_S_max_sizeERKS2_
FN:1773,_ZNSt6vectorIN5Catch5clara6detail3OptESaIS3_EE11_S_max_sizeERKS4_
FNDA:52,_ZNSt6vectorIN5Catch5clara6detail3OptESaIS3_EE11_S_max_sizeERKS4_
FN:1773,_ZNSt6vectorIN5Catch5clara6detail3ArgESaIS3_EE11_S_max_sizeERKS4_
FNDA:2,_ZNSt6vectorIN5Catch5clara6detail3ArgESaIS3_EE11_S_max_sizeERKS4_
FN:1773,_ZNSt6vectorIN5Catch5clara8TextFlow6ColumnESaIS3_EE11_S_max_sizeERKS4_
FNDA:0,_ZNSt6vectorIN5Catch5clara8TextFlow6ColumnESaIS3_EE11_S_max_sizeERKS4_
FN:1773,_ZNSt6vectorISt10shared_ptrIN5Catch22CumulativeReporterBaseINS1_13JunitReporterEE4NodeINS1_13TestCaseStatsENS4_11SectionNodeEEEESaIS9_EE11_S_max_sizeERKSA_
FNDA:0,_ZNSt6vectorISt10shared_ptrIN5Catch22CumulativeReporterBaseINS1_13JunitReporterEE4NodeINS1_13TestCaseStatsENS4_11SectionNodeEEEESaIS9_EE11_S_max_sizeERKSA_
FN:1773,_ZNSt6vectorISt10shared_ptrIN5Catch22CumulativeReporterBaseINS1_13JunitReporterEE4NodeINS1_14TestGroupStatsENS5_INS1_13TestCaseStatsENS4_11SectionNodeEEEEEESaISB_EE11_S_max_sizeERKSC_
FNDA:0,_ZNSt6vectorISt10shared_ptrIN5Catch22CumulativeReporterBaseINS1_13JunitReporterEE4NodeINS1_14TestGroupStatsENS5_INS1_13TestCaseStatsENS4_11SectionNodeEEEEEESaISB_EE11_S_max_sizeERKSC_
FN:1773,_ZNSt6vectorISt10unique_ptrIN5Catch18IStreamingReporterESt14default_deleteIS2_EESaIS5_EE11_S_max_sizeERKS6_
FNDA:0,_ZNSt6vectorISt10unique_ptrIN5Catch18IStreamingReporterESt14default_deleteIS2_EESaIS5_EE11_S_max_sizeERKS6_
FN:1789,_ZNSt6vectorIN5Catch5clara6detail3ArgESaIS3_EE15_M_erase_at_endEPS3_
FNDA:0,_ZNSt6vectorIN5Catch5clara6detail3ArgESaIS3_EE15_M_erase_at_endEPS3_
FN:1789,_ZNSt6vectorIcSaIcEE15_M_erase_at_endEPc
FNDA:0,_ZNSt6vectorIcSaIcEE15_M_erase_at_endEPc
FN:1789,_ZNSt6vectorImSaImEE15_M_erase_at_endEPm
FNDA:2,_ZNSt6vectorImSaImEE15_M_erase_at_endEPm
FN:1789,_ZNSt6vectorINSt7__cxx119sub_matchIN9__gnu_cxx17__normal_iteratorIPKcNS0_12basic_stringIcSt11char_traitsIcESaIcEEEEEEESaISC_EE15_M_erase_at_endEPSC_
FNDA:0,_ZNSt6vectorINSt7__cxx119sub_matchIN9__gnu_cxx17__normal_iteratorIPKcNS0_12basic_stringIcSt11char_traitsIcESaIcEEEEEEESaISC_EE15_M_erase_at_endEPSC_
FN:1789,_ZNSt6vectorIN5Catch5clara6detail5TokenESaIS3_EE15_M_erase_at_endEPS3_
FNDA:0,_ZNSt6vectorIN5Catch5clara6detail5TokenESaIS3_EE15_M_erase_at_endEPS3_
FN:1789,_ZNSt6vectorIN5Catch5clara6detail3OptESaIS3_EE15_M_erase_at_endEPS3_
FNDA:0,_ZNSt6vectorIN5Catch5clara6detail3OptESaIS3_EE15_M_erase_at_endEPS3_
FN:1789,_ZNSt6vectorISt4pairIlS_INSt7__cxx119sub_matchIN9__gnu_cxx17__normal_iteratorIPKcNS1_12basic_stringIcSt11char_traitsIcESaIcEEEEEEESaISD_EEESaISG_EE15_M_erase_at_endEPSG_
FNDA:0,_ZNSt6vectorISt4pairIlS_INSt7__cxx119sub_matchIN9__gnu_cxx17__normal_iteratorIPKcNS1_12basic_stringIcSt11char_traitsIcESaIcEEEEEEESaISD_EEESaISG_EE15_M_erase_at_endEPSG_
FN:1789,_ZNSt6vectorINSt7__cxx1112basic_stringIcSt11char_traitsIcESaIcEEESaIS5_EE15_M_erase_at_endEPS5_
FNDA:2,_ZNSt6vectorINSt7__cxx1112basic_stringIcSt11char_traitsIcESaIcEEESaIS5_EE15_M_erase_at_endEPS5_
FN:1789,_ZNSt6vectorISt10shared_ptrIN5Catch16TestCaseTracking8ITrackerEESaIS4_EE15_M_erase_at_endEPS4_
FNDA:0,_ZNSt6vectorISt10shared_ptrIN5Catch16TestCaseTracking8ITrackerEESaIS4_EE15_M_erase_at_endEPS4_
FN:1789,_ZNSt6vectorIN5Catch11MessageInfoESaIS1_EE15_M_erase_at_endEPS1_
FNDA:36,_ZNSt6vectorIN5Catch11MessageInfoESaIS1_EE15_M_erase_at_endEPS1_
FN:1789,_ZNSt6vectorIN5Catch14SectionEndInfoESaIS1_EE15_M_erase_at_endEPS1_
FNDA:17,_ZNSt6vectorIN5Catch14SectionEndInfoESaIS1_EE15_M_erase_at_endEPS1_
FN:1812,_ZNSt6vectorISt10shared_ptrIN5Catch8TestSpec7PatternEESaIS4_EE14_M_move_assignEOS6_St17integral_constantIbLb1EE
FNDA:1,_ZNSt6vectorISt10shared_ptrIN5Catch8TestSpec7PatternEESaIS4_EE14_M_move_assignEOS6_St17integral_constantIbLb1EE
FN:1812,_ZNSt6vectorIN5Catch5clara6detail3OptESaIS3_EE14_M_move_assignEOS5_St17integral_constantIbLb1EE
FNDA:1,_ZNSt6vectorIN5Catch5clara6detail3OptESaIS3_EE14_M_move_assignEOS5_St17integral_constantIbLb1EE
FN:1812,_ZNSt6vectorINSt7__cxx119sub_matchIN9__gnu_cxx17__normal_iteratorIPKcNS0_12basic_stringIcSt11char_traitsIcESaIcEEEEEEESaISC_EE14_M_move_assignEOSE_St17integral_constantIbLb1EE
FNDA:0,_ZNSt6vectorINSt7__cxx119sub_matchIN9__gnu_cxx17__normal_iteratorIPKcNS0_12basic_stringIcSt11char_traitsIcESaIcEEEEEEESaISC_EE14_M_move_assignEOSE_St17integral_constantIbLb1EE
FN:1812,_ZNSt6vectorIN5Catch8TestCaseESaIS1_EE14_M_move_assignEOS3_St17integral_constantIbLb1EE
FNDA:1,_ZNSt6vectorIN5Catch8TestCaseESaIS1_EE14_M_move_assignEOS3_St17integral_constantIbLb1EE
FN:1812,_ZNSt6vectorIN5Catch5clara6detail3ArgESaIS3_EE14_M_move_assignEOS5_St17integral_constantIbLb1EE
FNDA:1,_ZNSt6vectorIN5Catch5clara6detail3ArgESaIS3_EE14_M_move_assignEOS5_St17integral_constantIbLb1EE
FN:1812,_ZNSt6vectorIN5Catch8TestSpec6FilterESaIS2_EE14_M_move_assignEOS4_St17integral_constantIbLb1EE
FNDA:1,_ZNSt6vectorIN5Catch8TestSpec6FilterESaIS2_EE14_M_move_assignEOS4_St17integral_constantIbLb1EE
FN:1812,_ZNSt6vectorINSt7__cxx1112basic_stringIcSt11char_traitsIcESaIcEEESaIS5_EE14_M_move_assignEOS7_St17integral_constantIbLb1EE
FNDA:2,_ZNSt6vectorINSt7__cxx1112basic_stringIcSt11char_traitsIcESaIcEEESaIS5_EE14_M_move_assignEOS7_St17integral_constantIbLb1EE
FN:1840,_ZNKSt6vectorIcSaIcEE11_M_data_ptrIcEEPT_S4_
FNDA:0,_ZNKSt6vectorIcSaIcEE11_M_data_ptrIcEEPT_S4_
FN:1888,_ZSteqIN5Catch5clara8TextFlow6Column8iteratorESaIS4_EEbRKSt6vectorIT_T0_ESB_
FNDA:0,_ZSteqIN5Catch5clara8TextFlow6Column8iteratorESaIS4_EEbRKSt6vectorIT_T0_ESB_
FN:1912,_ZStneIN5Catch5clara8TextFlow6Column8iteratorESaIS4_EEbRKSt6vectorIT_T0_ESB_
FNDA:0,_ZStneIN5Catch5clara8TextFlow6Column8iteratorESaIS4_EEbRKSt6vectorIT_T0_ESB_
DA:94,1
DA:95,1
DA:96,1
DA:94,0
DA:95,0
DA:96,0
DA:94,0
DA:95,0
DA:96,0
DA:94,8
DA:95,8
DA:96,8
DA:94,22
DA:95,22
DA:96,22
DA:94,6
DA:95,6
DA:96,6
DA:94,2
DA:95,2
DA:96,2
DA:94,61
DA:95,61
DA:96,61
DA:94,61
DA:95,61
DA:96,61
DA:94,1
DA:95,1
DA:96,1
DA:94,1
DA:95,1
DA:96,1
DA:94,1
DA:95,1
DA:96,1
DA:94,1
DA:95,1
DA:96,1
DA:94,7
DA:95,7
DA:96,7
DA:94,0
DA:95,0
DA:96,0
DA:94,5
DA:95,5
DA:96,5
DA:94,0
DA:95,0
DA:96,0
DA:94,0
DA:95,0
DA:96,0
DA:94,841
DA:95,841
DA:96,841
DA:94,1
DA:95,1
DA:96,1
DA:94,0
DA:95,0
DA:96,0
DA:94,0
DA:95,0
DA:96,0
DA:94,0
DA:95,0
DA:96,0
DA:94,0
DA:95,0
DA:96,0
DA:94,0
DA:95,0
DA:96,0
DA:94,0
DA:95,0
DA:96,0
DA:94,0
DA:95,0
DA:96,0
DA:94,1
DA:95,1
DA:96,1
DA:94,0
DA:95,0
DA:96,0
DA:94,0
DA:95,0
DA:96,0
DA:94,1
DA:95,1
DA:96,1
DA:94,1
DA:95,1
DA:96,1
DA:94,0
DA:95,0
DA:96,0
DA:94,0
DA:95,0
DA:96,0
DA:94,0
DA:95,0
DA:96,0
DA:94,0
DA:95,0
DA:96,0
DA:94,0
DA:95,0
DA:96,0
DA:94,0
DA:95,0
DA:96,0
DA:99,0
DA:100,0
DA:101,0
DA:102,0
DA:99,0
DA:100,0
DA:101,0
DA:102,0
DA:99,0
DA:100,0
DA:101,0
DA:102,0
DA:99,0
DA:100,0
DA:101,0
DA:102,0
DA:99,0
DA:100,0
DA:101,0
DA:102,0
DA:99,0
DA:100,0
DA:101,0
DA:102,0
DA:99,0
DA:100,0
DA:101,0
DA:102,0
DA:99,1
DA:100,1
DA:101,1
DA:102,1
DA:99,331
DA:100,331
DA:101,331
DA:102,331
DA:106,0
DA:108,0
DA:109,0
DA:110,0
DA:111,0
DA:106,0
DA:108,0
DA:109,0
DA:110,0
DA:111,0
DA:106,0
DA:108,0
DA:109,0
DA:110,0
DA:111,0
DA:106,6
DA:108,6
DA:109,6
DA:110,6
DA:111,6
DA:106,6
DA:108,6
DA:109,6
DA:110,6
DA:111,6
DA:106,12
DA:108,12
DA:109,12
DA:110,12
DA:111,12
DA:106,6
DA:108,6
DA:109,6
DA:110,6
DA:111,6
DA:106,6
DA:108,6
DA:109,6
DA:110,6
DA:111,6
DA:106,6
DA:108,6
DA:109,6
DA:110,6
DA:111,6
DA:114,0
DA:118,0
DA:119,0
DA:120,0
DA:121,0
DA:122,0
DA:114,0
DA:118,0
DA:119,0
DA:120,0
DA:121,0
DA:122,0
DA:114,0
DA:118,0
DA:119,0
DA:120,0
DA:121,0
DA:122,0
DA:114,2
DA:118,2
DA:119,2
DA:120,2
DA:121,2
DA:122,2
DA:114,2
DA:118,2
DA:119,2
DA:120,2
DA:121,2
DA:122,2
DA:114,4
DA:118,4
DA:119,4
DA:120,4
DA:121,4
DA:122,4
DA:114,2
DA:118,2
DA:119,2
DA:120,2
DA:121,2
DA:122,2
DA:114,2
DA:118,2
DA:119,2
DA:120,2
DA:121,2
DA:122,2
DA:114,2
DA:118,2
DA:119,2
DA:120,2
DA:121,2
DA:122,2
DA:128,1
DA:130,1
DA:131,1
DA:128,0
DA:130,0
DA:131,0
DA:128,2
DA:130,2
DA:131,2
DA:128,22
DA:130,22
DA:131,22
DA:128,2
DA:130,2
DA:131,2
DA:128,2
DA:130,2
DA:131,2
DA:128,2
DA:130,2
DA:131,2
DA:128,2
DA:130,2
DA:131,2
DA:128,1
DA:130,1
DA:131,1
DA:128,0
DA:130,0
DA:131,0
DA:128,1
DA:130,1
DA:131,1
DA:128,1
DA:130,1
DA:131,1
DA:128,2
DA:130,2
DA:131,2
DA:128,0
DA:130,0
DA:131,0
DA:128,1
DA:130,1
DA:131,1
DA:128,0
DA:130,0
DA:131,0
DA:128,0
DA:130,0
DA:131,0
DA:128,56
DA:130,56
DA:131,56
DA:128,1
DA:130,1
DA:131,1
DA:128,0
DA:130,0
DA:131,0
DA:128,0
DA:130,0
DA:131,0
DA:128,0
DA:130,0
DA:131,0
DA:128,0
DA:130,0
DA:131,0
DA:128,0
DA:130,0
DA:131,0
DA:128,0
DA:130,0
DA:131,0
DA:128,0
DA:130,0
DA:131,0
DA:128,1
DA:130,1
DA:131,1
DA:128,0
DA:130,0
DA:131,0
DA:128,1
DA:130,1
DA:131,1
DA:128,0
DA:130,0
DA:131,0
DA:128,0
DA:130,0
DA:131,0
DA:128,0
DA:130,0
DA:131,0
DA:128,0
DA:130,0
DA:131,0
DA:128,0
DA:130,0
DA:131,0
DA:128,0
DA:130,0
DA:131,0
DA:128,1
DA:130,1
DA:131,1
DA:133,57
DA:134,57
DA:135,57
DA:133,0
DA:134,0
DA:135,0
DA:133,781
DA:134,781
DA:135,781
DA:133,4
DA:134,4
DA:135,4
DA:133,0
DA:134,0
DA:135,0
DA:133,0
DA:134,0
DA:135,0
DA:133,3
DA:134,3
DA:135,3
DA:133,2
DA:134,2
DA:135,2
DA:133,1
DA:134,1
DA:135,1
DA:133,0
DA:134,0
DA:135,0
DA:133,57
DA:134,57
DA:135,57
DA:133,4
DA:134,4
DA:135,4
DA:133,0
DA:134,0
DA:135,0
DA:133,0
DA:134,0
DA:135,0
DA:133,0
DA:134,0
DA:135,0
DA:133,0
DA:134,0
DA:135,0
DA:133,0
DA:134,0
DA:135,0
DA:140,0
DA:141,0
DA:142,0
DA:140,0
DA:141,0
DA:142,0
DA:140,0
DA:141,0
DA:142,0
DA:140,0
DA:141,0
DA:142,0
DA:140,0
DA:141,0
DA:142,0
DA:140,0
DA:141,0
DA:142,0
DA:140,0
DA:141,0
DA:142,0
DA:140,1
DA:141,1
DA:142,1
DA:140,331
DA:141,331
DA:142,331
DA:273,1
DA:274,1
DA:273,4
DA:274,4
DA:273,5
DA:274,5
DA:273,1
DA:274,1
DA:273,46
DA:274,46
DA:273,1
DA:274,1
DA:273,11
DA:274,11
DA:273,1
DA:274,1
DA:273,1
DA:274,1
DA:273,13
DA:274,13
DA:273,7
DA:274,7
DA:273,11
DA:274,11
DA:273,119
DA:274,119
DA:273,169
DA:274,169
DA:273,0
DA:274,0
DA:273,9
DA:274,9
DA:273,0
DA:274,0
DA:273,0
DA:274,0
DA:273,2042
DA:274,2042
DA:273,0
DA:274,0
DA:273,0
DA:274,0
DA:273,0
DA:274,0
DA:273,0
DA:274,0
DA:273,0
DA:274,0
DA:273,0
DA:274,0
DA:273,0
DA:274,0
DA:273,0
DA:274,0
DA:273,0
DA:274,0
DA:273,1
DA:274,1
DA:273,0
DA:274,0
DA:273,0
DA:274,0
DA:273,0
DA:274,0
DA:273,0
DA:274,0
DA:273,0
DA:274,0
DA:273,0
DA:274,0
DA:273,0
DA:274,0
DA:273,0
DA:274,0
DA:273,4
DA:274,4
DA:277,6
DA:278,6
DA:277,0
DA:278,0
DA:277,24
DA:278,24
DA:277,0
DA:278,0
DA:277,2
DA:278,2
DA:277,0
DA:278,0
DA:277,0
DA:278,0
DA:277,6
DA:278,6
DA:277,0
DA:278,0
DA:277,0
DA:278,0
DA:277,59
DA:278,59
DA:277,109
DA:278,109
DA:277,5
DA:278,5
DA:277,0
DA:278,0
DA:277,870
DA:278,870
DA:277,4
DA:278,4
DA:277,0
DA:278,0
DA:277,0
DA:278,0
DA:277,0
DA:278,0
DA:277,0
DA:278,0
DA:277,0
DA:278,0
DA:277,0
DA:278,0
DA:277,0
DA:278,0
DA:277,0
DA:278,0
DA:277,0
DA:278,0
DA:277,0
DA:278,0
DA:277,0
DA:278,0
DA:277,0
DA:278,0
DA:277,0
DA:278,0
DA:277,0
DA:278,0
DA:277,0
DA:278,0
DA:277,0
DA:278,0
DA:277,6
DA:278,6
DA:277,0
DA:278,0
DA:277,4
DA:278,4
DA:281,0
DA:282,0
DA:281,1
DA:282,1
DA:281,1
DA:282,1
DA:281,2
DA:282,2
DA:281,1
DA:282,1
DA:281,1
DA:282,1
DA:281,1
DA:282,1
DA:285,1
DA:285,0
DA:285,2
DA:285,22
DA:285,2
DA:285,2
DA:285,2
DA:285,2
DA:285,1
DA:285,0
DA:285,1
DA:285,1
DA:285,2
DA:285,0
DA:285,1
DA:285,0
DA:285,0
DA:285,56
DA:285,1
DA:285,0
DA:285,0
DA:285,0
DA:285,0
DA:285,0
DA:285,0
DA:285,0
DA:285,1
DA:285,0
DA:285,1
DA:285,0
DA:285,0
DA:285,0
DA:285,0
DA:285,0
DA:285,0
DA:285,1
DA:290,0
DA:291,0
DA:290,0
DA:291,0
DA:290,1
DA:291,1
DA:290,1
DA:291,1
DA:290,1
DA:291,1
DA:290,1
DA:291,1
DA:290,1
DA:291,1
DA:290,1
DA:291,1
DA:290,0
DA:291,0
DA:290,3
DA:291,3
DA:300,0
DA:301,0
DA:302,0
DA:300,0
DA:301,0
DA:302,0
DA:300,0
DA:301,0
DA:302,0
DA:300,0
DA:301,0
DA:302,0
DA:300,0
DA:301,0
DA:302,0
DA:300,0
DA:301,0
DA:302,0
DA:300,3
DA:301,3
DA:302,3
DA:300,56
DA:301,56
DA:302,56
DA:300,56
DA:301,56
DA:302,56
DA:300,1
DA:301,1
DA:302,1
DA:300,2
DA:301,2
DA:302,2
DA:300,0
DA:301,0
DA:302,0
DA:300,778
DA:301,778
DA:302,778
DA:300,4
DA:301,4
DA:302,4
DA:300,0
DA:301,0
DA:302,0
DA:305,0
DA:305,0
DA:305,0
DA:305,0
DA:305,0
DA:305,0
DA:305,0
DA:305,1
DA:305,331
DA:330,1
DA:332,1
DA:333,1
DA:334,1
DA:330,0
DA:332,0
DA:333,0
DA:334,0
DA:330,2
DA:332,2
DA:333,2
DA:334,2
DA:330,6
DA:332,6
DA:333,6
DA:334,6
DA:330,22
DA:332,22
DA:333,22
DA:334,22
DA:330,4
DA:332,4
DA:333,4
DA:334,4
DA:330,2
DA:332,2
DA:333,2
DA:334,2
DA:330,1
DA:332,1
DA:333,1
DA:334,1
DA:330,1
DA:332,1
DA:333,1
DA:334,1
DA:330,1
DA:332,1
DA:333,1
DA:334,1
DA:330,0
DA:332,0
DA:333,0
DA:334,0
DA:330,5
DA:332,5
DA:333,5
DA:334,5
DA:330,59
DA:332,59
DA:333,59
DA:334,59
DA:330,59
DA:332,59
DA:333,59
DA:334,59
DA:330,0
DA:332,0
DA:333,0
DA:334,0
DA:330,5
DA:332,5
DA:333,5
DA:334,5
DA:330,0
DA:332,0
DA:333,0
DA:334,0
DA:330,0
DA:332,0
DA:333,0
DA:334,0
DA:330,1168
DA:332,1168
DA:333,1168
DA:334,1168
DA:330,0
DA:332,0
DA:333,0
DA:334,0
DA:330,0
DA:332,0
DA:333,0
DA:334,0
DA:330,0
DA:332,0
DA:333,0
DA:334,0
DA:330,0
DA:332,0
DA:333,0
DA:334,0
DA:330,0
DA:332,0
DA:333,0
DA:334,0
DA:330,0
DA:332,0
DA:333,0
DA:334,0
DA:330,0
DA:332,0
DA:333,0
DA:334,0
DA:330,0
DA:332,0
DA:333,0
DA:334,0
DA:330,0
DA:332,0
DA:333,0
DA:334,0
DA:330,1
DA:332,1
DA:333,1
DA:334,1
DA:330,0
DA:332,0
DA:333,0
DA:334,0
DA:330,0
DA:332,0
DA:333,0
DA:334,0
DA:330,0
DA:332,0
DA:333,0
DA:334,0
DA:330,0
DA:332,0
DA:333,0
DA:334,0
DA:330,0
DA:332,0
DA:333,0
DA:334,0
DA:330,0
DA:332,0
DA:333,0
DA:334,0
DA:330,1
DA:332,1
DA:333,1
DA:334,1
DA:330,1
DA:332,1
DA:333,1
DA:334,1
DA:330,1
DA:332,1
DA:333,1
DA:334,1
DA:340,82
DA:343,82
DA:340,0
DA:343,0
DA:340,1
DA:343,1
DA:340,3
DA:343,3
DA:340,12
DA:343,12
DA:340,0
DA:343,0
DA:340,1
DA:343,1
DA:340,0
DA:343,0
DA:340,0
DA:343,0
DA:340,0
DA:343,0
DA:340,2
DA:343,2
DA:340,57
DA:343,57
DA:340,0
DA:343,0
DA:340,4
DA:343,4
DA:340,0
DA:343,0
DA:340,824
DA:343,824
DA:340,3
DA:343,3
DA:340,0
DA:343,0
DA:340,0
DA:343,0
DA:340,0
DA:343,0
DA:340,0
DA:343,0
DA:340,0
DA:343,0
DA:340,0
DA:343,0
DA:340,0
DA:343,0
DA:340,0
DA:343,0
DA:340,0
DA:343,0
DA:340,0
DA:343,0
DA:340,0
DA:343,0
DA:340,0
DA:343,0
DA:340,0
DA:343,0
DA:340,0
DA:343,0
DA:340,0
DA:343,0
DA:340,0
DA:343,0
DA:340,0
DA:343,0
DA:340,3
DA:343,3
DA:340,4
DA:343,4
DA:340,0
DA:343,0
DA:347,1
DA:350,1
DA:351,0
DA:352,1
DA:347,0
DA:350,0
DA:351,0
DA:352,0
DA:347,2
DA:350,2
DA:351,1
DA:352,2
DA:347,7
DA:350,7
DA:351,4
DA:352,7
DA:347,34
DA:350,34
DA:351,12
DA:352,34
DA:347,6
DA:350,6
DA:351,3
DA:352,6
DA:347,3
DA:350,3
DA:351,1
DA:352,3
DA:347,3
DA:350,3
DA:351,2
DA:352,3
DA:347,1
DA:350,1
DA:351,0
DA:352,1
DA:347,1
DA:350,1
DA:351,0
DA:352,1
DA:347,0
DA:350,0
DA:351,0
DA:352,0
DA:347,6
DA:350,6
DA:351,3
DA:352,6
DA:347,60
DA:350,60
DA:351,2
DA:352,60
DA:347,85
DA:350,85
DA:351,79
DA:352,85
DA:347,0
DA:350,0
DA:351,0
DA:352,0
DA:347,5
DA:350,5
DA:351,0
DA:352,5
DA:347,0
DA:350,0
DA:351,0
DA:352,0
DA:347,0
DA:350,0
DA:351,0
DA:352,0
DA:347,1213
DA:350,1213
DA:351,799
DA:352,1213
DA:347,0
DA:350,0
DA:351,0
DA:352,0
DA:347,0
DA:350,0
DA:351,0
DA:352,0
DA:347,0
DA:350,0
DA:351,0
DA:352,0
DA:347,0
DA:350,0
DA:351,0
DA:352,0
DA:347,0
DA:350,0
DA:351,0
DA:352,0
DA:347,0
DA:350,0
DA:351,0
DA:352,0
DA:347,0
DA:350,0
DA:351,0
DA:352,0
DA:347,0
DA:350,0
DA:351,0
DA:352,0
DA:347,0
DA:350,0
DA:351,0
DA:352,0
DA:347,0
DA:350,0
DA:351,0
DA:352,0
DA:347,0
DA:350,0
DA:351,0
DA:352,0
DA:347,0
DA:350,0
DA:351,0
DA:352,0
DA:347,0
DA:350,0
DA:351,0
DA:352,0
DA:347,0
DA:350,0
DA:351,0
DA:352,0
DA:347,0
DA:350,0
DA:351,0
DA:352,0
DA:347,4
DA:350,4
DA:351,3
DA:352,4
DA:347,1
DA:350,1
DA:351,0
DA:352,1
DA:347,1
DA:350,1
DA:351,0
DA:352,1
DA:347,1
DA:350,1
DA:351,0
DA:352,1
DA:356,0
DA:358,0
DA:359,0
DA:360,0
DA:361,0
DA:356,0
DA:358,0
DA:359,0
DA:360,0
DA:361,0
DA:356,0
DA:358,0
DA:359,0
DA:360,0
DA:361,0
DA:356,0
DA:358,0
DA:359,0
DA:360,0
DA:361,0
DA:356,0
DA:358,0
DA:359,0
DA:360,0
DA:361,0
DA:356,0
DA:358,0
DA:359,0
DA:360,0
DA:361,0
DA:356,3
DA:358,3
DA:359,3
DA:360,3
DA:361,3
DA:356,56
DA:358,56
DA:359,56
DA:360,56
DA:361,56
DA:356,56
DA:358,56
DA:359,56
DA:360,56
DA:361,56
DA:356,1
DA:358,1
DA:359,1
DA:360,1
DA:361,1
DA:356,2
DA:358,2
DA:359,2
DA:360,2
DA:361,2
DA:356,0
DA:358,0
DA:359,0
DA:360,0
DA:361,0
DA:356,778
DA:358,778
DA:359,778
DA:360,778
DA:361,778
DA:356,4
DA:358,4
DA:359,4
DA:360,4
DA:361,4
DA:356,0
DA:358,0
DA:359,0
DA:360,0
DA:361,0
DA:450,0
DA:453,0
DA:450,0
DA:453,0
DA:450,0
DA:453,0
DA:450,4
DA:453,4
DA:450,90
DA:453,90
DA:450,0
DA:453,0
DA:450,0
DA:453,0
DA:450,2
DA:453,2
DA:450,52
DA:453,52
DA:450,0
DA:453,0
DA:450,0
DA:453,0
DA:450,0
DA:453,0
DA:450,2
DA:453,2
DA:450,0
DA:453,0
DA:450,24
DA:453,24
DA:450,2
DA:453,2
DA:450,0
DA:453,0
DA:450,4
DA:453,4
DA:450,0
DA:453,0
DA:450,2
DA:453,2
DA:450,6
DA:453,6
DA:450,0
DA:453,0
DA:450,0
DA:453,0
DA:450,0
DA:453,0
DA:450,0
DA:453,0
DA:450,0
DA:453,0
DA:450,0
DA:453,0
DA:450,0
DA:453,0
DA:450,0
DA:453,0
DA:450,0
DA:453,0
DA:450,0
DA:453,0
DA:450,0
DA:453,0
DA:462,0
DA:466,0
DA:462,0
DA:466,0
DA:462,0
DA:466,0
DA:462,4
DA:466,4
DA:462,90
DA:466,90
DA:462,0
DA:466,0
DA:462,0
DA:466,0
DA:462,2
DA:466,2
DA:462,52
DA:466,52
DA:462,0
DA:466,0
DA:462,0
DA:466,0
DA:462,0
DA:466,0
DA:462,2
DA:466,2
DA:462,0
DA:466,0
DA:462,24
DA:466,24
DA:462,2
DA:466,2
DA:462,0
DA:466,0
DA:462,4
DA:466,4
DA:462,0
DA:466,0
DA:462,2
DA:466,2
DA:462,6
DA:466,6
DA:462,0
DA:466,0
DA:462,0
DA:466,0
DA:462,0
DA:466,0
DA:462,0
DA:466,0
DA:462,0
DA:466,0
DA:462,0
DA:466,0
DA:462,0
DA:466,0
DA:462,0
DA:466,0
DA:462,0
DA:466,0
DA:462,0
DA:466,0
DA:462,0
DA:466,0
DA:484,1
DA:484,0
DA:484,2
DA:484,22
DA:484,2
DA:484,2
DA:484,2
DA:484,2
DA:484,1
DA:484,0
DA:484,1
DA:484,1
DA:484,2
DA:484,0
DA:484,1
DA:484,0
DA:484,0
DA:484,56
DA:484,1
DA:484,0
DA:484,0
DA:484,0
DA:484,0
DA:484,0
DA:484,0
DA:484,0
DA:484,1
DA:484,0
DA:484,1
DA:484,0
DA:484,0
DA:484,0
DA:484,0
DA:484,0
DA:484,0
DA:484,1
DA:494,0
DA:495,0
DA:494,1
DA:495,1
DA:494,1
DA:495,1
DA:494,2
DA:495,2
DA:494,1
DA:495,1
DA:494,1
DA:495,1
DA:494,1
DA:495,1
DA:507,0
DA:508,0
DA:509,0
DA:550,0
DA:552,0
DA:554,0
DA:555,0
DA:557,0
DA:558,0
DA:550,0
DA:552,0
DA:554,0
DA:555,0
DA:557,0
DA:558,0
DA:550,0
DA:552,0
DA:554,0
DA:555,0
DA:557,0
DA:558,0
DA:550,0
DA:552,0
DA:554,0
DA:555,0
DA:557,0
DA:558,0
DA:550,0
DA:552,0
DA:554,0
DA:555,0
DA:557,0
DA:558,0
DA:550,3
DA:552,3
DA:554,3
DA:555,3
DA:557,3
DA:558,3
DA:550,56
DA:552,56
DA:554,56
DA:555,56
DA:557,56
DA:558,56
DA:550,56
DA:552,56
DA:554,56
DA:555,56
DA:557,56
DA:558,56
DA:550,1
DA:552,1
DA:554,1
DA:555,1
DA:557,1
DA:558,1
DA:550,2
DA:552,2
DA:554,2
DA:555,2
DA:557,2
DA:558,2
DA:550,0
DA:552,0
DA:554,0
DA:555,0
DA:557,0
DA:558,0
DA:550,778
DA:552,778
DA:554,778
DA:555,778
DA:557,778
DA:558,778
DA:550,4
DA:552,4
DA:554,4
DA:555,4
DA:557,4
DA:558,4
DA:550,0
DA:552,0
DA:554,0
DA:555,0
DA:557,0
DA:558,0
DA:569,0
DA:569,0
DA:569,0
DA:569,0
DA:569,0
DA:569,0
DA:569,0
DA:569,1
DA:569,331
DA:622,1
DA:624,1
DA:626,1
DA:628,1
DA:622,0
DA:624,0
DA:626,0
DA:628,0
DA:650,0
DA:652,0
DA:654,0
DA:655,0
DA:656,0
DA:650,0
DA:652,0
DA:654,0
DA:655,0
DA:656,0
DA:650,1
DA:652,1
DA:654,1
DA:655,1
DA:656,1
DA:675,1
DA:677,1
DA:678,1
DA:680,1
DA:675,2
DA:677,2
DA:678,2
DA:680,2
DA:675,1
DA:677,1
DA:678,1
DA:680,1
DA:675,1
DA:677,1
DA:678,1
DA:680,1
DA:675,22
DA:677,22
DA:678,22
DA:680,22
DA:675,1
DA:677,1
DA:678,1
DA:680,1
DA:675,4
DA:677,4
DA:678,4
DA:680,4
DA:675,1
DA:677,1
DA:678,1
DA:680,1
DA:675,1
DA:677,1
DA:678,1
DA:680,1
DA:675,6
DA:677,6
DA:678,6
DA:680,6
DA:675,1
DA:677,1
DA:678,1
DA:680,1
DA:675,5
DA:677,5
DA:678,5
DA:680,5
DA:675,59
DA:677,59
DA:678,59
DA:680,59
DA:675,59
DA:677,59
DA:678,59
DA:680,59
DA:675,0
DA:677,0
DA:678,0
DA:680,0
DA:675,5
DA:677,5
DA:678,5
DA:680,5
DA:675,0
DA:677,0
DA:678,0
DA:680,0
DA:675,0
DA:677,0
DA:678,0
DA:680,0
DA:675,1168
DA:677,1168
DA:678,1168
DA:680,1168
DA:675,0
DA:677,0
DA:678,0
DA:680,0
DA:675,0
DA:677,0
DA:678,0
DA:680,0
DA:675,0
DA:677,0
DA:678,0
DA:680,0
DA:675,0
DA:677,0
DA:678,0
DA:680,0
DA:675,0
DA:677,0
DA:678,0
DA:680,0
DA:675,0
DA:677,0
DA:678,0
DA:680,0
DA:675,0
DA:677,0
DA:678,0
DA:680,0
DA:675,0
DA:677,0
DA:678,0
DA:680,0
DA:675,1
DA:677,1
DA:678,1
DA:680,1
DA:675,0
DA:677,0
DA:678,0
DA:680,0
DA:675,0
DA:677,0
DA:678,0
DA:680,0
DA:675,0
DA:677,0
DA:678,0
DA:680,0
DA:675,0
DA:677,0
DA:678,0
DA:680,0
DA:675,0
DA:677,0
DA:678,0
DA:680,0
DA:675,0
DA:677,0
DA:678,0
DA:680,0
DA:675,0
DA:677,0
DA:678,0
DA:680,0
DA:675,0
DA:677,0
DA:678,0
DA:680,0
DA:675,0
DA:677,0
DA:678,0
DA:680,0
DA:675,2
DA:677,2
DA:678,2
DA:680,2
DA:706,0
DA:708,0
DA:711,0
DA:712,0
DA:706,1
DA:708,1
DA:711,1
DA:712,1
DA:706,1
DA:708,1
DA:711,1
DA:712,1
DA:706,2
DA:708,2
DA:711,2
DA:712,2
DA:706,1
DA:708,1
DA:711,1
DA:712,1
DA:706,1
DA:708,1
DA:711,1
DA:712,1
DA:706,1
DA:708,1
DA:711,1
DA:712,1
DA:808,3
DA:809,3
DA:808,0
DA:809,0
DA:808,0
DA:809,0
DA:808,0
DA:809,0
DA:808,0
DA:809,0
DA:808,17
DA:809,17
DA:808,1
DA:809,1
DA:808,26
DA:809,26
DA:808,0
DA:809,0
DA:808,1
DA:809,1
DA:808,0
DA:809,0
DA:808,224
DA:809,224
DA:808,53
DA:809,53
DA:808,3
DA:809,3
DA:808,0
DA:809,0
DA:808,2
DA:809,2
DA:808,0
DA:809,0
DA:808,0
DA:809,0
DA:808,0
DA:809,0
DA:808,0
DA:809,0
DA:808,0
DA:809,0
DA:808,0
DA:809,0
DA:808,0
DA:809,0
DA:808,0
DA:809,0
DA:808,0
DA:809,0
DA:808,0
DA:809,0
DA:808,0
DA:809,0
DA:808,0
DA:809,0
DA:808,0
DA:809,0
DA:808,0
DA:809,0
DA:808,0
DA:809,0
DA:808,1
DA:809,1
DA:808,0
DA:809,0
DA:808,2
DA:809,2
DA:808,0
DA:809,0
DA:808,0
DA:809,0
DA:817,0
DA:818,0
DA:817,0
DA:818,0
DA:817,820
DA:818,820
DA:817,57
DA:818,57
DA:817,57
DA:818,57
DA:817,0
DA:818,0
DA:817,1
DA:818,1
DA:817,5
DA:818,5
DA:817,1
DA:818,1
DA:817,6
DA:818,6
DA:817,4
DA:818,4
DA:817,0
DA:818,0
DA:817,0
DA:818,0
DA:817,0
DA:818,0
DA:817,0
DA:818,0
DA:817,0
DA:818,0
DA:817,0
DA:818,0
DA:817,5
DA:818,5
DA:817,19
DA:818,19
DA:817,0
DA:818,0
DA:817,0
DA:818,0
DA:817,19
DA:818,19
DA:817,0
DA:818,0
DA:817,0
DA:818,0
DA:817,0
DA:818,0
DA:817,0
DA:818,0
DA:817,0
DA:818,0
DA:817,0
DA:818,0
DA:826,0
DA:827,0
DA:826,0
DA:827,0
DA:826,17
DA:827,17
DA:826,40
DA:827,40
DA:826,0
DA:827,0
DA:826,0
DA:827,0
DA:826,0
DA:827,0
DA:826,0
DA:827,0
DA:826,3
DA:827,3
DA:826,1
DA:827,1
DA:826,455
DA:827,455
DA:826,53
DA:827,53
DA:826,3
DA:827,3
DA:826,0
DA:827,0
DA:826,2
DA:827,2
DA:826,0
DA:827,0
DA:826,1
DA:827,1
DA:826,26
DA:827,26
DA:826,0
DA:827,0
DA:826,0
DA:827,0
DA:826,0
DA:827,0
DA:826,0
DA:827,0
DA:826,0
DA:827,0
DA:826,0
DA:827,0
DA:826,0
DA:827,0
DA:826,0
DA:827,0
DA:826,0
DA:827,0
DA:826,0
DA:827,0
DA:826,0
DA:827,0
DA:826,0
DA:827,0
DA:826,1
DA:827,1
DA:826,0
DA:827,0
DA:826,0
DA:827,0
DA:826,0
DA:827,0
DA:826,0
DA:827,0
DA:826,0
DA:827,0
DA:835,0
DA:836,0
DA:835,0
DA:836,0
DA:835,822
DA:836,822
DA:835,57
DA:836,57
DA:835,57
DA:836,57
DA:835,0
DA:836,0
DA:835,1
DA:836,1
DA:835,5
DA:836,5
DA:835,1
DA:836,1
DA:835,6
DA:836,6
DA:835,4
DA:836,4
DA:835,0
DA:836,0
DA:835,0
DA:836,0
DA:835,0
DA:836,0
DA:835,0
DA:836,0
DA:835,0
DA:836,0
DA:835,0
DA:836,0
DA:835,5
DA:836,5
DA:835,19
DA:836,19
DA:835,0
DA:836,0
DA:835,0
DA:836,0
DA:835,19
DA:836,19
DA:835,0
DA:836,0
DA:835,0
DA:836,0
DA:835,0
DA:836,0
DA:835,0
DA:836,0
DA:835,0
DA:836,0
DA:835,0
DA:836,0
DA:844,17
DA:845,17
DA:862,17
DA:863,17
DA:881,0
DA:882,0
DA:881,2
DA:882,2
DA:881,0
DA:882,0
DA:881,0
DA:882,0
DA:881,0
DA:882,0
DA:915,0
DA:916,0
DA:915,4
DA:916,4
DA:915,0
DA:916,0
DA:915,0
DA:916,0
DA:915,6
DA:916,6
DA:915,0
DA:916,0
DA:915,0
DA:916,0
DA:915,12
DA:916,12
DA:915,0
DA:916,0
DA:915,0
DA:916,0
DA:915,0
DA:916,0
DA:915,9
DA:916,9
DA:915,1
DA:916,1
DA:915,61
DA:916,61
DA:915,161
DA:916,161
DA:915,6
DA:916,6
DA:915,0
DA:916,0
DA:915,978
DA:916,978
DA:915,0
DA:916,0
DA:915,0
DA:916,0
DA:915,0
DA:916,0
DA:915,0
DA:916,0
DA:915,0
DA:916,0
DA:915,0
DA:916,0
DA:915,0
DA:916,0
DA:915,0
DA:916,0
DA:915,0
DA:916,0
DA:915,0
DA:916,0
DA:915,0
DA:916,0
DA:915,0
DA:916,0
DA:915,0
DA:916,0
DA:915,7
DA:916,7
DA:915,8
DA:916,8
DA:915,0
DA:916,0
DA:915,0
DA:916,0
DA:915,48
DA:916,48
DA:920,0
DA:921,0
DA:920,0
DA:921,0
DA:920,0
DA:921,0
DA:920,2
DA:921,2
DA:920,24
DA:921,24
DA:920,0
DA:921,0
DA:920,2
DA:921,2
DA:920,0
DA:921,0
DA:920,0
DA:921,0
DA:920,4
DA:921,4
DA:920,52
DA:921,52
DA:920,2
DA:921,2
DA:920,0
DA:921,0
DA:920,90
DA:921,90
DA:920,0
DA:921,0
DA:920,4
DA:921,4
DA:920,0
DA:921,0
DA:920,0
DA:921,0
DA:920,0
DA:921,0
DA:920,0
DA:921,0
DA:920,0
DA:921,0
DA:920,0
DA:921,0
DA:920,0
DA:921,0
DA:920,0
DA:921,0
DA:920,0
DA:921,0
DA:920,0
DA:921,0
DA:920,0
DA:921,0
DA:920,0
DA:921,0
DA:920,0
DA:921,0
DA:920,0
DA:921,0
DA:920,0
DA:921,0
DA:920,0
DA:921,0
DA:920,6
DA:921,6
DA:920,2
DA:921,2
DA:920,0
DA:921,0
DA:934,0
DA:936,0
DA:937,0
DA:938,0
DA:939,0
DA:940,0
DA:934,1
DA:936,1
DA:937,0
DA:938,1
DA:939,0
DA:940,1
DA:995,0
DA:996,0
DA:997,0
DA:995,0
DA:996,0
DA:997,0
DA:995,0
DA:996,0
DA:997,0
DA:995,0
DA:996,0
DA:997,0
DA:995,0
DA:996,0
DA:997,0
DA:995,0
DA:996,0
DA:997,0
DA:995,0
DA:996,0
DA:997,0
DA:1004,0
DA:1005,0
DA:1004,1
DA:1005,1
DA:1004,39
DA:1005,39
DA:1004,0
DA:1005,0
DA:1004,0
DA:1005,0
DA:1004,19
DA:1005,19
DA:1004,0
DA:1005,0
DA:1004,1
DA:1005,1
DA:1004,1
DA:1005,1
DA:1004,0
DA:1005,0
DA:1004,2
DA:1005,2
DA:1004,19
DA:1005,19
DA:1004,0
DA:1005,0
DA:1004,1
DA:1005,1
DA:1004,0
DA:1005,0
DA:1004,0
DA:1005,0
DA:1004,0
DA:1005,0
DA:1040,0
DA:1043,0
DA:1040,0
DA:1043,0
DA:1040,0
DA:1043,0
DA:1040,0
DA:1043,0
DA:1040,0
DA:1043,0
DA:1040,0
DA:1043,0
DA:1040,0
DA:1043,0
DA:1040,0
DA:1043,0
DA:1040,0
DA:1043,0
DA:1058,0
DA:1061,0
DA:1058,0
DA:1061,0
DA:1058,0
DA:1061,0
DA:1058,0
DA:1061,0
DA:1058,0
DA:1061,0
DA:1058,0
DA:1061,0
DA:1129,0
DA:1132,0
DA:1129,0
DA:1132,0
DA:1140,0
DA:1143,0
DA:1140,0
DA:1143,0
DA:1140,38
DA:1143,38
DA:1140,0
DA:1143,0
DA:1140,19
DA:1143,19
DA:1140,0
DA:1143,0
DA:1140,0
DA:1143,0
DA:1140,0
DA:1143,0
DA:1140,0
DA:1143,0
DA:1140,0
DA:1143,0
DA:1140,0
DA:1143,0
DA:1140,0
DA:1143,0
DA:1140,0
DA:1143,0
DA:1140,0
DA:1143,0
DA:1140,0
DA:1143,0
DA:1140,0
DA:1143,0
DA:1140,0
DA:1143,0
DA:1140,0
DA:1143,0
DA:1140,0
DA:1143,0
DA:1165,0
DA:1166,0
DA:1184,2
DA:1186,2
DA:1189,0
DA:1191,0
DA:1195,2
DA:1196,2
DA:1184,45
DA:1186,45
DA:1189,0
DA:1191,0
DA:1195,45
DA:1196,45
DA:1184,0
DA:1186,0
DA:1189,0
DA:1191,0
DA:1195,0
DA:1196,0
DA:1184,1
DA:1186,1
DA:1189,0
DA:1191,0
DA:1195,1
DA:1196,1
DA:1184,26
DA:1186,26
DA:1189,0
DA:1191,0
DA:1195,26
DA:1196,26
DA:1184,0
DA:1186,0
DA:1189,0
DA:1191,0
DA:1195,0
DA:1196,0
DA:1184,0
DA:1186,0
DA:1189,0
DA:1191,0
DA:1195,0
DA:1196,0
DA:1184,0
DA:1186,0
DA:1189,0
DA:1191,0
DA:1195,0
DA:1196,0
DA:1184,0
DA:1186,0
DA:1189,0
DA:1191,0
DA:1195,0
DA:1196,0
DA:1184,1
DA:1186,1
DA:1189,0
DA:1191,0
DA:1195,1
DA:1196,1
DA:1184,0
DA:1186,0
DA:1189,0
DA:1191,0
DA:1195,0
DA:1196,0
DA:1184,0
DA:1186,0
DA:1189,0
DA:1191,0
DA:1195,0
DA:1196,0
DA:1184,20
DA:1186,20
DA:1189,8
DA:1191,8
DA:1195,12
DA:1196,20
DA:1184,1
DA:1186,1
DA:1189,0
DA:1191,0
DA:1195,1
DA:1196,1
DA:1184,1
DA:1186,1
DA:1189,0
DA:1191,0
DA:1195,1
DA:1196,1
DA:1184,36
DA:1186,36
DA:1189,33
DA:1191,33
DA:1195,3
DA:1196,36
DA:1184,0
DA:1186,0
DA:1189,0
DA:1191,0
DA:1195,0
DA:1196,0
DA:1184,0
DA:1186,0
DA:1189,0
DA:1191,0
DA:1195,0
DA:1196,0
DA:1184,0
DA:1186,0
DA:1189,0
DA:1191,0
DA:1195,0
DA:1196,0
DA:1184,0
DA:1186,0
DA:1189,0
DA:1191,0
DA:1195,0
DA:1196,0
DA:1184,0
DA:1186,0
DA:1189,0
DA:1191,0
DA:1195,0
DA:1196,0
DA:1200,0
DA:1201,0
DA:1200,0
DA:1201,0
DA:1200,0
DA:1201,0
DA:1200,0
DA:1201,0
DA:1200,0
DA:1201,0
DA:1200,0
DA:1201,0
DA:1200,0
DA:1201,0
DA:1200,19
DA:1201,19
DA:1200,0
DA:1201,0
DA:1200,0
DA:1201,0
DA:1200,0
DA:1201,0
DA:1200,0
DA:1201,0
DA:1222,0
DA:1225,0
DA:1226,0
DA:1228,0
DA:1222,36
DA:1225,36
DA:1226,36
DA:1228,36
DA:1222,0
DA:1225,0
DA:1226,0
DA:1228,0
DA:1222,0
DA:1225,0
DA:1226,0
DA:1228,0
DA:1222,19
DA:1225,19
DA:1226,19
DA:1228,19
DA:1376,0
DA:1379,0
DA:1380,0
DA:1382,0
DA:1376,0
DA:1379,0
DA:1380,0
DA:1382,0
DA:1427,0
DA:1428,0
DA:1454,0
DA:1456,0
DA:1457,0
DA:1458,0
DA:1454,2
DA:1456,2
DA:1457,2
DA:1458,4
DA:1454,0
DA:1456,0
DA:1457,0
DA:1458,0
DA:1477,0
DA:1483,0
DA:1484,0
DA:1486,0
DA:1477,0
DA:1483,0
DA:1484,0
DA:1486,0
DA:1495,0
DA:1496,0
DA:1495,0
DA:1496,0
DA:1495,0
DA:1496,0
DA:1495,0
DA:1496,0
DA:1495,2
DA:1496,2
DA:1495,2
DA:1496,2
DA:1495,17
DA:1496,17
DA:1495,36
DA:1496,36
DA:1495,0
DA:1496,0
DA:1505,0
DA:1508,0
DA:1511,0
DA:1512,0
DA:1513,0
DA:1515,0
DA:1517,0
DA:1518,0
DA:1505,0
DA:1508,0
DA:1511,0
DA:1512,0
DA:1513,0
DA:1515,0
DA:1517,0
DA:1518,0
DA:1505,0
DA:1508,0
DA:1511,0
DA:1512,0
DA:1513,0
DA:1515,0
DA:1517,0
DA:1518,0
DA:1505,0
DA:1508,0
DA:1511,0
DA:1512,0
DA:1513,0
DA:1515,0
DA:1517,0
DA:1518,0
DA:1574,0
DA:1577,0
DA:1578,0
DA:1579,0
DA:1580,0
DA:1581,0
DA:1582,0
DA:1584,0
DA:1585,0
DA:1574,0
DA:1577,0
DA:1578,0
DA:1579,0
DA:1580,0
DA:1581,0
DA:1582,0
DA:1584,0
DA:1585,0
DA:1574,1
DA:1577,1
DA:1578,1
DA:1579,1
DA:1580,1
DA:1581,1
DA:1582,1
DA:1584,1
DA:1585,1
DA:1574,0
DA:1577,0
DA:1578,0
DA:1579,0
DA:1580,0
DA:1581,0
DA:1582,0
DA:1584,0
DA:1585,0
DA:1574,1
DA:1577,1
DA:1578,1
DA:1579,1
DA:1580,1
DA:1581,1
DA:1582,1
DA:1584,1
DA:1585,1
DA:1600,0
DA:1602,0
DA:1603,0
DA:1604,0
DA:1605,0
DA:1659,0
DA:1662,0
DA:1663,0
DA:1664,0
DA:1659,0
DA:1662,0
DA:1663,0
DA:1664,0
DA:1753,0
DA:1755,0
DA:1756,0
DA:1758,0
DA:1759,0
DA:1753,0
DA:1755,0
DA:1756,0
DA:1758,0
DA:1759,0
DA:1753,0
DA:1755,0
DA:1756,0
DA:1758,0
DA:1759,0
DA:1753,0
DA:1755,0
DA:1756,0
DA:1758,0
DA:1759,0
DA:1753,1
DA:1755,1
DA:1756,0
DA:1758,1
DA:1759,1
DA:1753,12
DA:1755,12
DA:1756,0
DA:1758,12
DA:1759,12
DA:1753,2
DA:1755,2
DA:1756,0
DA:1758,2
DA:1759,2
DA:1753,0
DA:1755,0
DA:1756,0
DA:1758,0
DA:1759,0
DA:1753,1
DA:1755,1
DA:1756,0
DA:1758,1
DA:1759,1
DA:1753,2
DA:1755,2
DA:1756,0
DA:1758,2
DA:1759,2
DA:1753,0
DA:1755,0
DA:1756,0
DA:1758,0
DA:1759,0
DA:1753,0
DA:1755,0
DA:1756,0
DA:1758,0
DA:1759,0
DA:1753,0
DA:1755,0
DA:1756,0
DA:1758,0
DA:1759,0
DA:1753,26
DA:1755,26
DA:1756,0
DA:1758,26
DA:1759,26
DA:1753,1
DA:1755,1
DA:1756,0
DA:1758,1
DA:1759,1
DA:1753,0
DA:1755,0
DA:1756,0
DA:1758,0
DA:1759,0
DA:1753,0
DA:1755,0
DA:1756,0
DA:1758,0
DA:1759,0
DA:1753,45
DA:1755,45
DA:1756,0
DA:1758,45
DA:1759,45
DA:1753,0
DA:1755,0
DA:1756,0
DA:1758,0
DA:1759,0
DA:1753,0
DA:1755,0
DA:1756,0
DA:1758,0
DA:1759,0
DA:1753,0
DA:1755,0
DA:1756,0
DA:1758,0
DA:1759,0
DA:1753,0
DA:1755,0
DA:1756,0
DA:1758,0
DA:1759,0
DA:1753,0
DA:1755,0
DA:1756,0
DA:1758,0
DA:1759,0
DA:1753,0
DA:1755,0
DA:1756,0
DA:1758,0
DA:1759,0
DA:1753,0
DA:1755,0
DA:1756,0
DA:1758,0
DA:1759,0
DA:1753,0
DA:1755,0
DA:1756,0
DA:1758,0
DA:1759,0
DA:1753,0
DA:1755,0
DA:1756,0
DA:1758,0
DA:1759,0
DA:1753,0
DA:1755,0
DA:1756,0
DA:1758,0
DA:1759,0
DA:1753,0
DA:1755,0
DA:1756,0
DA:1758,0
DA:1759,0
DA:1753,0
DA:1755,0
DA:1756,0
DA:1758,0
DA:1759,0
DA:1753,0
DA:1755,0
DA:1756,0
DA:1758,0
DA:1759,0
DA:1753,0
DA:1755,0
DA:1756,0
DA:1758,0
DA:1759,0
DA:1753,3
DA:1755,3
DA:1756,0
DA:1758,3
DA:1759,3
DA:1753,1
DA:1755,1
DA:1756,0
DA:1758,1
DA:1759,1
DA:1753,0
DA:1755,0
DA:1756,0
DA:1758,0
DA:1759,0
DA:1764,0
DA:1766,0
DA:1767,0
DA:1769,0
DA:1764,0
DA:1766,0
DA:1767,0
DA:1769,0
DA:1764,1
DA:1766,1
DA:1767,0
DA:1769,1
DA:1764,0
DA:1766,0
DA:1767,0
DA:1769,0
DA:1764,1
DA:1766,1
DA:1767,0
DA:1769,1
DA:1773,2
DA:1778,2
DA:1780,2
DA:1781,2
DA:1773,0
DA:1778,0
DA:1780,0
DA:1781,0
DA:1773,2
DA:1778,2
DA:1780,2
DA:1781,2
DA:1773,24
DA:1778,24
DA:1780,24
DA:1781,24
DA:1773,0
DA:1778,0
DA:1780,0
DA:1781,0
DA:1773,2
DA:1778,2
DA:1780,2
DA:1781,2
DA:1773,0
DA:1778,0
DA:1780,0
DA:1781,0
DA:1773,0
DA:1778,0
DA:1780,0
DA:1781,0
DA:1773,0
DA:1778,0
DA:1780,0
DA:1781,0
DA:1773,52
DA:1778,52
DA:1780,52
DA:1781,52
DA:1773,4
DA:1778,4
DA:1780,4
DA:1781,4
DA:1773,0
DA:1778,0
DA:1780,0
DA:1781,0
DA:1773,1
DA:1778,1
DA:1780,1
DA:1781,1
DA:1773,0
DA:1778,0
DA:1780,0
DA:1781,0
DA:1773,0
DA:1778,0
DA:1780,0
DA:1781,0
DA:1773,91
DA:1778,91
DA:1780,91
DA:1781,91
DA:1773,4
DA:1778,4
DA:1780,4
DA:1781,4
DA:1773,0
DA:1778,0
DA:1780,0
DA:1781,0
DA:1773,0
DA:1778,0
DA:1780,0
DA:1781,0
DA:1773,0
DA:1778,0
DA:1780,0
DA:1781,0
DA:1773,0
DA:1778,0
DA:1780,0
DA:1781,0
DA:1773,0
DA:1778,0
DA:1780,0
DA:1781,0
DA:1773,0
DA:1778,0
DA:1780,0
DA:1781,0
DA:1773,0
DA:1778,0
DA:1780,0
DA:1781,0
DA:1773,0
DA:1778,0
DA:1780,0
DA:1781,0
DA:1773,0
DA:1778,0
DA:1780,0
DA:1781,0
DA:1773,0
DA:1778,0
DA:1780,0
DA:1781,0
DA:1773,0
DA:1778,0
DA:1780,0
DA:1781,0
DA:1773,0
DA:1778,0
DA:1780,0
DA:1781,0
DA:1773,0
DA:1778,0
DA:1780,0
DA:1781,0
DA:1773,0
DA:1778,0
DA:1780,0
DA:1781,0
DA:1773,0
DA:1778,0
DA:1780,0
DA:1781,0
DA:1773,0
DA:1778,0
DA:1780,0
DA:1781,0
DA:1773,0
DA:1778,0
DA:1780,0
DA:1781,0
DA:1773,6
DA:1778,6
DA:1780,6
DA:1781,6
DA:1773,2
DA:1778,2
DA:1780,2
DA:1781,2
DA:1773,0
DA:1778,0
DA:1780,0
DA:1781,0
DA:1789,0
DA:1791,0
DA:1793,0
DA:1794,0
DA:1795,0
DA:1798,0
DA:1789,0
DA:1791,0
DA:1793,0
DA:1794,0
DA:1795,0
DA:1798,0
DA:1789,0
DA:1791,0
DA:1793,0
DA:1794,0
DA:1795,0
DA:1798,0
DA:1789,0
DA:1791,0
DA:1793,0
DA:1794,0
DA:1795,0
DA:1798,0
DA:1789,0
DA:1791,0
DA:1793,0
DA:1794,0
DA:1795,0
DA:1798,0
DA:1789,2
DA:1791,2
DA:1793,0
DA:1794,0
DA:1795,0
DA:1798,2
DA:1789,2
DA:1791,2
DA:1793,0
DA:1794,0
DA:1795,0
DA:1798,2
DA:1789,17
DA:1791,17
DA:1793,0
DA:1794,0
DA:1795,0
DA:1798,17
DA:1789,36
DA:1791,36
DA:1793,0
DA:1794,0
DA:1795,0
DA:1798,36
DA:1789,0
DA:1791,0
DA:1793,0
DA:1794,0
DA:1795,0
DA:1798,0
DA:1789,0
DA:1791,0
DA:1793,0
DA:1794,0
DA:1795,0
DA:1798,0
DA:1812,0
DA:1814,0
DA:1815,0
DA:1816,0
DA:1817,0
DA:1818,0
DA:1812,1
DA:1814,2
DA:1815,1
DA:1816,1
DA:1817,1
DA:1818,1
DA:1812,1
DA:1814,2
DA:1815,1
DA:1816,1
DA:1817,1
DA:1818,1
DA:1812,2
DA:1814,4
DA:1815,2
DA:1816,2
DA:1817,2
DA:1818,2
DA:1812,1
DA:1814,2
DA:1815,1
DA:1816,1
DA:1817,1
DA:1818,1
DA:1812,1
DA:1814,2
DA:1815,1
DA:1816,1
DA:1817,1
DA:1818,1
DA:1812,1
DA:1814,2
DA:1815,1
DA:1816,1
DA:1817,1
DA:1818,1
DA:1840,0
DA:1841,0
DA:1888,0
DA:1889,0
DA:1890,0
DA:1912,0
DA:1913,0
end_of_record
SF:/usr/include/c++/9/ext/type_traits.h
FN:152,_ZN9__gnu_cxx17__is_null_pointerIcEEbPT_
FNDA:4135,_ZN9__gnu_cxx17__is_null_pointerIcEEbPT_
FN:152,_ZN9__gnu_cxx17__is_null_pointerIKwEEbPT_
FNDA:0,_ZN9__gnu_cxx17__is_null_pointerIKwEEbPT_
FN:152,_ZN9__gnu_cxx17__is_null_pointerIKcEEbPT_
FNDA:310,_ZN9__gnu_cxx17__is_null_pointerIKcEEbPT_
FN:157,_ZN9__gnu_cxx17__is_null_pointerINS_17__normal_iteratorIPcNSt7__cxx1112basic_stringIcSt11char_traitsIcESaIcEEEEEEEbT_
FNDA:0,_ZN9__gnu_cxx17__is_null_pointerINS_17__normal_iteratorIPcNSt7__cxx1112basic_stringIcSt11char_traitsIcESaIcEEEEEEEbT_
DA:152,4135
DA:153,4135
DA:152,0
DA:153,0
DA:152,310
DA:153,310
DA:157,0
DA:158,0
end_of_record
SF:/usr/include/c++/9/bits/locale_classes.tcc
FN:132,_ZSt9use_facetIKSt5ctypeIcEERKT_RKSt6locale
FNDA:0,_ZSt9use_facetIKSt5ctypeIcEERKT_RKSt6locale
DA:132,0
DA:134,0
DA:135,0
DA:136,0
DA:137,0
DA:139,0
end_of_record
SF:/usr/include/c++/9/bits/ios_base.h
FN:83,_ZStanSt13_Ios_FmtflagsS_
FNDA:0,_ZStanSt13_Ios_FmtflagsS_
FN:87,_ZStorSt13_Ios_FmtflagsS_
FNDA:0,_ZStorSt13_Ios_FmtflagsS_
FN:95,_ZStcoSt13_Ios_Fmtflags
FNDA:0,_ZStcoSt13_Ios_Fmtflags
FN:99,_ZStoRRSt13_Ios_FmtflagsS_
FNDA:0,_ZStoRRSt13_Ios_FmtflagsS_
FN:103,_ZStaNRSt13_Ios_FmtflagsS_
FNDA:0,_ZStaNRSt13_Ios_FmtflagsS_
FN:653,_ZNSt8ios_base4setfESt13_Ios_Fmtflags
FNDA:0,_ZNSt8ios_base4setfESt13_Ios_Fmtflags
FN:670,_ZNSt8ios_base4setfESt13_Ios_FmtflagsS0_
FNDA:0,_ZNSt8ios_base4setfESt13_Ios_FmtflagsS0_
FN:965,_ZSt9uppercaseRSt8ios_base
FNDA:0,_ZSt9uppercaseRSt8ios_base
FN:1006,_ZSt4leftRSt8ios_base
FNDA:0,_ZSt4leftRSt8ios_base
FN:1031,_ZSt3hexRSt8ios_base
FNDA:0,_ZSt3hexRSt8ios_base
FN:1039,_ZSt3octRSt8ios_base
FNDA:0,_ZSt3octRSt8ios_base
FN:1048,_ZSt5fixedRSt8ios_base
FNDA:0,_ZSt5fixedRSt8ios_base
DA:83,0
DA:84,0
DA:87,0
DA:88,0
DA:95,0
DA:96,0
DA:99,0
DA:100,0
DA:103,0
DA:104,0
DA:653,0
DA:655,0
DA:656,0
DA:657,0
DA:670,0
DA:672,0
DA:673,0
DA:674,0
DA:675,0
DA:965,0
DA:967,0
DA:968,0
DA:1006,0
DA:1008,0
DA:1009,0
DA:1031,0
DA:1033,0
DA:1034,0
DA:1039,0
DA:1041,0
DA:1042,0
DA:1048,0
DA:1050,0
DA:1051,0
end_of_record
SF:/usr/include/c++/9/x86_64-redhat-linux/bits/gthr-default.h
FN:248,_ZL18__gthread_active_pv
FNDA:2778,_ZL18__gthread_active_pv
DA:248,2778
DA:252,2778
end_of_record
SF:/usr/include/qt5/QtCore/qrect.h
FN:184,_ZN5QRectC2Eiiii
FNDA:0,_ZN5QRectC2Eiiii
FN:262,_ZNK5QRect6centerEv
FNDA:0,_ZNK5QRect6centerEv
FN:265,_ZNK5QRect5widthEv
FNDA:0,_ZNK5QRect5widthEv
FN:268,_ZNK5QRect6heightEv
FNDA:0,_ZNK5QRect6heightEv
FN:271,_ZNK5QRect4sizeEv
FNDA:0,_ZNK5QRect4sizeEv
DA:184,0
DA:185,0
DA:262,0
DA:263,0
DA:265,0
DA:266,0
DA:268,0
DA:269,0
DA:271,0
DA:272,0
end_of_record
SF:/usr/include/c++/9/ext/string_conversions.h
FN:99,_ZN9__gnu_cxx12__to_xstringINSt7__cxx1112basic_stringIcSt11char_traitsIcESaIcEEEcEET_PFiPT0_mPKS8_P13__va_list_tagEmSB_z
FNDA:0,_ZN9__gnu_cxx12__to_xstringINSt7__cxx1112basic_stringIcSt11char_traitsIcESaIcEEEcEET_PFiPT0_mPKS8_P13__va_list_tagEmSB_z
DA:99,0
DA:105,0
DA:109,0
DA:111,0
DA:113,0
DA:115,0
end_of_record
SF:/usr/include/c++/9/bits/exception_ptr.h
FN:101,_ZNSt15__exception_ptr13exception_ptrC2EDn
FNDA:0,_ZNSt15__exception_ptr13exception_ptrC2EDn
FN:105,_ZNSt15__exception_ptr13exception_ptrC2EOS0_
FNDA:0,_ZNSt15__exception_ptr13exception_ptrC2EOS0_
DA:101,0
DA:102,0
DA:103,0
DA:105,0
DA:106,0
DA:107,0
end_of_record
SF:/usr/include/c++/9/bits/regex_scanner.h
FN:91,_ZNSt8__detail12_ScannerBaseC2ENSt15regex_constants18syntax_option_typeE
FNDA:0,_ZNSt8__detail12_ScannerBaseC2ENSt15regex_constants18syntax_option_typeE
FN:115,_ZNSt8__detail12_ScannerBase14_M_find_escapeEc
FNDA:0,_ZNSt8__detail12_ScannerBase14_M_find_escapeEc
FN:125,_ZNKSt8__detail12_ScannerBase10_M_is_ecmaEv
FNDA:0,_ZNKSt8__detail12_ScannerBase10_M_is_ecmaEv
FN:129,_ZNKSt8__detail12_ScannerBase11_M_is_basicEv
FNDA:0,_ZNKSt8__detail12_ScannerBase11_M_is_basicEv
FN:145,_ZNKSt8__detail12_ScannerBase9_M_is_awkEv
FNDA:0,_ZNKSt8__detail12_ScannerBase9_M_is_awkEv
FN:226,_ZNKSt8__detail8_ScannerIcE12_M_get_tokenEv
FNDA:0,_ZNKSt8__detail8_ScannerIcE12_M_get_tokenEv
FN:230,_ZNKSt8__detail8_ScannerIcE12_M_get_valueB5cxx11Ev
FNDA:0,_ZNKSt8__detail8_ScannerIcE12_M_get_valueB5cxx11Ev
DA:91,0
DA:92,0
DA:94,0
DA:95,0
DA:97,0
DA:98,0
DA:99,0
DA:100,0
DA:101,0
DA:102,0
DA:103,0
DA:104,0
DA:105,0
DA:106,0
DA:107,0
DA:108,0
DA:110,0
DA:111,0
DA:115,0
DA:117,0
DA:118,0
DA:119,0
DA:120,0
DA:121,0
DA:125,0
DA:126,0
DA:129,0
DA:130,0
DA:145,0
DA:146,0
DA:226,0
DA:227,0
DA:230,0
DA:231,0
end_of_record
SF:/usr/include/c++/9/bits/stl_algo.h
FN:78,_ZSt22__move_median_to_firstIN9__gnu_cxx17__normal_iteratorIPNSt7__cxx1112basic_stringIcSt11char_traitsIcESaIcEEESt6vectorIS7_SaIS7_EEEENS0_5__ops15_Iter_less_iterEEvT_SF_SF_SF_T0_
FNDA:0,_ZSt22__move_median_to_firstIN9__gnu_cxx17__normal_iteratorIPNSt7__cxx1112basic_stringIcSt11char_traitsIcESaIcEEESt6vectorIS7_SaIS7_EEEENS0_5__ops15_Iter_less_iterEEvT_SF_SF_SF_T0_
FN:78,_ZSt22__move_median_to_firstIN9__gnu_cxx17__normal_iteratorIPcSt6vectorIcSaIcEEEENS0_5__ops15_Iter_less_iterEEvT_S9_S9_S9_T0_
FNDA:0,_ZSt22__move_median_to_firstIN9__gnu_cxx17__normal_iteratorIPcSt6vectorIcSaIcEEEENS0_5__ops15_Iter_less_iterEEvT_S9_S9_S9_T0_
FN:78,_ZSt22__move_median_to_firstIN9__gnu_cxx17__normal_iteratorIPN5Catch8TestCaseESt6vectorIS3_SaIS3_EEEENS0_5__ops15_Iter_less_iterEEvT_SB_SB_SB_T0_
FNDA:0,_ZSt22__move_median_to_firstIN9__gnu_cxx17__normal_iteratorIPN5Catch8TestCaseESt6vectorIS3_SaIS3_EEEENS0_5__ops15_Iter_less_iterEEvT_SB_SB_SB_T0_
FN:112,_ZSt9__find_ifIN9__gnu_cxx17__normal_iteratorIPSt10shared_ptrIN5Catch22CumulativeReporterBaseINS3_13JunitReporterEE11SectionNodeEESt6vectorIS8_SaIS8_EEEENS0_5__ops10_Iter_predINS6_13BySectionInfoEEEET_SI_SI_T0_St26random_access_iterator_tag
FNDA:0,_ZSt9__find_ifIN9__gnu_cxx17__normal_iteratorIPSt10shared_ptrIN5Catch22CumulativeReporterBaseINS3_13JunitReporterEE11SectionNodeEESt6vectorIS8_SaIS8_EEEENS0_5__ops10_Iter_predINS6_13BySectionInfoEEEET_SI_SI_T0_St26random_access_iterator_tag
FN:112,_ZSt9__find_ifIN9__gnu_cxx17__normal_iteratorIPN5Catch11MessageInfoESt6vectorIS3_SaIS3_EEEENS0_5__ops16_Iter_equals_valIKS3_EEET_SD_SD_T0_St26random_access_iterator_tag
FNDA:0,_ZSt9__find_ifIN9__gnu_cxx17__normal_iteratorIPN5Catch11MessageInfoESt6vectorIS3_SaIS3_EEEENS0_5__ops16_Iter_equals_valIKS3_EEET_SD_SD_T0_St26random_access_iterator_tag
FN:112,_ZSt9__find_ifIN9__gnu_cxx17__normal_iteratorIPKNSt7__cxx1112basic_stringIcSt11char_traitsIcESaIcEEESt6vectorIS7_SaIS7_EEEENS0_5__ops10_Iter_predIZN5Catch12_GLOBAL__N_111fileNameTagERKSC_EUlRS8_E_EEET_SN_SN_T0_St26random_access_iterator_tag
FNDA:0,_ZSt9__find_ifIN9__gnu_cxx17__normal_iteratorIPKNSt7__cxx1112basic_stringIcSt11char_traitsIcESaIcEEESt6vectorIS7_SaIS7_EEEENS0_5__ops10_Iter_predIZN5Catch12_GLOBAL__N_111fileNameTagERKSC_EUlRS8_E_EEET_SN_SN_T0_St26random_access_iterator_tag
FN:112,_ZSt9__find_ifIN9__gnu_cxx17__normal_iteratorIPKNSt7__cxx1112basic_stringIcSt11char_traitsIcESaIcEEESt6vectorIS7_SaIS7_EEEENS0_5__ops16_Iter_equals_valIS8_EEET_SH_SH_T0_St26random_access_iterator_tag
FNDA:2,_ZSt9__find_ifIN9__gnu_cxx17__normal_iteratorIPKNSt7__cxx1112basic_stringIcSt11char_traitsIcESaIcEEESt6vectorIS7_SaIS7_EEEENS0_5__ops16_Iter_equals_valIS8_EEET_SH_SH_T0_St26random_access_iterator_tag
FN:112,_ZSt9__find_ifIN9__gnu_cxx17__normal_iteratorIPSt10shared_ptrIN5Catch16TestCaseTracking8ITrackerEESt6vectorIS6_SaIS6_EEEENS0_5__ops10_Iter_predIZNS4_11TrackerBase9findChildERKNS4_15NameAndLocationEEUlRKS6_E_EEET_SM_SM_T0_St26random_access_iterator_tag
FNDA:212,_ZSt9__find_ifIN9__gnu_cxx17__normal_iteratorIPSt10shared_ptrIN5Catch16TestCaseTracking8ITrackerEESt6vectorIS6_SaIS6_EEEENS0_5__ops10_Iter_predIZNS4_11TrackerBase9findChildERKNS4_15NameAndLocationEEUlRKS6_E_EEET_SM_SM_T0_St26random_access_iterator_tag
FN:159,_ZSt9__find_ifIN9__gnu_cxx17__normal_iteratorIPSt10shared_ptrIN5Catch22CumulativeReporterBaseINS3_13JunitReporterEE11SectionNodeEESt6vectorIS8_SaIS8_EEEENS0_5__ops10_Iter_predINS6_13BySectionInfoEEEET_SI_SI_T0_
FNDA:0,_ZSt9__find_ifIN9__gnu_cxx17__normal_iteratorIPSt10shared_ptrIN5Catch22CumulativeReporterBaseINS3_13JunitReporterEE11SectionNodeEESt6vectorIS8_SaIS8_EEEENS0_5__ops10_Iter_predINS6_13BySectionInfoEEEET_SI_SI_T0_
FN:159,_ZSt9__find_ifIN9__gnu_cxx17__normal_iteratorIPN5Catch11MessageInfoESt6vectorIS3_SaIS3_EEEENS0_5__ops16_Iter_equals_valIKS3_EEET_SD_SD_T0_
FNDA:0,_ZSt9__find_ifIN9__gnu_cxx17__normal_iteratorIPN5Catch11MessageInfoESt6vectorIS3_SaIS3_EEEENS0_5__ops16_Iter_equals_valIKS3_EEET_SD_SD_T0_
FN:159,_ZSt9__find_ifIN9__gnu_cxx17__normal_iteratorIPKNSt7__cxx1112basic_stringIcSt11char_traitsIcESaIcEEESt6vectorIS7_SaIS7_EEEENS0_5__ops10_Iter_predIZN5Catch12_GLOBAL__N_111fileNameTagERKSC_EUlRS8_E_EEET_SN_SN_T0_
FNDA:0,_ZSt9__find_ifIN9__gnu_cxx17__normal_iteratorIPKNSt7__cxx1112basic_stringIcSt11char_traitsIcESaIcEEESt6vectorIS7_SaIS7_EEEENS0_5__ops10_Iter_predIZN5Catch12_GLOBAL__N_111fileNameTagERKSC_EUlRS8_E_EEET_SN_SN_T0_
FN:159,_ZSt9__find_ifIN9__gnu_cxx17__normal_iteratorIPSt10shared_ptrIN5Catch16TestCaseTracking8ITrackerEESt6vectorIS6_SaIS6_EEEENS0_5__ops10_Iter_predIZNS4_11TrackerBase9findChildERKNS4_15NameAndLocationEEUlRKS6_E_EEET_SM_SM_T0_
FNDA:212,_ZSt9__find_ifIN9__gnu_cxx17__normal_iteratorIPSt10shared_ptrIN5Catch16TestCaseTracking8ITrackerEESt6vectorIS6_SaIS6_EEEENS0_5__ops10_Iter_predIZNS4_11TrackerBase9findChildERKNS4_15NameAndLocationEEUlRKS6_E_EEET_SM_SM_T0_
FN:159,_ZSt9__find_ifIN9__gnu_cxx17__normal_iteratorIPKNSt7__cxx1112basic_stringIcSt11char_traitsIcESaIcEEESt6vectorIS7_SaIS7_EEEENS0_5__ops16_Iter_equals_valIS8_EEET_SH_SH_T0_
FNDA:2,_ZSt9__find_ifIN9__gnu_cxx17__normal_iteratorIPKNSt7__cxx1112basic_stringIcSt11char_traitsIcESaIcEEESt6vectorIS7_SaIS7_EEEENS0_5__ops16_Iter_equals_valIS8_EEET_SH_SH_T0_
FN:860,_ZSt11__remove_ifIN9__gnu_cxx17__normal_iteratorIPN5Catch11MessageInfoESt6vectorIS3_SaIS3_EEEENS0_5__ops16_Iter_equals_valIKS3_EEET_SD_SD_T0_
FNDA:0,_ZSt11__remove_ifIN9__gnu_cxx17__normal_iteratorIPN5Catch11MessageInfoESt6vectorIS3_SaIS3_EEEENS0_5__ops16_Iter_equals_valIKS3_EEET_SD_SD_T0_
FN:896,_ZSt6removeIN9__gnu_cxx17__normal_iteratorIPN5Catch11MessageInfoESt6vectorIS3_SaIS3_EEEES3_ET_S9_S9_RKT0_
FNDA:0,_ZSt6removeIN9__gnu_cxx17__normal_iteratorIPN5Catch11MessageInfoESt6vectorIS3_SaIS3_EEEES3_ET_S9_S9_RKT0_
FN:945,_ZSt15__adjacent_findIN9__gnu_cxx17__normal_iteratorIPcSt6vectorIcSaIcEEEENS0_5__ops19_Iter_equal_to_iterEET_S9_S9_T0_
FNDA:0,_ZSt15__adjacent_findIN9__gnu_cxx17__normal_iteratorIPcSt6vectorIcSaIcEEEENS0_5__ops19_Iter_equal_to_iterEET_S9_S9_T0_
FN:945,_ZSt15__adjacent_findIN9__gnu_cxx17__normal_iteratorIPNSt7__cxx1112basic_stringIcSt11char_traitsIcESaIcEEESt6vectorIS7_SaIS7_EEEENS0_5__ops19_Iter_equal_to_iterEET_SF_SF_T0_
FNDA:2,_ZSt15__adjacent_findIN9__gnu_cxx17__normal_iteratorIPNSt7__cxx1112basic_stringIcSt11char_traitsIcESaIcEEESt6vectorIS7_SaIS7_EEEENS0_5__ops19_Iter_equal_to_iterEET_SF_SF_T0_
FN:962,_ZSt8__uniqueIN9__gnu_cxx17__normal_iteratorIPNSt7__cxx1112basic_stringIcSt11char_traitsIcESaIcEEESt6vectorIS7_SaIS7_EEEENS0_5__ops19_Iter_equal_to_iterEET_SF_SF_T0_
FNDA:2,_ZSt8__uniqueIN9__gnu_cxx17__normal_iteratorIPNSt7__cxx1112basic_stringIcSt11char_traitsIcESaIcEEESt6vectorIS7_SaIS7_EEEENS0_5__ops19_Iter_equal_to_iterEET_SF_SF_T0_
FN:962,_ZSt8__uniqueIN9__gnu_cxx17__normal_iteratorIPcSt6vectorIcSaIcEEEENS0_5__ops19_Iter_equal_to_iterEET_S9_S9_T0_
FNDA:0,_ZSt8__uniqueIN9__gnu_cxx17__normal_iteratorIPcSt6vectorIcSaIcEEEENS0_5__ops19_Iter_equal_to_iterEET_S9_S9_T0_
FN:995,_ZSt6uniqueIN9__gnu_cxx17__normal_iteratorIPcSt6vectorIcSaIcEEEEET_S7_S7_
FNDA:0,_ZSt6uniqueIN9__gnu_cxx17__normal_iteratorIPcSt6vectorIcSaIcEEEEET_S7_S7_
FN:995,_ZSt6uniqueIN9__gnu_cxx17__normal_iteratorIPNSt7__cxx1112basic_stringIcSt11char_traitsIcESaIcEEESt6vectorIS7_SaIS7_EEEEET_SD_SD_
FNDA:2,_ZSt6uniqueIN9__gnu_cxx17__normal_iteratorIPNSt7__cxx1112basic_stringIcSt11char_traitsIcESaIcEEESt6vectorIS7_SaIS7_EEEEET_SD_SD_
FN:1667,_ZSt13__heap_selectIN9__gnu_cxx17__normal_iteratorIPcSt6vectorIcSaIcEEEENS0_5__ops15_Iter_less_iterEEvT_S9_S9_T0_
FNDA:0,_ZSt13__heap_selectIN9__gnu_cxx17__normal_iteratorIPcSt6vectorIcSaIcEEEENS0_5__ops15_Iter_less_iterEEvT_S9_S9_T0_
FN:1667,_ZSt13__heap_selectIN9__gnu_cxx17__normal_iteratorIPNSt7__cxx1112basic_stringIcSt11char_traitsIcESaIcEEESt6vectorIS7_SaIS7_EEEENS0_5__ops15_Iter_less_iterEEvT_SF_SF_T0_
FNDA:0,_ZSt13__heap_selectIN9__gnu_cxx17__normal_iteratorIPNSt7__cxx1112basic_stringIcSt11char_traitsIcESaIcEEESt6vectorIS7_SaIS7_EEEENS0_5__ops15_Iter_less_iterEEvT_SF_SF_T0_
FN:1667,_ZSt13__heap_selectIN9__gnu_cxx17__normal_iteratorIPN5Catch8TestCaseESt6vectorIS3_SaIS3_EEEENS0_5__ops15_Iter_less_iterEEvT_SB_SB_T0_
FNDA:0,_ZSt13__heap_selectIN9__gnu_cxx17__normal_iteratorIPN5Catch8TestCaseESt6vectorIS3_SaIS3_EEEENS0_5__ops15_Iter_less_iterEEvT_SB_SB_T0_
FN:1820,_ZSt25__unguarded_linear_insertIN9__gnu_cxx17__normal_iteratorIPNSt7__cxx1112basic_stringIcSt11char_traitsIcESaIcEEESt6vectorIS7_SaIS7_EEEENS0_5__ops14_Val_less_iterEEvT_T0_
FNDA:0,_ZSt25__unguarded_linear_insertIN9__gnu_cxx17__normal_iteratorIPNSt7__cxx1112basic_stringIcSt11char_traitsIcESaIcEEESt6vectorIS7_SaIS7_EEEENS0_5__ops14_Val_less_iterEEvT_T0_
FN:1820,_ZSt25__unguarded_linear_insertIN9__gnu_cxx17__normal_iteratorIPcSt6vectorIcSaIcEEEENS0_5__ops14_Val_less_iterEEvT_T0_
FNDA:0,_ZSt25__unguarded_linear_insertIN9__gnu_cxx17__normal_iteratorIPcSt6vectorIcSaIcEEEENS0_5__ops14_Val_less_iterEEvT_T0_
FN:1820,_ZSt25__unguarded_linear_insertIN9__gnu_cxx17__normal_iteratorIPN5Catch8TestCaseESt6vectorIS3_SaIS3_EEEENS0_5__ops14_Val_less_iterEEvT_T0_
FNDA:0,_ZSt25__unguarded_linear_insertIN9__gnu_cxx17__normal_iteratorIPN5Catch8TestCaseESt6vectorIS3_SaIS3_EEEENS0_5__ops14_Val_less_iterEEvT_T0_
FN:1839,_ZSt16__insertion_sortIN9__gnu_cxx17__normal_iteratorIPcSt6vectorIcSaIcEEEENS0_5__ops15_Iter_less_iterEEvT_S9_T0_
FNDA:0,_ZSt16__insertion_sortIN9__gnu_cxx17__normal_iteratorIPcSt6vectorIcSaIcEEEENS0_5__ops15_Iter_less_iterEEvT_S9_T0_
FN:1839,_ZSt16__insertion_sortIN9__gnu_cxx17__normal_iteratorIPN5Catch8TestCaseESt6vectorIS3_SaIS3_EEEENS0_5__ops15_Iter_less_iterEEvT_SB_T0_
FNDA:0,_ZSt16__insertion_sortIN9__gnu_cxx17__normal_iteratorIPN5Catch8TestCaseESt6vectorIS3_SaIS3_EEEENS0_5__ops15_Iter_less_iterEEvT_SB_T0_
FN:1839,_ZSt16__insertion_sortIN9__gnu_cxx17__normal_iteratorIPNSt7__cxx1112basic_stringIcSt11char_traitsIcESaIcEEESt6vectorIS7_SaIS7_EEEENS0_5__ops15_Iter_less_iterEEvT_SF_T0_
FNDA:0,_ZSt16__insertion_sortIN9__gnu_cxx17__normal_iteratorIPNSt7__cxx1112basic_stringIcSt11char_traitsIcESaIcEEESt6vectorIS7_SaIS7_EEEENS0_5__ops15_Iter_less_iterEEvT_SF_T0_
FN:1862,_ZSt26__unguarded_insertion_sortIN9__gnu_cxx17__normal_iteratorIPNSt7__cxx1112basic_stringIcSt11char_traitsIcESaIcEEESt6vectorIS7_SaIS7_EEEENS0_5__ops15_Iter_less_iterEEvT_SF_T0_
FNDA:0,_ZSt26__unguarded_insertion_sortIN9__gnu_cxx17__normal_iteratorIPNSt7__cxx1112basic_stringIcSt11char_traitsIcESaIcEEESt6vectorIS7_SaIS7_EEEENS0_5__ops15_Iter_less_iterEEvT_SF_T0_
FN:1862,_ZSt26__unguarded_insertion_sortIN9__gnu_cxx17__normal_iteratorIPN5Catch8TestCaseESt6vectorIS3_SaIS3_EEEENS0_5__ops15_Iter_less_iterEEvT_SB_T0_
FNDA:0,_ZSt26__unguarded_insertion_sortIN9__gnu_cxx17__normal_iteratorIPN5Catch8TestCaseESt6vectorIS3_SaIS3_EEEENS0_5__ops15_Iter_less_iterEEvT_SB_T0_
FN:1862,_ZSt26__unguarded_insertion_sortIN9__gnu_cxx17__normal_iteratorIPcSt6vectorIcSaIcEEEENS0_5__ops15_Iter_less_iterEEvT_S9_T0_
FNDA:0,_ZSt26__unguarded_insertion_sortIN9__gnu_cxx17__normal_iteratorIPcSt6vectorIcSaIcEEEENS0_5__ops15_Iter_less_iterEEvT_S9_T0_
FN:1879,_ZSt22__final_insertion_sortIN9__gnu_cxx17__normal_iteratorIPN5Catch8TestCaseESt6vectorIS3_SaIS3_EEEENS0_5__ops15_Iter_less_iterEEvT_SB_T0_
FNDA:0,_ZSt22__final_insertion_sortIN9__gnu_cxx17__normal_iteratorIPN5Catch8TestCaseESt6vectorIS3_SaIS3_EEEENS0_5__ops15_Iter_less_iterEEvT_SB_T0_
FN:1879,_ZSt22__final_insertion_sortIN9__gnu_cxx17__normal_iteratorIPNSt7__cxx1112basic_stringIcSt11char_traitsIcESaIcEEESt6vectorIS7_SaIS7_EEEENS0_5__ops15_Iter_less_iterEEvT_SF_T0_
FNDA:0,_ZSt22__final_insertion_sortIN9__gnu_cxx17__normal_iteratorIPNSt7__cxx1112basic_stringIcSt11char_traitsIcESaIcEEESt6vectorIS7_SaIS7_EEEENS0_5__ops15_Iter_less_iterEEvT_SF_T0_
FN:1879,_ZSt22__final_insertion_sortIN9__gnu_cxx17__normal_iteratorIPcSt6vectorIcSaIcEEEENS0_5__ops15_Iter_less_iterEEvT_S9_T0_
FNDA:0,_ZSt22__final_insertion_sortIN9__gnu_cxx17__normal_iteratorIPcSt6vectorIcSaIcEEEENS0_5__ops15_Iter_less_iterEEvT_S9_T0_
FN:1895,_ZSt21__unguarded_partitionIN9__gnu_cxx17__normal_iteratorIPcSt6vectorIcSaIcEEEENS0_5__ops15_Iter_less_iterEET_S9_S9_S9_T0_
FNDA:0,_ZSt21__unguarded_partitionIN9__gnu_cxx17__normal_iteratorIPcSt6vectorIcSaIcEEEENS0_5__ops15_Iter_less_iterEET_S9_S9_S9_T0_
FN:1895,_ZSt21__unguarded_partitionIN9__gnu_cxx17__normal_iteratorIPNSt7__cxx1112basic_stringIcSt11char_traitsIcESaIcEEESt6vectorIS7_SaIS7_EEEENS0_5__ops15_Iter_less_iterEET_SF_SF_SF_T0_
FNDA:0,_ZSt21__unguarded_partitionIN9__gnu_cxx17__normal_iteratorIPNSt7__cxx1112basic_stringIcSt11char_traitsIcESaIcEEESt6vectorIS7_SaIS7_EEEENS0_5__ops15_Iter_less_iterEET_SF_SF_SF_T0_
FN:1895,_ZSt21__unguarded_partitionIN9__gnu_cxx17__normal_iteratorIPN5Catch8TestCaseESt6vectorIS3_SaIS3_EEEENS0_5__ops15_Iter_less_iterEET_SB_SB_SB_T0_
FNDA:0,_ZSt21__unguarded_partitionIN9__gnu_cxx17__normal_iteratorIPN5Catch8TestCaseESt6vectorIS3_SaIS3_EEEENS0_5__ops15_Iter_less_iterEET_SB_SB_SB_T0_
FN:1916,_ZSt27__unguarded_partition_pivotIN9__gnu_cxx17__normal_iteratorIPN5Catch8TestCaseESt6vectorIS3_SaIS3_EEEENS0_5__ops15_Iter_less_iterEET_SB_SB_T0_
FNDA:0,_ZSt27__unguarded_partition_pivotIN9__gnu_cxx17__normal_iteratorIPN5Catch8TestCaseESt6vectorIS3_SaIS3_EEEENS0_5__ops15_Iter_less_iterEET_SB_SB_T0_
FN:1916,_ZSt27__unguarded_partition_pivotIN9__gnu_cxx17__normal_iteratorIPNSt7__cxx1112basic_stringIcSt11char_traitsIcESaIcEEESt6vectorIS7_SaIS7_EEEENS0_5__ops15_Iter_less_iterEET_SF_SF_T0_
FNDA:0,_ZSt27__unguarded_partition_pivotIN9__gnu_cxx17__normal_iteratorIPNSt7__cxx1112basic_stringIcSt11char_traitsIcESaIcEEESt6vectorIS7_SaIS7_EEEENS0_5__ops15_Iter_less_iterEET_SF_SF_T0_
FN:1916,_ZSt27__unguarded_partition_pivotIN9__gnu_cxx17__normal_iteratorIPcSt6vectorIcSaIcEEEENS0_5__ops15_Iter_less_iterEET_S9_S9_T0_
FNDA:0,_ZSt27__unguarded_partition_pivotIN9__gnu_cxx17__normal_iteratorIPcSt6vectorIcSaIcEEEENS0_5__ops15_Iter_less_iterEET_S9_S9_T0_
FN:1927,_ZSt14__partial_sortIN9__gnu_cxx17__normal_iteratorIPcSt6vectorIcSaIcEEEENS0_5__ops15_Iter_less_iterEEvT_S9_S9_T0_
FNDA:0,_ZSt14__partial_sortIN9__gnu_cxx17__normal_iteratorIPcSt6vectorIcSaIcEEEENS0_5__ops15_Iter_less_iterEEvT_S9_S9_T0_
FN:1927,_ZSt14__partial_sortIN9__gnu_cxx17__normal_iteratorIPN5Catch8TestCaseESt6vectorIS3_SaIS3_EEEENS0_5__ops15_Iter_less_iterEEvT_SB_SB_T0_
FNDA:0,_ZSt14__partial_sortIN9__gnu_cxx17__normal_iteratorIPN5Catch8TestCaseESt6vectorIS3_SaIS3_EEEENS0_5__ops15_Iter_less_iterEEvT_SB_SB_T0_
FN:1927,_ZSt14__partial_sortIN9__gnu_cxx17__normal_iteratorIPNSt7__cxx1112basic_stringIcSt11char_traitsIcESaIcEEESt6vectorIS7_SaIS7_EEEENS0_5__ops15_Iter_less_iterEEvT_SF_SF_T0_
FNDA:0,_ZSt14__partial_sortIN9__gnu_cxx17__normal_iteratorIPNSt7__cxx1112basic_stringIcSt11char_traitsIcESaIcEEESt6vectorIS7_SaIS7_EEEENS0_5__ops15_Iter_less_iterEEvT_SF_SF_T0_
FN:1939,_ZSt16__introsort_loopIN9__gnu_cxx17__normal_iteratorIPNSt7__cxx1112basic_stringIcSt11char_traitsIcESaIcEEESt6vectorIS7_SaIS7_EEEElNS0_5__ops15_Iter_less_iterEEvT_SF_T0_T1_
FNDA:0,_ZSt16__introsort_loopIN9__gnu_cxx17__normal_iteratorIPNSt7__cxx1112basic_stringIcSt11char_traitsIcESaIcEEESt6vectorIS7_SaIS7_EEEElNS0_5__ops15_Iter_less_iterEEvT_SF_T0_T1_
FN:1939,_ZSt16__introsort_loopIN9__gnu_cxx17__normal_iteratorIPN5Catch8TestCaseESt6vectorIS3_SaIS3_EEEElNS0_5__ops15_Iter_less_iterEEvT_SB_T0_T1_
FNDA:0,_ZSt16__introsort_loopIN9__gnu_cxx17__normal_iteratorIPN5Catch8TestCaseESt6vectorIS3_SaIS3_EEEElNS0_5__ops15_Iter_less_iterEEvT_SB_T0_T1_
FN:1939,_ZSt16__introsort_loopIN9__gnu_cxx17__normal_iteratorIPcSt6vectorIcSaIcEEEElNS0_5__ops15_Iter_less_iterEEvT_S9_T0_T1_
FNDA:0,_ZSt16__introsort_loopIN9__gnu_cxx17__normal_iteratorIPcSt6vectorIcSaIcEEEElNS0_5__ops15_Iter_less_iterEEvT_S9_T0_T1_
FN:1962,_ZSt6__sortIN9__gnu_cxx17__normal_iteratorIPcSt6vectorIcSaIcEEEENS0_5__ops15_Iter_less_iterEEvT_S9_T0_
FNDA:0,_ZSt6__sortIN9__gnu_cxx17__normal_iteratorIPcSt6vectorIcSaIcEEEENS0_5__ops15_Iter_less_iterEEvT_S9_T0_
FN:1962,_ZSt6__sortIN9__gnu_cxx17__normal_iteratorIPN5Catch8TestCaseESt6vectorIS3_SaIS3_EEEENS0_5__ops15_Iter_less_iterEEvT_SB_T0_
FNDA:0,_ZSt6__sortIN9__gnu_cxx17__normal_iteratorIPN5Catch8TestCaseESt6vectorIS3_SaIS3_EEEENS0_5__ops15_Iter_less_iterEEvT_SB_T0_
FN:1962,_ZSt6__sortIN9__gnu_cxx17__normal_iteratorIPNSt7__cxx1112basic_stringIcSt11char_traitsIcESaIcEEESt6vectorIS7_SaIS7_EEEENS0_5__ops15_Iter_less_iterEEvT_SF_T0_
FNDA:2,_ZSt6__sortIN9__gnu_cxx17__normal_iteratorIPNSt7__cxx1112basic_stringIcSt11char_traitsIcESaIcEEESt6vectorIS7_SaIS7_EEEENS0_5__ops15_Iter_less_iterEEvT_SF_T0_
FN:2246,_ZSt13binary_searchIN9__gnu_cxx17__normal_iteratorIPKcSt6vectorIcSaIcEEEEcEbT_S8_RKT0_
FNDA:0,_ZSt13binary_searchIN9__gnu_cxx17__normal_iteratorIPKcSt6vectorIcSaIcEEEEcEbT_S8_RKT0_
FN:3763,_ZSt22__gen_two_uniform_intsImRSt23mersenne_twister_engineImLm32ELm624ELm397ELm31ELm2567483615ELm11ELm4294967295ELm7ELm2636928640ELm15ELm4022730752ELm18ELm1812433253EEESt4pairIT_S4_ES4_S4_OT0_
FNDA:0,_ZSt22__gen_two_uniform_intsImRSt23mersenne_twister_engineImLm32ELm624ELm397ELm31ELm2567483615ELm11ELm4294967295ELm7ELm2636928640ELm15ELm4022730752ELm18ELm1812433253EEESt4pairIT_S4_ES4_S4_OT0_
FN:3786,_ZSt7shuffleIN9__gnu_cxx17__normal_iteratorIPN5Catch8TestCaseESt6vectorIS3_SaIS3_EEEERSt23mersenne_twister_engineImLm32ELm624ELm397ELm31ELm2567483615ELm11ELm4294967295ELm7ELm2636928640ELm15ELm4022730752ELm18ELm1812433253EEEvT_SC_OT0_
FNDA:0,_ZSt7shuffleIN9__gnu_cxx17__normal_iteratorIPN5Catch8TestCaseESt6vectorIS3_SaIS3_EEEERSt23mersenne_twister_engineImLm32ELm624ELm397ELm31ELm2567483615ELm11ELm4294967295ELm7ELm2636928640ELm15ELm4022730752ELm18ELm1812433253EEEvT_SC_OT0_
FN:3924,_ZSt4findIN9__gnu_cxx17__normal_iteratorIPKNSt7__cxx1112basic_stringIcSt11char_traitsIcESaIcEEESt6vectorIS7_SaIS7_EEEES7_ET_SE_SE_RKT0_
FNDA:2,_ZSt4findIN9__gnu_cxx17__normal_iteratorIPKNSt7__cxx1112basic_stringIcSt11char_traitsIcESaIcEEESt6vectorIS7_SaIS7_EEEES7_ET_SE_SE_RKT0_
FN:3948,_ZSt7find_ifIN9__gnu_cxx17__normal_iteratorIPKNSt7__cxx1112basic_stringIcSt11char_traitsIcESaIcEEESt6vectorIS7_SaIS7_EEEEZN5Catch12_GLOBAL__N_111fileNameTagERKSC_EUlRS8_E_ET_SK_SK_T0_
FNDA:0,_ZSt7find_ifIN9__gnu_cxx17__normal_iteratorIPKNSt7__cxx1112basic_stringIcSt11char_traitsIcESaIcEEESt6vectorIS7_SaIS7_EEEEZN5Catch12_GLOBAL__N_111fileNameTagERKSC_EUlRS8_E_ET_SK_SK_T0_
FN:3948,_ZSt7find_ifIN9__gnu_cxx17__normal_iteratorIPSt10shared_ptrIN5Catch22CumulativeReporterBaseINS3_13JunitReporterEE11SectionNodeEESt6vectorIS8_SaIS8_EEEENS6_13BySectionInfoEET_SF_SF_T0_
FNDA:0,_ZSt7find_ifIN9__gnu_cxx17__normal_iteratorIPSt10shared_ptrIN5Catch22CumulativeReporterBaseINS3_13JunitReporterEE11SectionNodeEESt6vectorIS8_SaIS8_EEEENS6_13BySectionInfoEET_SF_SF_T0_
FN:3948,_ZSt7find_ifIN9__gnu_cxx17__normal_iteratorIPSt10shared_ptrIN5Catch16TestCaseTracking8ITrackerEESt6vectorIS6_SaIS6_EEEEZNS4_11TrackerBase9findChildERKNS4_15NameAndLocationEEUlRKS6_E_ET_SJ_SJ_T0_
FNDA:212,_ZSt7find_ifIN9__gnu_cxx17__normal_iteratorIPSt10shared_ptrIN5Catch16TestCaseTracking8ITrackerEESt6vectorIS6_SaIS6_EEEEZNS4_11TrackerBase9findChildERKNS4_15NameAndLocationEEUlRKS6_E_ET_SJ_SJ_T0_
FN:4320,_ZSt9transformIN9__gnu_cxx17__normal_iteratorIPcNSt7__cxx1112basic_stringIcSt11char_traitsIcESaIcEEEEES9_PFccEET0_T_SD_SC_T1_
FNDA:1,_ZSt9transformIN9__gnu_cxx17__normal_iteratorIPcNSt7__cxx1112basic_stringIcSt11char_traitsIcESaIcEEEEES9_PFccEET0_T_SD_SC_T1_
FN:4320,_ZSt9transformIN9__gnu_cxx17__normal_iteratorIPcNSt7__cxx1112basic_stringIcSt11char_traitsIcESaIcEEEEES9_ZN5Catch5clara6detail11convertIntoERKS8_RbEUlcE_ET0_T_SI_SH_T1_
FNDA:0,_ZSt9transformIN9__gnu_cxx17__normal_iteratorIPcNSt7__cxx1112basic_stringIcSt11char_traitsIcESaIcEEEEES9_ZN5Catch5clara6detail11convertIntoERKS8_RbEUlcE_ET0_T_SI_SH_T1_
FN:4851,_ZSt4sortIN9__gnu_cxx17__normal_iteratorIPN5Catch8TestCaseESt6vectorIS3_SaIS3_EEEEEvT_S9_
FNDA:0,_ZSt4sortIN9__gnu_cxx17__normal_iteratorIPN5Catch8TestCaseESt6vectorIS3_SaIS3_EEEEEvT_S9_
FN:4851,_ZSt4sortIN9__gnu_cxx17__normal_iteratorIPNSt7__cxx1112basic_stringIcSt11char_traitsIcESaIcEEESt6vectorIS7_SaIS7_EEEEEvT_SD_
FNDA:2,_ZSt4sortIN9__gnu_cxx17__normal_iteratorIPNSt7__cxx1112basic_stringIcSt11char_traitsIcESaIcEEESt6vectorIS7_SaIS7_EEEEEvT_SD_
FN:4851,_ZSt4sortIN9__gnu_cxx17__normal_iteratorIPcSt6vectorIcSaIcEEEEEvT_S7_
FNDA:0,_ZSt4sortIN9__gnu_cxx17__normal_iteratorIPcSt6vectorIcSaIcEEEEEvT_S7_
DA:78,0
DA:81,0
DA:83,0
DA:84,0
DA:85,0
DA:86,0
DA:88,0
DA:90,0
DA:91,0
DA:92,0
DA:93,0
DA:95,0
DA:96,0
DA:78,0
DA:81,0
DA:83,0
DA:84,0
DA:85,0
DA:86,0
DA:88,0
DA:90,0
DA:91,0
DA:92,0
DA:93,0
DA:95,0
DA:96,0
DA:78,0
DA:81,0
DA:83,0
DA:84,0
DA:85,0
DA:86,0
DA:88,0
DA:90,0
DA:91,0
DA:92,0
DA:93,0
DA:95,0
DA:96,0
DA:112,0
DA:116,0
DA:118,0
DA:120,0
DA:121,0
DA:122,0
DA:124,0
DA:125,0
DA:126,0
DA:128,0
DA:129,0
DA:130,0
DA:132,0
DA:133,0
DA:134,0
DA:137,0
DA:139,0
DA:140,0
DA:141,0
DA:142,0
DA:143,0
DA:144,0
DA:145,0
DA:146,0
DA:147,0
DA:148,0
DA:149,0
DA:150,0
DA:151,0
DA:153,0
DA:112,0
DA:116,0
DA:118,0
DA:120,0
DA:121,0
DA:122,0
DA:124,0
DA:125,0
DA:126,0
DA:128,0
DA:129,0
DA:130,0
DA:132,0
DA:133,0
DA:134,0
DA:137,0
DA:139,0
DA:140,0
DA:141,0
DA:142,0
DA:143,0
DA:144,0
DA:145,0
DA:146,0
DA:147,0
DA:148,0
DA:149,0
DA:150,0
DA:151,0
DA:153,0
DA:112,0
DA:116,0
DA:118,0
DA:120,0
DA:121,0
DA:122,0
DA:124,0
DA:125,0
DA:126,0
DA:128,0
DA:129,0
DA:130,0
DA:132,0
DA:133,0
DA:134,0
DA:137,0
DA:139,0
DA:140,0
DA:141,0
DA:142,0
DA:143,0
DA:144,0
DA:145,0
DA:146,0
DA:147,0
DA:148,0
DA:149,0
DA:150,0
DA:151,0
DA:153,0
DA:112,2
DA:116,2
DA:118,2
DA:120,0
DA:121,0
DA:122,0
DA:124,0
DA:125,0
DA:126,0
DA:128,0
DA:129,0
DA:130,0
DA:132,0
DA:133,0
DA:134,0
DA:137,2
DA:139,0
DA:140,0
DA:141,0
DA:142,0
DA:143,0
DA:144,0
DA:145,0
DA:146,0
DA:147,0
DA:148,0
DA:149,0
DA:150,0
DA:151,2
DA:153,2
DA:112,212
DA:116,212
DA:118,422
DA:120,366
DA:121,39
DA:122,327
DA:124,327
DA:125,39
DA:126,288
DA:128,288
DA:129,39
DA:130,249
DA:132,249
DA:133,39
DA:134,210
DA:137,56
DA:139,9
DA:140,9
DA:141,2
DA:142,7
DA:143,13
DA:144,13
DA:145,3
DA:146,10
DA:147,43
DA:148,43
DA:149,31
DA:150,12
DA:151,20
DA:153,20
DA:159,0
DA:161,0
DA:162,0
DA:159,0
DA:161,0
DA:162,0
DA:159,0
DA:161,0
DA:162,0
DA:159,2
DA:161,2
DA:162,4
DA:159,212
DA:161,212
DA:162,424
DA:860,0
DA:863,0
DA:864,0
DA:865,0
DA:866,0
DA:867,0
DA:868,0
DA:869,0
DA:871,0
DA:872,0
DA:874,0
DA:896,0
DA:906,0
DA:907,0
DA:945,0
DA:948,0
DA:949,0
DA:950,0
DA:951,0
DA:953,0
DA:954,0
DA:955,0
DA:957,0
DA:945,2
DA:948,2
DA:949,2
DA:950,0
DA:951,0
DA:953,0
DA:954,0
DA:955,0
DA:957,0
DA:962,0
DA:966,0
DA:967,0
DA:968,0
DA:971,0
DA:972,0
DA:973,0
DA:974,0
DA:975,0
DA:976,0
DA:962,2
DA:966,2
DA:967,2
DA:968,2
DA:971,0
DA:972,0
DA:973,0
DA:974,0
DA:975,0
DA:976,0
DA:995,0
DA:1004,0
DA:1005,0
DA:995,2
DA:1004,2
DA:1005,4
DA:1667,0
DA:1671,0
DA:1672,0
DA:1673,0
DA:1674,0
DA:1675,0
DA:1667,0
DA:1671,0
DA:1672,0
DA:1673,0
DA:1674,0
DA:1675,0
DA:1667,0
DA:1671,0
DA:1672,0
DA:1673,0
DA:1674,0
DA:1675,0
DA:1820,0
DA:1824,0
DA:1825,0
DA:1826,0
DA:1827,0
DA:1829,0
DA:1830,0
DA:1831,0
DA:1833,0
DA:1834,0
DA:1820,0
DA:1824,0
DA:1825,0
DA:1826,0
DA:1827,0
DA:1829,0
DA:1830,0
DA:1831,0
DA:1833,0
DA:1834,0
DA:1820,0
DA:1824,0
DA:1825,0
DA:1826,0
DA:1827,0
DA:1829,0
DA:1830,0
DA:1831,0
DA:1833,0
DA:1834,0
DA:1839,0
DA:1842,0
DA:1844,0
DA:1846,0
DA:1849,0
DA:1850,0
DA:1851,0
DA:1854,0
DA:1855,0
DA:1839,0
DA:1842,0
DA:1844,0
DA:1846,0
DA:1849,0
DA:1850,0
DA:1851,0
DA:1854,0
DA:1855,0
DA:1839,0
DA:1842,0
DA:1844,0
DA:1846,0
DA:1849,0
DA:1850,0
DA:1851,0
DA:1854,0
DA:1855,0
DA:1862,0
DA:1865,0
DA:1866,0
DA:1867,0
DA:1868,0
DA:1862,0
DA:1865,0
DA:1866,0
DA:1867,0
DA:1868,0
DA:1862,0
DA:1865,0
DA:1866,0
DA:1867,0
DA:1868,0
DA:1879,0
DA:1882,0
DA:1884,0
DA:1885,0
DA:1889,0
DA:1890,0
DA:1879,0
DA:1882,0
DA:1884,0
DA:1885,0
DA:1889,0
DA:1890,0
DA:1879,0
DA:1882,0
DA:1884,0
DA:1885,0
DA:1889,0
DA:1890,0
DA:1895,0
DA:1901,0
DA:1902,0
DA:1903,0
DA:1904,0
DA:1905,0
DA:1906,0
DA:1907,0
DA:1908,0
DA:1909,0
DA:1895,0
DA:1901,0
DA:1902,0
DA:1903,0
DA:1904,0
DA:1905,0
DA:1906,0
DA:1907,0
DA:1908,0
DA:1909,0
DA:1895,0
DA:1901,0
DA:1902,0
DA:1903,0
DA:1904,0
DA:1905,0
DA:1906,0
DA:1907,0
DA:1908,0
DA:1909,0
DA:1916,0
DA:1919,0
DA:1920,0
DA:1922,0
DA:1916,0
DA:1919,0
DA:1920,0
DA:1922,0
DA:1916,0
DA:1919,0
DA:1920,0
DA:1922,0
DA:1927,0
DA:1932,0
DA:1933,0
DA:1934,0
DA:1927,0
DA:1932,0
DA:1933,0
DA:1934,0
DA:1927,0
DA:1932,0
DA:1933,0
DA:1934,0
DA:1939,0
DA:1943,0
DA:1945,0
DA:1947,0
DA:1948,0
DA:1950,0
DA:1952,0
DA:1953,0
DA:1954,0
DA:1939,0
DA:1943,0
DA:1945,0
DA:1947,0
DA:1948,0
DA:1950,0
DA:1952,0
DA:1953,0
DA:1954,0
DA:1939,0
DA:1943,0
DA:1945,0
DA:1947,0
DA:1948,0
DA:1950,0
DA:1952,0
DA:1953,0
DA:1954,0
DA:1962,0
DA:1965,0
DA:1967,0
DA:1968,0
DA:1970,0
DA:1972,0
DA:1962,0
DA:1965,0
DA:1967,0
DA:1968,0
DA:1970,0
DA:1972,0
DA:1962,2
DA:1965,2
DA:1967,0
DA:1968,0
DA:1970,0
DA:1972,2
DA:2246,0
DA:2257,0
DA:2258,0
DA:2259,0
DA:3763,0
DA:3767,0
DA:3768,0
DA:3786,0
DA:3794,0
DA:3795,0
DA:3809,0
DA:3810,0
DA:3812,0
DA:3815,0
DA:3821,0
DA:3823,0
DA:3824,0
DA:3831,0
DA:3833,0
DA:3836,0
DA:3838,0
DA:3839,0
DA:3842,0
DA:3845,0
DA:3847,0
DA:3848,0
DA:3924,2
DA:3932,2
DA:3933,2
DA:3948,0
DA:3957,0
DA:3958,0
DA:3948,0
DA:3957,0
DA:3958,0
DA:3948,212
DA:3957,212
DA:3958,212
DA:4320,2
DA:4330,2
DA:4331,1
DA:4332,1
DA:4320,0
DA:4330,0
DA:4331,0
DA:4332,0
DA:4851,0
DA:4861,0
DA:4862,0
DA:4851,0
DA:4861,0
DA:4862,0
DA:4851,2
DA:4861,2
DA:4862,2
end_of_record
SF:/usr/include/c++/9/bits/move.h
FN:47,_ZSt11__addressofINSt8__detail6_StateIcEEEPT_RS3_
FNDA:0,_ZSt11__addressofINSt8__detail6_StateIcEEEPT_RS3_
FN:47,_ZSt11__addressofISaISt23_Sp_counted_ptr_inplaceIN5Catch17ReporterRegistrarINS1_11XmlReporterEE15ReporterFactoryESaIS5_ELN9__gnu_cxx12_Lock_policyE2EEEEPT_RSB_
FNDA:2,_ZSt11__addressofISaISt23_Sp_counted_ptr_inplaceIN5Catch17ReporterRegistrarINS1_11XmlReporterEE15ReporterFactoryESaIS5_ELN9__gnu_cxx12_Lock_policyE2EEEEPT_RSB_
FN:47,_ZSt11__addressofISaISt23_Sp_counted_ptr_inplaceIN5Catch5clara6detail13BoundValueRefISt6vectorINSt7__cxx1112basic_stringIcSt11char_traitsIcESaIcEEESaISB_EEEESaISE_ELN9__gnu_cxx12_Lock_policyE2EEEEPT_RSK_
FNDA:4,_ZSt11__addressofISaISt23_Sp_counted_ptr_inplaceIN5Catch5clara6detail13BoundValueRefISt6vectorINSt7__cxx1112basic_stringIcSt11char_traitsIcESaIcEEESaISB_EEEESaISE_ELN9__gnu_cxx12_Lock_policyE2EEEEPT_RSK_
FN:47,_ZSt11__addressofISaISt23_Sp_counted_ptr_inplaceIN5Catch5clara6detail15BoundFlagLambdaIZNS1_21makeCommandLineParserERNS1_10ConfigDataEEUlbE7_EESaIS8_ELN9__gnu_cxx12_Lock_policyE2EEEEPT_RSE_
FNDA:2,_ZSt11__addressofISaISt23_Sp_counted_ptr_inplaceIN5Catch5clara6detail15BoundFlagLambdaIZNS1_21makeCommandLineParserERNS1_10ConfigDataEEUlbE7_EESaIS8_ELN9__gnu_cxx12_Lock_policyE2EEEEPT_RSE_
FN:47,_ZSt11__addressofISaISt23_Sp_counted_ptr_inplaceINSt8__detail4_NFAINSt7__cxx1112regex_traitsIcEEEESaIS6_ELN9__gnu_cxx12_Lock_policyE2EEEEPT_RSC_
FNDA:0,_ZSt11__addressofISaISt23_Sp_counted_ptr_inplaceINSt8__detail4_NFAINSt7__cxx1112regex_traitsIcEEEESaIS6_ELN9__gnu_cxx12_Lock_policyE2EEEEPT_RSC_
FN:47,_ZSt11__addressofISaISt23_Sp_counted_ptr_inplaceIN5Catch5clara6detail11BoundLambdaIZNS1_21makeCommandLineParserERNS1_10ConfigDataEEUlRKNSt7__cxx1112basic_stringIcSt11char_traitsIcESaIcEEEE6_EESaISG_ELN9__gnu_cxx12_Lock_policyE2EEEEPT_RSM_
FNDA:2,_ZSt11__addressofISaISt23_Sp_counted_ptr_inplaceIN5Catch5clara6detail11BoundLambdaIZNS1_21makeCommandLineParserERNS1_10ConfigDataEEUlRKNSt7__cxx1112basic_stringIcSt11char_traitsIcESaIcEEEE6_EESaISG_ELN9__gnu_cxx12_Lock_policyE2EEEEPT_RSM_
FN:47,_ZSt11__addressofISaISt23_Sp_counted_ptr_inplaceIN5Catch5clara6detail11BoundLambdaIZNS1_21makeCommandLineParserERNS1_10ConfigDataEEUliE8_EESaIS8_ELN9__gnu_cxx12_Lock_policyE2EEEEPT_RSE_
FNDA:2,_ZSt11__addressofISaISt23_Sp_counted_ptr_inplaceIN5Catch5clara6detail11BoundLambdaIZNS1_21makeCommandLineParserERNS1_10ConfigDataEEUliE8_EESaIS8_ELN9__gnu_cxx12_Lock_policyE2EEEEPT_RSE_
FN:47,_ZSt11__addressofIN5Catch11MessageInfoEEPT_RS2_
FNDA:0,_ZSt11__addressofIN5Catch11MessageInfoEEPT_RS2_
FN:47,_ZSt11__addressofIN5Catch8TestCaseEEPT_RS2_
FNDA:9,_ZSt11__addressofIN5Catch8TestCaseEEPT_RS2_
FN:47,_ZSt11__addressofISaISt23_Sp_counted_ptr_inplaceIN5Catch5clara6detail15BoundFlagLambdaIZNS3_4HelpC4ERbEUlbE_EESaIS8_ELN9__gnu_cxx12_Lock_policyE2EEEEPT_RSE_
FNDA:2,_ZSt11__addressofISaISt23_Sp_counted_ptr_inplaceIN5Catch5clara6detail15BoundFlagLambdaIZNS3_4HelpC4ERbEUlbE_EESaIS8_ELN9__gnu_cxx12_Lock_policyE2EEEEPT_RSE_
FN:47,_ZSt11__addressofISaISt23_Sp_counted_ptr_inplaceIN5Catch5clara6detail11BoundLambdaIZNS1_21makeCommandLineParserERNS1_10ConfigDataEEUlRKNSt7__cxx1112basic_stringIcSt11char_traitsIcESaIcEEEE_EESaISG_ELN9__gnu_cxx12_Lock_policyE2EEEEPT_RSM_
FNDA:2,_ZSt11__addressofISaISt23_Sp_counted_ptr_inplaceIN5Catch5clara6detail11BoundLambdaIZNS1_21makeCommandLineParserERNS1_10ConfigDataEEUlRKNSt7__cxx1112basic_stringIcSt11char_traitsIcESaIcEEEE_EESaISG_ELN9__gnu_cxx12_Lock_policyE2EEEEPT_RSM_
FN:47,_ZSt11__addressofISt4pairIlSt6vectorINSt7__cxx119sub_matchIN9__gnu_cxx17__normal_iteratorIPKcNS2_12basic_stringIcSt11char_traitsIcESaIcEEEEEEESaISE_EEEEPT_RSI_
FNDA:0,_ZSt11__addressofISt4pairIlSt6vectorINSt7__cxx119sub_matchIN9__gnu_cxx17__normal_iteratorIPKcNS2_12basic_stringIcSt11char_traitsIcESaIcEEEEEEESaISE_EEEEPT_RSI_
FN:47,_ZSt11__addressofIKNSt8__detail11_AnyMatcherINSt7__cxx1112regex_traitsIcEELb0ELb0ELb0EEEEPT_RS7_
FNDA:0,_ZSt11__addressofIKNSt8__detail11_AnyMatcherINSt7__cxx1112regex_traitsIcEELb0ELb0ELb0EEEEPT_RS7_
FN:47,_ZSt11__addressofIKNSt8__detail11_AnyMatcherINSt7__cxx1112regex_traitsIcEELb0ELb0ELb1EEEEPT_RS7_
FNDA:0,_ZSt11__addressofIKNSt8__detail11_AnyMatcherINSt7__cxx1112regex_traitsIcEELb0ELb0ELb1EEEEPT_RS7_
FN:47,_ZSt11__addressofIKNSt8__detail11_AnyMatcherINSt7__cxx1112regex_traitsIcEELb0ELb1ELb0EEEEPT_RS7_
FNDA:0,_ZSt11__addressofIKNSt8__detail11_AnyMatcherINSt7__cxx1112regex_traitsIcEELb0ELb1ELb0EEEEPT_RS7_
FN:47,_ZSt11__addressofIKNSt8__detail11_AnyMatcherINSt7__cxx1112regex_traitsIcEELb0ELb1ELb1EEEEPT_RS7_
FNDA:0,_ZSt11__addressofIKNSt8__detail11_AnyMatcherINSt7__cxx1112regex_traitsIcEELb0ELb1ELb1EEEEPT_RS7_
FN:47,_ZSt11__addressofIKNSt8__detail11_AnyMatcherINSt7__cxx1112regex_traitsIcEELb1ELb0ELb0EEEEPT_RS7_
FNDA:0,_ZSt11__addressofIKNSt8__detail11_AnyMatcherINSt7__cxx1112regex_traitsIcEELb1ELb0ELb0EEEEPT_RS7_
FN:47,_ZSt11__addressofIKNSt8__detail11_AnyMatcherINSt7__cxx1112regex_traitsIcEELb1ELb0ELb1EEEEPT_RS7_
FNDA:0,_ZSt11__addressofIKNSt8__detail11_AnyMatcherINSt7__cxx1112regex_traitsIcEELb1ELb0ELb1EEEEPT_RS7_
FN:47,_ZSt11__addressofIKNSt8__detail11_AnyMatcherINSt7__cxx1112regex_traitsIcEELb1ELb1ELb0EEEEPT_RS7_
FNDA:0,_ZSt11__addressofIKNSt8__detail11_AnyMatcherINSt7__cxx1112regex_traitsIcEELb1ELb1ELb0EEEEPT_RS7_
FN:47,_ZSt11__addressofIKNSt8__detail11_AnyMatcherINSt7__cxx1112regex_traitsIcEELb1ELb1ELb1EEEEPT_RS7_
FNDA:0,_ZSt11__addressofIKNSt8__detail11_AnyMatcherINSt7__cxx1112regex_traitsIcEELb1ELb1ELb1EEEEPT_RS7_
FN:47,_ZSt11__addressofIKNSt8__detail12_CharMatcherINSt7__cxx1112regex_traitsIcEELb0ELb0EEEEPT_RS7_
FNDA:0,_ZSt11__addressofIKNSt8__detail12_CharMatcherINSt7__cxx1112regex_traitsIcEELb0ELb0EEEEPT_RS7_
FN:47,_ZSt11__addressofIN5Catch5clara6detail5TokenEEPT_RS4_
FNDA:0,_ZSt11__addressofIN5Catch5clara6detail5TokenEEPT_RS4_
FN:47,_ZSt11__addressofISaISt23_Sp_counted_ptr_inplaceIN5Catch17ReporterRegistrarINS1_13JunitReporterEE15ReporterFactoryESaIS5_ELN9__gnu_cxx12_Lock_policyE2EEEEPT_RSB_
FNDA:2,_ZSt11__addressofISaISt23_Sp_counted_ptr_inplaceIN5Catch17ReporterRegistrarINS1_13JunitReporterEE15ReporterFactoryESaIS5_ELN9__gnu_cxx12_Lock_policyE2EEEEPT_RSB_
FN:47,_ZSt11__addressofISaISt23_Sp_counted_ptr_inplaceIN5Catch22CumulativeReporterBaseINS1_13JunitReporterEE4NodeINS1_14TestGroupStatsENS5_INS1_13TestCaseStatsENS4_11SectionNodeEEEEESaISA_ELN9__gnu_cxx12_Lock_policyE2EEEEPT_RSG_
FNDA:0,_ZSt11__addressofISaISt23_Sp_counted_ptr_inplaceIN5Catch22CumulativeReporterBaseINS1_13JunitReporterEE4NodeINS1_14TestGroupStatsENS5_INS1_13TestCaseStatsENS4_11SectionNodeEEEEESaISA_ELN9__gnu_cxx12_Lock_policyE2EEEEPT_RSG_
FN:47,_ZSt11__addressofINSt7__cxx1112basic_stringIcSt11char_traitsIcESaIcEEEEPT_RS6_
FNDA:3053,_ZSt11__addressofINSt7__cxx1112basic_stringIcSt11char_traitsIcESaIcEEEEPT_RS6_
FN:47,_ZSt11__addressofIN5Catch5clara8TextFlow6Column8iteratorEEPT_RS5_
FNDA:0,_ZSt11__addressofIN5Catch5clara8TextFlow6Column8iteratorEEPT_RS5_
FN:47,_ZSt11__addressofINSt7__cxx119sub_matchIN9__gnu_cxx17__normal_iteratorIPKcNS0_12basic_stringIcSt11char_traitsIcESaIcEEEEEEEEPT_RSD_
FNDA:0,_ZSt11__addressofINSt7__cxx119sub_matchIN9__gnu_cxx17__normal_iteratorIPKcNS0_12basic_stringIcSt11char_traitsIcESaIcEEEEEEEEPT_RSD_
FN:47,_ZSt11__addressofISt4pairIN9__gnu_cxx17__normal_iteratorIPKcNSt7__cxx1112basic_stringIcSt11char_traitsIcESaIcEEEEEiEEPT_RSD_
FNDA:0,_ZSt11__addressofISt4pairIN9__gnu_cxx17__normal_iteratorIPKcNSt7__cxx1112basic_stringIcSt11char_traitsIcESaIcEEEEEiEEPT_RSD_
FN:47,_ZSt11__addressofISaISt23_Sp_counted_ptr_inplaceIN5Catch22CumulativeReporterBaseINS1_13JunitReporterEE4NodeINS1_13TestCaseStatsENS4_11SectionNodeEEESaIS8_ELN9__gnu_cxx12_Lock_policyE2EEEEPT_RSE_
FNDA:0,_ZSt11__addressofISaISt23_Sp_counted_ptr_inplaceIN5Catch22CumulativeReporterBaseINS1_13JunitReporterEE4NodeINS1_13TestCaseStatsENS4_11SectionNodeEEESaIS8_ELN9__gnu_cxx12_Lock_policyE2EEEEPT_RSE_
FN:47,_ZSt11__addressofISaISt23_Sp_counted_ptr_inplaceIN5Catch17ReporterRegistrarINS1_15ConsoleReporterEE15ReporterFactoryESaIS5_ELN9__gnu_cxx12_Lock_policyE2EEEEPT_RSB_
FNDA:2,_ZSt11__addressofISaISt23_Sp_counted_ptr_inplaceIN5Catch17ReporterRegistrarINS1_15ConsoleReporterEE15ReporterFactoryESaIS5_ELN9__gnu_cxx12_Lock_policyE2EEEEPT_RSB_
FN:47,_ZSt11__addressofIN5Catch5clara8TextFlow6ColumnEEPT_RS4_
FNDA:0,_ZSt11__addressofIN5Catch5clara8TextFlow6ColumnEEPT_RS4_
FN:47,_ZSt11__addressofISaISt23_Sp_counted_ptr_inplaceIN5Catch17ReporterRegistrarINS1_15CompactReporterEE15ReporterFactoryESaIS5_ELN9__gnu_cxx12_Lock_policyE2EEEEPT_RSB_
FNDA:2,_ZSt11__addressofISaISt23_Sp_counted_ptr_inplaceIN5Catch17ReporterRegistrarINS1_15CompactReporterEE15ReporterFactoryESaIS5_ELN9__gnu_cxx12_Lock_policyE2EEEEPT_RSB_
FN:47,_ZSt11__addressofIKNSt8__detail12_CharMatcherINSt7__cxx1112regex_traitsIcEELb0ELb1EEEEPT_RS7_
FNDA:0,_ZSt11__addressofIKNSt8__detail12_CharMatcherINSt7__cxx1112regex_traitsIcEELb0ELb1EEEEPT_RS7_
FN:47,_ZSt11__addressofISaISt23_Sp_counted_ptr_inplaceIN5Catch8TestSpec10TagPatternESaIS3_ELN9__gnu_cxx12_Lock_policyE2EEEEPT_RS9_
FNDA:2,_ZSt11__addressofISaISt23_Sp_counted_ptr_inplaceIN5Catch8TestSpec10TagPatternESaIS3_ELN9__gnu_cxx12_Lock_policyE2EEEEPT_RS9_
FN:47,_ZSt11__addressofIN5Catch5clara6detail11HelpColumnsEEPT_RS4_
FNDA:0,_ZSt11__addressofIN5Catch5clara6detail11HelpColumnsEEPT_RS4_
FN:47,_ZSt11__addressofISaISt23_Sp_counted_ptr_inplaceIN5Catch8TestSpec15ExcludedPatternESaIS3_ELN9__gnu_cxx12_Lock_policyE2EEEEPT_RS9_
FNDA:2,_ZSt11__addressofISaISt23_Sp_counted_ptr_inplaceIN5Catch8TestSpec15ExcludedPatternESaIS3_ELN9__gnu_cxx12_Lock_policyE2EEEEPT_RS9_
FN:47,_ZSt11__addressofISaISt23_Sp_counted_ptr_inplaceIN5Catch8TestSpec11NamePatternESaIS3_ELN9__gnu_cxx12_Lock_policyE2EEEEPT_RS9_
FNDA:0,_ZSt11__addressofISaISt23_Sp_counted_ptr_inplaceIN5Catch8TestSpec11NamePatternESaIS3_ELN9__gnu_cxx12_Lock_policyE2EEEEPT_RS9_
FN:47,_ZSt11__addressofIN5Catch5clara6detail3OptEEPT_RS4_
FNDA:2457,_ZSt11__addressofIN5Catch5clara6detail3OptEEPT_RS4_
FN:47,_ZSt11__addressofIN5Catch5clara6detail3ArgEEPT_RS4_
FNDA:3,_ZSt11__addressofIN5Catch5clara6detail3ArgEEPT_RS4_
FN:47,_ZSt11__addressofIN5Catch8TestSpec6FilterEEPT_RS3_
FNDA:5,_ZSt11__addressofIN5Catch8TestSpec6FilterEEPT_RS3_
FN:47,_ZSt11__addressofISt10shared_ptrIN5Catch8TestSpec7PatternEEEPT_RS5_
FNDA:7,_ZSt11__addressofISt10shared_ptrIN5Catch8TestSpec7PatternEEEPT_RS5_
FN:47,_ZSt11__addressofISt10unique_ptrIKN5Catch20IExceptionTranslatorESt14default_deleteIS3_EEEPT_RS7_
FNDA:0,_ZSt11__addressofISt10unique_ptrIKN5Catch20IExceptionTranslatorESt14default_deleteIS3_EEEPT_RS7_
FN:47,_ZSt11__addressofISaISt23_Sp_counted_ptr_inplaceINSt7__cxx1112basic_stringIcSt11char_traitsIcESaIcEEESaIS6_ELN9__gnu_cxx12_Lock_policyE2EEEEPT_RSC_
FNDA:6,_ZSt11__addressofISaISt23_Sp_counted_ptr_inplaceINSt7__cxx1112basic_stringIcSt11char_traitsIcESaIcEEESaIS6_ELN9__gnu_cxx12_Lock_policyE2EEEEPT_RSC_
FN:47,_ZSt11__addressofIN5Catch13SummaryColumnEEPT_RS2_
FNDA:0,_ZSt11__addressofIN5Catch13SummaryColumnEEPT_RS2_
FN:47,_ZSt11__addressofIN5Catch14AssertionStatsEEPT_RS2_
FNDA:0,_ZSt11__addressofIN5Catch14AssertionStatsEEPT_RS2_
FN:47,_ZSt11__addressofISt6vectorISt10shared_ptrIN5Catch22CumulativeReporterBaseINS2_13JunitReporterEE11SectionNodeEESaIS7_EEEPT_RSA_
FNDA:0,_ZSt11__addressofISt6vectorISt10shared_ptrIN5Catch22CumulativeReporterBaseINS2_13JunitReporterEE11SectionNodeEESaIS7_EEEPT_RSA_
FN:47,_ZSt11__addressofISt10shared_ptrIN5Catch22CumulativeReporterBaseINS1_13JunitReporterEE4NodeINS1_13TestCaseStatsENS4_11SectionNodeEEEEEPT_RSA_
FNDA:0,_ZSt11__addressofISt10shared_ptrIN5Catch22CumulativeReporterBaseINS1_13JunitReporterEE4NodeINS1_13TestCaseStatsENS4_11SectionNodeEEEEEPT_RSA_
FN:47,_ZSt11__addressofISt10shared_ptrIN5Catch22CumulativeReporterBaseINS1_13JunitReporterEE4NodeINS1_14TestGroupStatsENS5_INS1_13TestCaseStatsENS4_11SectionNodeEEEEEEEPT_RSC_
FNDA:0,_ZSt11__addressofISt10shared_ptrIN5Catch22CumulativeReporterBaseINS1_13JunitReporterEE4NodeINS1_14TestGroupStatsENS5_INS1_13TestCaseStatsENS4_11SectionNodeEEEEEEEPT_RSC_
FN:47,_ZSt11__addressofISt10shared_ptrIN5Catch22CumulativeReporterBaseINS1_13JunitReporterEE4NodeINS1_12TestRunStatsENS5_INS1_14TestGroupStatsENS5_INS1_13TestCaseStatsENS4_11SectionNodeEEEEEEEEEPT_RSE_
FNDA:0,_ZSt11__addressofISt10shared_ptrIN5Catch22CumulativeReporterBaseINS1_13JunitReporterEE4NodeINS1_12TestRunStatsENS5_INS1_14TestGroupStatsENS5_INS1_13TestCaseStatsENS4_11SectionNodeEEEEEEEEEPT_RSE_
FN:47,_ZSt11__addressofISt10shared_ptrIN5Catch22CumulativeReporterBaseINS1_13JunitReporterEE11SectionNodeEEEPT_RS7_
FNDA:0,_ZSt11__addressofISt10shared_ptrIN5Catch22CumulativeReporterBaseINS1_13JunitReporterEE11SectionNodeEEEPT_RS7_
FN:47,_ZSt11__addressofISaISt23_Sp_counted_ptr_inplaceIN5Catch5clara6detail12BoundFlagRefESaIS4_ELN9__gnu_cxx12_Lock_policyE2EEEEPT_RSA_
FNDA:20,_ZSt11__addressofISaISt23_Sp_counted_ptr_inplaceIN5Catch5clara6detail12BoundFlagRefESaIS4_ELN9__gnu_cxx12_Lock_policyE2EEEEPT_RSA_
FN:47,_ZSt11__addressofISaISt23_Sp_counted_ptr_inplaceIN5Catch5clara6detail13BoundValueRefINSt7__cxx1112basic_stringIcSt11char_traitsIcESaIcEEEEESaISB_ELN9__gnu_cxx12_Lock_policyE2EEEEPT_RSH_
FNDA:6,_ZSt11__addressofISaISt23_Sp_counted_ptr_inplaceIN5Catch5clara6detail13BoundValueRefINSt7__cxx1112basic_stringIcSt11char_traitsIcESaIcEEEEESaISB_ELN9__gnu_cxx12_Lock_policyE2EEEEPT_RSH_
FN:47,_ZSt11__addressofIKNSt8__detail12_CharMatcherINSt7__cxx1112regex_traitsIcEELb1ELb0EEEEPT_RS7_
FNDA:0,_ZSt11__addressofIKNSt8__detail12_CharMatcherINSt7__cxx1112regex_traitsIcEELb1ELb0EEEEPT_RS7_
FN:47,_ZSt11__addressofISt10unique_ptrIN5Catch18IStreamingReporterESt14default_deleteIS2_EEEPT_RS6_
FNDA:0,_ZSt11__addressofISt10unique_ptrIN5Catch18IStreamingReporterESt14default_deleteIS2_EEEPT_RS6_
FN:47,_ZSt11__addressofISaISt23_Sp_counted_ptr_inplaceIN5Catch5clara6detail11BoundLambdaIZNS1_21makeCommandLineParserERNS1_10ConfigDataEEUlRKNSt7__cxx1112basic_stringIcSt11char_traitsIcESaIcEEEE2_EESaISG_ELN9__gnu_cxx12_Lock_policyE2EEEEPT_RSM_
FNDA:2,_ZSt11__addressofISaISt23_Sp_counted_ptr_inplaceIN5Catch5clara6detail11BoundLambdaIZNS1_21makeCommandLineParserERNS1_10ConfigDataEEUlRKNSt7__cxx1112basic_stringIcSt11char_traitsIcESaIcEEEE2_EESaISG_ELN9__gnu_cxx12_Lock_policyE2EEEEPT_RSM_
FN:47,_ZSt11__addressofISaISt23_Sp_counted_ptr_inplaceIN5Catch5clara6detail11BoundLambdaIZNS1_21makeCommandLineParserERNS1_10ConfigDataEEUlRKNSt7__cxx1112basic_stringIcSt11char_traitsIcESaIcEEEE3_EESaISG_ELN9__gnu_cxx12_Lock_policyE2EEEEPT_RSM_
FNDA:2,_ZSt11__addressofISaISt23_Sp_counted_ptr_inplaceIN5Catch5clara6detail11BoundLambdaIZNS1_21makeCommandLineParserERNS1_10ConfigDataEEUlRKNSt7__cxx1112basic_stringIcSt11char_traitsIcESaIcEEEE3_EESaISG_ELN9__gnu_cxx12_Lock_policyE2EEEEPT_RSM_
FN:47,_ZSt11__addressofISaISt23_Sp_counted_ptr_inplaceIN5Catch5clara6detail11BoundLambdaIZNS1_21makeCommandLineParserERNS1_10ConfigDataEEUlRKNSt7__cxx1112basic_stringIcSt11char_traitsIcESaIcEEEE4_EESaISG_ELN9__gnu_cxx12_Lock_policyE2EEEEPT_RSM_
FNDA:2,_ZSt11__addressofISaISt23_Sp_counted_ptr_inplaceIN5Catch5clara6detail11BoundLambdaIZNS1_21makeCommandLineParserERNS1_10ConfigDataEEUlRKNSt7__cxx1112basic_stringIcSt11char_traitsIcESaIcEEEE4_EESaISG_ELN9__gnu_cxx12_Lock_policyE2EEEEPT_RSM_
FN:47,_ZSt11__addressofISaISt23_Sp_counted_ptr_inplaceIN5Catch5clara6detail13BoundValueRefIiEESaIS5_ELN9__gnu_cxx12_Lock_policyE2EEEEPT_RSB_
FNDA:2,_ZSt11__addressofISaISt23_Sp_counted_ptr_inplaceIN5Catch5clara6detail13BoundValueRefIiEESaIS5_ELN9__gnu_cxx12_Lock_policyE2EEEEPT_RSB_
FN:47,_ZSt11__addressofISt10unique_ptrINSt7__cxx1119basic_ostringstreamIcSt11char_traitsIcESaIcEEESt14default_deleteIS6_EEEPT_RSA_
FNDA:0,_ZSt11__addressofISt10unique_ptrINSt7__cxx1119basic_ostringstreamIcSt11char_traitsIcESaIcEEESt14default_deleteIS6_EEEPT_RSA_
FN:47,_ZSt11__addressofINSt15__exception_ptr13exception_ptrEEPT_RS2_
FNDA:0,_ZSt11__addressofINSt15__exception_ptr13exception_ptrEEPT_RS2_
FN:47,_ZSt11__addressofISaISt23_Sp_counted_ptr_inplaceIN5Catch22CumulativeReporterBaseINS1_13JunitReporterEE11SectionNodeESaIS5_ELN9__gnu_cxx12_Lock_policyE2EEEEPT_RSB_
FNDA:0,_ZSt11__addressofISaISt23_Sp_counted_ptr_inplaceIN5Catch22CumulativeReporterBaseINS1_13JunitReporterEE11SectionNodeESaIS5_ELN9__gnu_cxx12_Lock_policyE2EEEEPT_RSB_
FN:47,_ZSt11__addressofISaISt23_Sp_counted_ptr_inplaceIN5Catch22CumulativeReporterBaseINS1_13JunitReporterEE4NodeINS1_12TestRunStatsENS5_INS1_14TestGroupStatsENS5_INS1_13TestCaseStatsENS4_11SectionNodeEEEEEEESaISC_ELN9__gnu_cxx12_Lock_policyE2EEEEPT_RSI_
FNDA:0,_ZSt11__addressofISaISt23_Sp_counted_ptr_inplaceIN5Catch22CumulativeReporterBaseINS1_13JunitReporterEE4NodeINS1_12TestRunStatsENS5_INS1_14TestGroupStatsENS5_INS1_13TestCaseStatsENS4_11SectionNodeEEEEEEESaISC_ELN9__gnu_cxx12_Lock_policyE2EEEEPT_RSI_
FN:47,_ZSt11__addressofIN5Catch12_GLOBAL__N_110ColumnInfoEEPT_RS3_
FNDA:8,_ZSt11__addressofIN5Catch12_GLOBAL__N_110ColumnInfoEEPT_RS3_
FN:47,_ZSt11__addressofIKNSt8__detail12_CharMatcherINSt7__cxx1112regex_traitsIcEELb1ELb1EEEEPT_RS7_
FNDA:0,_ZSt11__addressofIKNSt8__detail12_CharMatcherINSt7__cxx1112regex_traitsIcEELb1ELb1EEEEPT_RS7_
FN:47,_ZSt11__addressofISaISt23_Sp_counted_ptr_inplaceIN5Catch5clara6detail11BoundLambdaIZNS1_21makeCommandLineParserERNS1_10ConfigDataEEUlbE9_EESaIS8_ELN9__gnu_cxx12_Lock_policyE2EEEEPT_RSE_
FNDA:2,_ZSt11__addressofISaISt23_Sp_counted_ptr_inplaceIN5Catch5clara6detail11BoundLambdaIZNS1_21makeCommandLineParserERNS1_10ConfigDataEEUlbE9_EESaIS8_ELN9__gnu_cxx12_Lock_policyE2EEEEPT_RSE_
FN:47,_ZSt11__addressofISaISt23_Sp_counted_ptr_inplaceIN5Catch16TestCaseTracking12IndexTrackerESaIS3_ELN9__gnu_cxx12_Lock_policyE2EEEEPT_RS9_
FNDA:0,_ZSt11__addressofISaISt23_Sp_counted_ptr_inplaceIN5Catch16TestCaseTracking12IndexTrackerESaIS3_ELN9__gnu_cxx12_Lock_policyE2EEEEPT_RS9_
FN:47,_ZSt11__addressofIKcEPT_RS1_
FNDA:0,_ZSt11__addressofIKcEPT_RS1_
FN:47,_ZSt11__addressofISaISt23_Sp_counted_ptr_inplaceIN5Catch16TestCaseTracking14SectionTrackerESaIS3_ELN9__gnu_cxx12_Lock_policyE2EEEEPT_RS9_
FNDA:44,_ZSt11__addressofISaISt23_Sp_counted_ptr_inplaceIN5Catch16TestCaseTracking14SectionTrackerESaIS3_ELN9__gnu_cxx12_Lock_policyE2EEEEPT_RS9_
FN:47,_ZSt11__addressofISt4pairINSt7__cxx1112basic_stringIcSt11char_traitsIcESaIcEEES6_EEPT_RS8_
FNDA:0,_ZSt11__addressofISt4pairINSt7__cxx1112basic_stringIcSt11char_traitsIcESaIcEEES6_EEPT_RS8_
FN:47,_ZSt11__addressofISt10shared_ptrIN5Catch16IReporterFactoryEEEPT_RS4_
FNDA:0,_ZSt11__addressofISt10shared_ptrIN5Catch16IReporterFactoryEEEPT_RS4_
FN:47,_ZSt11__addressofISaISt23_Sp_counted_ptr_inplaceIN5Catch5clara6detail11BoundLambdaIZNS1_21makeCommandLineParserERNS1_10ConfigDataEEUlRKNSt7__cxx1112basic_stringIcSt11char_traitsIcESaIcEEEE0_EESaISG_ELN9__gnu_cxx12_Lock_policyE2EEEEPT_RSM_
FNDA:2,_ZSt11__addressofISaISt23_Sp_counted_ptr_inplaceIN5Catch5clara6detail11BoundLambdaIZNS1_21makeCommandLineParserERNS1_10ConfigDataEEUlRKNSt7__cxx1112basic_stringIcSt11char_traitsIcESaIcEEEE0_EESaISG_ELN9__gnu_cxx12_Lock_policyE2EEEEPT_RSM_
FN:47,_ZSt11__addressofISt10shared_ptrIN5Catch16TestCaseTracking8ITrackerEEEPT_RS5_
FNDA:77,_ZSt11__addressofISt10shared_ptrIN5Catch16TestCaseTracking8ITrackerEEEPT_RS5_
FN:47,_ZSt11__addressofIN5Catch14SectionEndInfoEEPT_RS2_
FNDA:0,_ZSt11__addressofIN5Catch14SectionEndInfoEEPT_RS2_
FN:47,_ZSt11__addressofISaISt23_Sp_counted_ptr_inplaceIN5Catch6ConfigESaIS2_ELN9__gnu_cxx12_Lock_policyE2EEEEPT_RS8_
FNDA:2,_ZSt11__addressofISaISt23_Sp_counted_ptr_inplaceIN5Catch6ConfigESaIS2_ELN9__gnu_cxx12_Lock_policyE2EEEEPT_RS8_
FN:47,_ZSt11__addressofISaISt23_Sp_counted_ptr_inplaceIN5Catch5clara6detail11BoundLambdaIZNS1_21makeCommandLineParserERNS1_10ConfigDataEEUlRKNSt7__cxx1112basic_stringIcSt11char_traitsIcESaIcEEEE5_EESaISG_ELN9__gnu_cxx12_Lock_policyE2EEEEPT_RSM_
FNDA:2,_ZSt11__addressofISaISt23_Sp_counted_ptr_inplaceIN5Catch5clara6detail11BoundLambdaIZNS1_21makeCommandLineParserERNS1_10ConfigDataEEUlRKNSt7__cxx1112basic_stringIcSt11char_traitsIcESaIcEEEE5_EESaISG_ELN9__gnu_cxx12_Lock_policyE2EEEEPT_RSM_
FN:47,_ZSt11__addressofISaISt23_Sp_counted_ptr_inplaceIN5Catch10Generators16GeneratorTrackerESaIS3_ELN9__gnu_cxx12_Lock_policyE2EEEEPT_RS9_
FNDA:0,_ZSt11__addressofISaISt23_Sp_counted_ptr_inplaceIN5Catch10Generators16GeneratorTrackerESaIS3_ELN9__gnu_cxx12_Lock_policyE2EEEEPT_RS9_
FN:47,_ZSt11__addressofISaISt23_Sp_counted_ptr_inplaceIN5Catch5clara6detail11BoundLambdaIZNS1_21makeCommandLineParserERNS1_10ConfigDataEEUlRKNSt7__cxx1112basic_stringIcSt11char_traitsIcESaIcEEEE1_EESaISG_ELN9__gnu_cxx12_Lock_policyE2EEEEPT_RSM_
FNDA:2,_ZSt11__addressofISaISt23_Sp_counted_ptr_inplaceIN5Catch5clara6detail11BoundLambdaIZNS1_21makeCommandLineParserERNS1_10ConfigDataEEUlRKNSt7__cxx1112basic_stringIcSt11char_traitsIcESaIcEEEE1_EESaISG_ELN9__gnu_cxx12_Lock_policyE2EEEEPT_RSM_
FN:47,_ZSt11__addressofIN5Catch11SectionInfoEEPT_RS2_
FNDA:9,_ZSt11__addressofIN5Catch11SectionInfoEEPT_RS2_
FN:47,_ZSt11__addressofINSt7__cxx1112regex_traitsIcE10_RegexMaskEEPT_RS4_
FNDA:0,_ZSt11__addressofINSt7__cxx1112regex_traitsIcE10_RegexMaskEEPT_RS4_
FN:47,_ZSt11__addressofISt4pairIccEEPT_RS2_
FNDA:0,_ZSt11__addressofISt4pairIccEEPT_RS2_
FN:74,_ZSt7forwardIRKSt10shared_ptrIN5Catch22CumulativeReporterBaseINS1_13JunitReporterEE4NodeINS1_13TestCaseStatsENS4_11SectionNodeEEEEEOT_RNSt16remove_referenceISC_E4typeE
FNDA:0,_ZSt7forwardIRKSt10shared_ptrIN5Catch22CumulativeReporterBaseINS1_13JunitReporterEE4NodeINS1_13TestCaseStatsENS4_11SectionNodeEEEEEOT_RNSt16remove_referenceISC_E4typeE
FN:74,_ZSt7forwardIRKSt10shared_ptrIN5Catch22CumulativeReporterBaseINS1_13JunitReporterEE11SectionNodeEEEOT_RNSt16remove_referenceIS9_E4typeE
FNDA:0,_ZSt7forwardIRKSt10shared_ptrIN5Catch22CumulativeReporterBaseINS1_13JunitReporterEE11SectionNodeEEEOT_RNSt16remove_referenceIS9_E4typeE
FN:74,_ZSt7forwardISt14default_deleteIN5Catch10Generators10IGeneratorIiEEEEOT_RNSt16remove_referenceIS6_E4typeE
FNDA:0,_ZSt7forwardISt14default_deleteIN5Catch10Generators10IGeneratorIiEEEEOT_RNSt16remove_referenceIS6_E4typeE
FN:74,_ZSt7forwardIRKSt10shared_ptrIN5Catch22CumulativeReporterBaseINS1_13JunitReporterEE4NodeINS1_14TestGroupStatsENS5_INS1_13TestCaseStatsENS4_11SectionNodeEEEEEEEOT_RNSt16remove_referenceISE_E4typeE
FNDA:0,_ZSt7forwardIRKSt10shared_ptrIN5Catch22CumulativeReporterBaseINS1_13JunitReporterEE4NodeINS1_14TestGroupStatsENS5_INS1_13TestCaseStatsENS4_11SectionNodeEEEEEEEOT_RNSt16remove_referenceISE_E4typeE
FN:74,_ZSt7forwardIRPSt13_Rb_tree_nodeImEEOT_RNSt16remove_referenceIS4_E4typeE
FNDA:0,_ZSt7forwardIRPSt13_Rb_tree_nodeImEEOT_RNSt16remove_referenceIS4_E4typeE
FN:74,_ZSt7forwardIRPSt18_Rb_tree_node_baseEOT_RNSt16remove_referenceIS3_E4typeE
FNDA:7,_ZSt7forwardIRPSt18_Rb_tree_node_baseEOT_RNSt16remove_referenceIS3_E4typeE
FN:74,_ZSt7forwardIRPN5Catch10Generators10IGeneratorIiEEEOT_RNSt16remove_referenceIS6_E4typeE
FNDA:0,_ZSt7forwardIRPN5Catch10Generators10IGeneratorIiEEEOT_RNSt16remove_referenceIS6_E4typeE
FN:74,_ZSt7forwardIRPSt13_Rb_tree_nodeINSt7__cxx1112basic_stringIcSt11char_traitsIcESaIcEEEEEOT_RNSt16remove_referenceISA_E4typeE
FNDA:0,_ZSt7forwardIRPSt13_Rb_tree_nodeINSt7__cxx1112basic_stringIcSt11char_traitsIcESaIcEEEEEOT_RNSt16remove_referenceISA_E4typeE
FN:74,_ZSt7forwardIRPSt13_Rb_tree_nodeISt4pairIKNSt7__cxx1112basic_stringIcSt11char_traitsIcESaIcEEEN5Catch7TagInfoEEEEOT_RNSt16remove_referenceISF_E4typeE
FNDA:0,_ZSt7forwardIRPSt13_Rb_tree_nodeISt4pairIKNSt7__cxx1112basic_stringIcSt11char_traitsIcESaIcEEEN5Catch7TagInfoEEEEOT_RNSt16remove_referenceISF_E4typeE
FN:74,_ZSt7forwardIRPSt13_Rb_tree_nodeISt4pairIKNSt7__cxx1112basic_stringIcSt11char_traitsIcESaIcEEESt10shared_ptrIN5Catch16IReporterFactoryEEEEEOT_RNSt16remove_referenceISH_E4typeE
FNDA:4,_ZSt7forwardIRPSt13_Rb_tree_nodeISt4pairIKNSt7__cxx1112basic_stringIcSt11char_traitsIcESaIcEEESt10shared_ptrIN5Catch16IReporterFactoryEEEEEOT_RNSt16remove_referenceISH_E4typeE
FN:74,_ZSt7forwardIRPSt13_Rb_tree_nodeISt4pairIKNSt7__cxx1112basic_stringIcSt11char_traitsIcESaIcEEEN5Catch8TagAliasEEEEOT_RNSt16remove_referenceISF_E4typeE
FNDA:0,_ZSt7forwardIRPSt13_Rb_tree_nodeISt4pairIKNSt7__cxx1112basic_stringIcSt11char_traitsIcESaIcEEEN5Catch8TagAliasEEEEOT_RNSt16remove_referenceISF_E4typeE
FN:74,_ZSt7forwardIRPSt13_Rb_tree_nodeIN5Catch8TestCaseEEEOT_RNSt16remove_referenceIS6_E4typeE
FNDA:2,_ZSt7forwardIRPSt13_Rb_tree_nodeIN5Catch8TestCaseEEEOT_RNSt16remove_referenceIS6_E4typeE
FN:74,_ZSt7forwardIRKN5Catch5clara6detail5TokenEEOT_RNSt16remove_referenceIS6_E4typeE
FNDA:0,_ZSt7forwardIRKN5Catch5clara6detail5TokenEEOT_RNSt16remove_referenceIS6_E4typeE
FN:74,_ZSt7forwardISt14default_deleteIKN5Catch20IExceptionTranslatorEEEOT_RNSt16remove_referenceIS5_E4typeE
FNDA:0,_ZSt7forwardISt14default_deleteIKN5Catch20IExceptionTranslatorEEEOT_RNSt16remove_referenceIS5_E4typeE
FN:74,_ZSt7forwardIRN5Catch5clara6detail3OptEEOT_RNSt16remove_referenceIS5_E4typeE
FNDA:0,_ZSt7forwardIRN5Catch5clara6detail3OptEEOT_RNSt16remove_referenceIS5_E4typeE
FN:74,_ZSt7forwardIRN5Catch5clara6detail3ArgEEOT_RNSt16remove_referenceIS5_E4typeE
FNDA:0,_ZSt7forwardIRN5Catch5clara6detail3ArgEEOT_RNSt16remove_referenceIS5_E4typeE
FN:74,_ZSt7forwardISt14default_deleteINSt7__cxx1119basic_ostringstreamIcSt11char_traitsIcESaIcEEEEEOT_RNSt16remove_referenceIS8_E4typeE
FNDA:0,_ZSt7forwardISt14default_deleteINSt7__cxx1119basic_ostringstreamIcSt11char_traitsIcESaIcEEEEEOT_RNSt16remove_referenceIS8_E4typeE
FN:74,_ZSt7forwardIRKPKcEOT_RNSt16remove_referenceIS4_E4typeE
FNDA:0,_ZSt7forwardIRKPKcEOT_RNSt16remove_referenceIS4_E4typeE
FN:74,_ZSt7forwardIRKZN5Catch5clara6detail4HelpC4ERbEUlbE_EOT_RNSt16remove_referenceIS8_E4typeE
FNDA:8,_ZSt7forwardIRKZN5Catch5clara6detail4HelpC4ERbEUlbE_EOT_RNSt16remove_referenceIS8_E4typeE
FN:74,_ZSt7forwardIRN5Catch10ConfigDataEEOT_RNSt16remove_referenceIS3_E4typeE
FNDA:8,_ZSt7forwardIRN5Catch10ConfigDataEEOT_RNSt16remove_referenceIS3_E4typeE
FN:74,_ZSt7forwardIN5Catch8TagAliasEEOT_RNSt16remove_referenceIS2_E4typeE
FNDA:0,_ZSt7forwardIN5Catch8TagAliasEEOT_RNSt16remove_referenceIS2_E4typeE
FN:74,_ZSt7forwardISt4pairINSt7__cxx1112basic_stringIcSt11char_traitsIcESaIcEEEN5Catch8TagAliasEEEOT_RNSt16remove_referenceISA_E4typeE
FNDA:0,_ZSt7forwardISt4pairINSt7__cxx1112basic_stringIcSt11char_traitsIcESaIcEEEN5Catch8TagAliasEEEOT_RNSt16remove_referenceISA_E4typeE
FN:74,_ZSt7forwardIN5Catch16TestCaseTracking15NameAndLocationEEOT_RNSt16remove_referenceIS3_E4typeE
FNDA:16,_ZSt7forwardIN5Catch16TestCaseTracking15NameAndLocationEEOT_RNSt16remove_referenceIS3_E4typeE
FN:74,_ZSt7forwardIDnEOT_RNSt16remove_referenceIS0_E4typeE
FNDA:16,_ZSt7forwardIDnEOT_RNSt16remove_referenceIS0_E4typeE
FN:74,_ZSt7forwardIRiEOT_RNSt16remove_referenceIS1_E4typeE
FNDA:80,_ZSt7forwardIRiEOT_RNSt16remove_referenceIS1_E4typeE
FN:74,_ZSt7forwardIN5Catch5clara8TextFlow6Column8iteratorEEOT_RNSt16remove_referenceIS5_E4typeE
FNDA:0,_ZSt7forwardIN5Catch5clara8TextFlow6Column8iteratorEEOT_RNSt16remove_referenceIS5_E4typeE
FN:74,_ZSt7forwardIRKN5Catch5clara8TextFlow6ColumnEEOT_RNSt16remove_referenceIS6_E4typeE
FNDA:0,_ZSt7forwardIRKN5Catch5clara8TextFlow6ColumnEEOT_RNSt16remove_referenceIS6_E4typeE
FN:74,_ZSt7forwardIN5Catch5clara6detail5TokenEEOT_RNSt16remove_referenceIS4_E4typeE
FNDA:0,_ZSt7forwardIN5Catch5clara6detail5TokenEEOT_RNSt16remove_referenceIS4_E4typeE
FN:74,_ZSt7forwardISt14default_deleteIN5Catch17ListeningReporterEEEOT_RNSt16remove_referenceIS4_E4typeE
FNDA:0,_ZSt7forwardISt14default_deleteIN5Catch17ListeningReporterEEEOT_RNSt16remove_referenceIS4_E4typeE
FN:74,_ZSt7forwardIRKN5Catch5clara6detail3ArgEEOT_RNSt16remove_referenceIS6_E4typeE
FNDA:4,_ZSt7forwardIRKN5Catch5clara6detail3ArgEEOT_RNSt16remove_referenceIS6_E4typeE
FN:74,_ZSt7forwardIRKN5Catch5clara6detail3OptEEOT_RNSt16remove_referenceIS6_E4typeE
FNDA:806,_ZSt7forwardIRKN5Catch5clara6detail3OptEEOT_RNSt16remove_referenceIS6_E4typeE
FN:74,_ZSt7forwardINSt7__cxx1112basic_stringIcSt11char_traitsIcESaIcEEEEOT_RNSt16remove_referenceIS6_E4typeE
FNDA:40,_ZSt7forwardINSt7__cxx1112basic_stringIcSt11char_traitsIcESaIcEEEEOT_RNSt16remove_referenceIS6_E4typeE
FN:74,_ZSt7forwardIRKZN5Catch21makeCommandLineParserERNS0_10ConfigDataEEUlbE7_EOT_RNSt16remove_referenceIS6_E4typeE
FNDA:8,_ZSt7forwardIRKZN5Catch21makeCommandLineParserERNS0_10ConfigDataEEUlbE7_EOT_RNSt16remove_referenceIS6_E4typeE
FN:74,_ZSt7forwardIRSt6vectorINSt7__cxx1112basic_stringIcSt11char_traitsIcESaIcEEESaIS6_EEEOT_RNSt16remove_referenceISA_E4typeE
FNDA:16,_ZSt7forwardIRSt6vectorINSt7__cxx1112basic_stringIcSt11char_traitsIcESaIcEEESaIS6_EEEOT_RNSt16remove_referenceISA_E4typeE
FN:74,_ZSt7forwardISt10unique_ptrIKN5Catch20IExceptionTranslatorESt14default_deleteIS3_EEEOT_RNSt16remove_referenceIS7_E4typeE
FNDA:0,_ZSt7forwardISt10unique_ptrIKN5Catch20IExceptionTranslatorESt14default_deleteIS3_EEEOT_RNSt16remove_referenceIS7_E4typeE
FN:74,_ZSt7forwardIRKmEOT_RNSt16remove_referenceIS2_E4typeE
FNDA:0,_ZSt7forwardIRKmEOT_RNSt16remove_referenceIS2_E4typeE
FN:74,_ZSt7forwardIRSt17_Rb_tree_iteratorImEEOT_RNSt16remove_referenceIS3_E4typeE
FNDA:0,_ZSt7forwardIRSt17_Rb_tree_iteratorImEEOT_RNSt16remove_referenceIS3_E4typeE
FN:74,_ZSt7forwardIRKiEOT_RNSt16remove_referenceIS2_E4typeE
FNDA:0,_ZSt7forwardIRKiEOT_RNSt16remove_referenceIS2_E4typeE
FN:74,_ZSt7forwardIRKN5Catch14SourceLineInfoEEOT_RNSt16remove_referenceIS4_E4typeE
FNDA:0,_ZSt7forwardIRKN5Catch14SourceLineInfoEEOT_RNSt16remove_referenceIS4_E4typeE
FN:74,_ZSt7forwardISt10shared_ptrIN5Catch22CumulativeReporterBaseINS1_13JunitReporterEE4NodeINS1_12TestRunStatsENS5_INS1_14TestGroupStatsENS5_INS1_13TestCaseStatsENS4_11SectionNodeEEEEEEEEEOT_RNSt16remove_referenceISE_E4typeE
FNDA:0,_ZSt7forwardISt10shared_ptrIN5Catch22CumulativeReporterBaseINS1_13JunitReporterEE4NodeINS1_12TestRunStatsENS5_INS1_14TestGroupStatsENS5_INS1_13TestCaseStatsENS4_11SectionNodeEEEEEEEEEOT_RNSt16remove_referenceISE_E4typeE
FN:74,_ZSt7forwardIbEOT_RNSt16remove_referenceIS0_E4typeE
FNDA:6,_ZSt7forwardIbEOT_RNSt16remove_referenceIS0_E4typeE
FN:74,_ZSt7forwardImEOT_RNSt16remove_referenceIS0_E4typeE
FNDA:0,_ZSt7forwardImEOT_RNSt16remove_referenceIS0_E4typeE
FN:74,_ZSt7forwardIRA13_KcEOT_RNSt16remove_referenceIS3_E4typeE
FNDA:24,_ZSt7forwardIRA13_KcEOT_RNSt16remove_referenceIS3_E4typeE
FN:74,_ZSt7forwardIRNSt7__cxx1112basic_stringIcSt11char_traitsIcESaIcEEEEOT_RNSt16remove_referenceIS7_E4typeE
FNDA:32,_ZSt7forwardIRNSt7__cxx1112basic_stringIcSt11char_traitsIcESaIcEEEEOT_RNSt16remove_referenceIS7_E4typeE
FN:74,_ZSt7forwardIRbEOT_RNSt16remove_referenceIS1_E4typeE
FNDA:82,_ZSt7forwardIRbEOT_RNSt16remove_referenceIS1_E4typeE
FN:74,_ZSt7forwardIN5Catch7TagInfoEEOT_RNSt16remove_referenceIS2_E4typeE
FNDA:0,_ZSt7forwardIN5Catch7TagInfoEEOT_RNSt16remove_referenceIS2_E4typeE
FN:74,_ZSt7forwardISt4pairINSt7__cxx1112basic_stringIcSt11char_traitsIcESaIcEEEN5Catch7TagInfoEEEOT_RNSt16remove_referenceISA_E4typeE
FNDA:0,_ZSt7forwardISt4pairINSt7__cxx1112basic_stringIcSt11char_traitsIcESaIcEEEN5Catch7TagInfoEEEOT_RNSt16remove_referenceISA_E4typeE
FN:74,_ZSt7forwardIRN5Catch9StringRefEEOT_RNSt16remove_referenceIS3_E4typeE
FNDA:0,_ZSt7forwardIRN5Catch9StringRefEEOT_RNSt16remove_referenceIS3_E4typeE
FN:74,_ZSt7forwardISt14default_deleteIN5Catch10Generators14RangeGeneratorIiEEEEOT_RNSt16remove_referenceIS6_E4typeE
FNDA:0,_ZSt7forwardISt14default_deleteIN5Catch10Generators14RangeGeneratorIiEEEEOT_RNSt16remove_referenceIS6_E4typeE
FN:74,_ZSt7forwardIRN5Catch9ResultWas6OfTypeEEOT_RNSt16remove_referenceIS4_E4typeE
FNDA:0,_ZSt7forwardIRN5Catch9ResultWas6OfTypeEEOT_RNSt16remove_referenceIS4_E4typeE
FN:74,_ZSt7forwardIRKNSt7__cxx1112basic_stringIcSt11char_traitsIcESaIcEEEEOT_RNSt16remove_referenceIS8_E4typeE
FNDA:1633,_ZSt7forwardIRKNSt7__cxx1112basic_stringIcSt11char_traitsIcESaIcEEEEOT_RNSt16remove_referenceIS8_E4typeE
FN:74,_ZSt7forwardIRKSt10shared_ptrIN5Catch16IReporterFactoryEEEOT_RNSt16remove_referenceIS6_E4typeE
FNDA:24,_ZSt7forwardIRKSt10shared_ptrIN5Catch16IReporterFactoryEEEOT_RNSt16remove_referenceIS6_E4typeE
FN:74,_ZSt7forwardIRKN5Catch16TestCaseTracking15NameAndLocationEEOT_RNSt16remove_referenceIS5_E4typeE
FNDA:160,_ZSt7forwardIRKN5Catch16TestCaseTracking15NameAndLocationEEOT_RNSt16remove_referenceIS5_E4typeE
FN:74,_ZSt7forwardIRN5Catch16TestCaseTracking14TrackerContextEEOT_RNSt16remove_referenceIS4_E4typeE
FNDA:176,_ZSt7forwardIRN5Catch16TestCaseTracking14TrackerContextEEOT_RNSt16remove_referenceIS4_E4typeE
FN:74,_ZSt7forwardIPN5Catch16TestCaseTracking8ITrackerEEOT_RNSt16remove_referenceIS4_E4typeE
FNDA:219,_ZSt7forwardIPN5Catch16TestCaseTracking8ITrackerEEOT_RNSt16remove_referenceIS4_E4typeE
FN:74,_ZSt7forwardISt14default_deleteIN5Catch10Generators13GeneratorBaseEEEOT_RNSt16remove_referenceIS5_E4typeE
FNDA:0,_ZSt7forwardISt14default_deleteIN5Catch10Generators13GeneratorBaseEEEOT_RNSt16remove_referenceIS5_E4typeE
FN:74,_ZSt7forwardISt14default_deleteIN5Catch18IStreamingReporterEEEOT_RNSt16remove_referenceIS4_E4typeE
FNDA:6,_ZSt7forwardISt14default_deleteIN5Catch18IStreamingReporterEEEOT_RNSt16remove_referenceIS4_E4typeE
FN:74,_ZSt7forwardISt17_Rb_tree_iteratorISt4pairIKNSt7__cxx1112basic_stringIcSt11char_traitsIcESaIcEEEN5Catch7TagInfoEEEEOT_RNSt16remove_referenceISD_E4typeE
FNDA:0,_ZSt7forwardISt17_Rb_tree_iteratorISt4pairIKNSt7__cxx1112basic_stringIcSt11char_traitsIcESaIcEEEN5Catch7TagInfoEEEEOT_RNSt16remove_referenceISD_E4typeE
FN:74,_ZSt7forwardIRKZN5Catch21makeCommandLineParserERNS0_10ConfigDataEEUlRKNSt7__cxx1112basic_stringIcSt11char_traitsIcESaIcEEEE0_EOT_RNSt16remove_referenceISE_E4typeE
FNDA:8,_ZSt7forwardIRKZN5Catch21makeCommandLineParserERNS0_10ConfigDataEEUlRKNSt7__cxx1112basic_stringIcSt11char_traitsIcESaIcEEEE0_EOT_RNSt16remove_referenceISE_E4typeE
FN:74,_ZSt7forwardIRKZN5Catch21makeCommandLineParserERNS0_10ConfigDataEEUlRKNSt7__cxx1112basic_stringIcSt11char_traitsIcESaIcEEEE5_EOT_RNSt16remove_referenceISE_E4typeE
FNDA:8,_ZSt7forwardIRKZN5Catch21makeCommandLineParserERNS0_10ConfigDataEEUlRKNSt7__cxx1112basic_stringIcSt11char_traitsIcESaIcEEEE5_EOT_RNSt16remove_referenceISE_E4typeE
FN:74,_ZSt7forwardIRKZN5Catch21makeCommandLineParserERNS0_10ConfigDataEEUlRKNSt7__cxx1112basic_stringIcSt11char_traitsIcESaIcEEEE1_EOT_RNSt16remove_referenceISE_E4typeE
FNDA:8,_ZSt7forwardIRKZN5Catch21makeCommandLineParserERNS0_10ConfigDataEEUlRKNSt7__cxx1112basic_stringIcSt11char_traitsIcESaIcEEEE1_EOT_RNSt16remove_referenceISE_E4typeE
FN:74,_ZSt7forwardIRKZN5Catch21makeCommandLineParserERNS0_10ConfigDataEEUlRKNSt7__cxx1112basic_stringIcSt11char_traitsIcESaIcEEEE2_EOT_RNSt16remove_referenceISE_E4typeE
FNDA:8,_ZSt7forwardIRKZN5Catch21makeCommandLineParserERNS0_10ConfigDataEEUlRKNSt7__cxx1112basic_stringIcSt11char_traitsIcESaIcEEEE2_EOT_RNSt16remove_referenceISE_E4typeE
FN:74,_ZSt7forwardIRKZN5Catch21makeCommandLineParserERNS0_10ConfigDataEEUlRKNSt7__cxx1112basic_stringIcSt11char_traitsIcESaIcEEEE3_EOT_RNSt16remove_referenceISE_E4typeE
FNDA:8,_ZSt7forwardIRKZN5Catch21makeCommandLineParserERNS0_10ConfigDataEEUlRKNSt7__cxx1112basic_stringIcSt11char_traitsIcESaIcEEEE3_EOT_RNSt16remove_referenceISE_E4typeE
FN:74,_ZSt7forwardIRKZN5Catch21makeCommandLineParserERNS0_10ConfigDataEEUlRKNSt7__cxx1112basic_stringIcSt11char_traitsIcESaIcEEEE4_EOT_RNSt16remove_referenceISE_E4typeE
FNDA:8,_ZSt7forwardIRKZN5Catch21makeCommandLineParserERNS0_10ConfigDataEEUlRKNSt7__cxx1112basic_stringIcSt11char_traitsIcESaIcEEEE4_EOT_RNSt16remove_referenceISE_E4typeE
FN:74,_ZSt7forwardISt17_Rb_tree_iteratorImEEOT_RNSt16remove_referenceIS2_E4typeE
FNDA:0,_ZSt7forwardISt17_Rb_tree_iteratorImEEOT_RNSt16remove_referenceIS2_E4typeE
FN:74,_ZSt7forwardIcEOT_RNSt16remove_referenceIS0_E4typeE
FNDA:0,_ZSt7forwardIcEOT_RNSt16remove_referenceIS0_E4typeE
FN:74,_ZSt7forwardISt17_Rb_tree_iteratorINSt7__cxx1112basic_stringIcSt11char_traitsIcESaIcEEEEEOT_RNSt16remove_referenceIS8_E4typeE
FNDA:0,_ZSt7forwardISt17_Rb_tree_iteratorINSt7__cxx1112basic_stringIcSt11char_traitsIcESaIcEEEEEOT_RNSt16remove_referenceIS8_E4typeE
FN:74,_ZSt7forwardIRKZN5Catch21makeCommandLineParserERNS0_10ConfigDataEEUlbE9_EOT_RNSt16remove_referenceIS6_E4typeE
FNDA:8,_ZSt7forwardIRKZN5Catch21makeCommandLineParserERNS0_10ConfigDataEEUlbE9_EOT_RNSt16remove_referenceIS6_E4typeE
FN:74,_ZSt7forwardIRKcEOT_RNSt16remove_referenceIS2_E4typeE
FNDA:0,_ZSt7forwardIRKcEOT_RNSt16remove_referenceIS2_E4typeE
FN:74,_ZSt7forwardISt17_Rb_tree_iteratorISt4pairIKNSt7__cxx1112basic_stringIcSt11char_traitsIcESaIcEEESt10shared_ptrIN5Catch16IReporterFactoryEEEEEOT_RNSt16remove_referenceISF_E4typeE
FNDA:4,_ZSt7forwardISt17_Rb_tree_iteratorISt4pairIKNSt7__cxx1112basic_stringIcSt11char_traitsIcESaIcEEESt10shared_ptrIN5Catch16IReporterFactoryEEEEEOT_RNSt16remove_referenceISF_E4typeE
FN:74,_ZSt7forwardIRPN5Catch18IStreamingReporterEEOT_RNSt16remove_referenceIS4_E4typeE
FNDA:6,_ZSt7forwardIRPN5Catch18IStreamingReporterEEOT_RNSt16remove_referenceIS4_E4typeE
FN:74,_ZSt7forwardISt17_Rb_tree_iteratorISt4pairIKNSt7__cxx1112basic_stringIcSt11char_traitsIcESaIcEEEN5Catch8TagAliasEEEEOT_RNSt16remove_referenceISD_E4typeE
FNDA:0,_ZSt7forwardISt17_Rb_tree_iteratorISt4pairIKNSt7__cxx1112basic_stringIcSt11char_traitsIcESaIcEEEN5Catch8TagAliasEEEEOT_RNSt16remove_referenceISD_E4typeE
FN:74,_ZSt7forwardISt17_Rb_tree_iteratorIN5Catch8TestCaseEEEOT_RNSt16remove_referenceIS4_E4typeE
FNDA:2,_ZSt7forwardISt17_Rb_tree_iteratorIN5Catch8TestCaseEEEOT_RNSt16remove_referenceIS4_E4typeE
FN:74,_ZSt7forwardIRKSt10shared_ptrIN5Catch8TestSpec7PatternEEEOT_RNSt16remove_referenceIS7_E4typeE
FNDA:6,_ZSt7forwardIRKSt10shared_ptrIN5Catch8TestSpec7PatternEEEOT_RNSt16remove_referenceIS7_E4typeE
FN:74,_ZSt7forwardIRKN5Catch9VerbosityEEOT_RNSt16remove_referenceIS4_E4typeE
FNDA:7,_ZSt7forwardIRKN5Catch9VerbosityEEOT_RNSt16remove_referenceIS4_E4typeE
FN:74,_ZSt7forwardIRKN5Catch11SectionInfoEEOT_RNSt16remove_referenceIS4_E4typeE
FNDA:75,_ZSt7forwardIRKN5Catch11SectionInfoEEOT_RNSt16remove_referenceIS4_E4typeE
FN:74,_ZSt7forwardIRSt10shared_ptrIN5Catch8TestSpec7PatternEEEOT_RNSt16remove_referenceIS6_E4typeE
FNDA:8,_ZSt7forwardIRSt10shared_ptrIN5Catch8TestSpec7PatternEEEOT_RNSt16remove_referenceIS6_E4typeE
FN:74,_ZSt7forwardIRKN5Catch11MessageInfoEEOT_RNSt16remove_referenceIS4_E4typeE
FNDA:0,_ZSt7forwardIRKN5Catch11MessageInfoEEOT_RNSt16remove_referenceIS4_E4typeE
FN:74,_ZSt7forwardIRSt17_Rb_tree_iteratorINSt7__cxx1112basic_stringIcSt11char_traitsIcESaIcEEEEEOT_RNSt16remove_referenceIS9_E4typeE
FNDA:0,_ZSt7forwardIRSt17_Rb_tree_iteratorINSt7__cxx1112basic_stringIcSt11char_traitsIcESaIcEEEEEOT_RNSt16remove_referenceIS9_E4typeE
FN:74,_ZSt7forwardIRKN5Catch14SectionEndInfoEEOT_RNSt16remove_referenceIS4_E4typeE
FNDA:0,_ZSt7forwardIRKN5Catch14SectionEndInfoEEOT_RNSt16remove_referenceIS4_E4typeE
FN:74,_ZSt7forwardIRKPN5Catch10ISingletonEEOT_RNSt16remove_referenceIS5_E4typeE
FNDA:3,_ZSt7forwardIRKPN5Catch10ISingletonEEOT_RNSt16remove_referenceIS5_E4typeE
FN:74,_ZSt7forwardIRKNSt15__exception_ptr13exception_ptrEEOT_RNSt16remove_referenceIS4_E4typeE
FNDA:0,_ZSt7forwardIRKNSt15__exception_ptr13exception_ptrEEOT_RNSt16remove_referenceIS4_E4typeE
FN:74,_ZSt7forwardISt10unique_ptrINSt7__cxx1119basic_ostringstreamIcSt11char_traitsIcESaIcEEESt14default_deleteIS6_EEEOT_RNSt16remove_referenceISA_E4typeE
FNDA:0,_ZSt7forwardISt10unique_ptrINSt7__cxx1119basic_ostringstreamIcSt11char_traitsIcESaIcEEESt14default_deleteIS6_EEEOT_RNSt16remove_referenceISA_E4typeE
FN:74,_ZSt7forwardIRKN5Catch8TestCaseEEOT_RNSt16remove_referenceIS4_E4typeE
FNDA:22,_ZSt7forwardIRKN5Catch8TestCaseEEOT_RNSt16remove_referenceIS4_E4typeE
FN:74,_ZSt7forwardIRSt17_Rb_tree_iteratorIN5Catch8TestCaseEEEOT_RNSt16remove_referenceIS5_E4typeE
FNDA:2,_ZSt7forwardIRSt17_Rb_tree_iteratorIN5Catch8TestCaseEEEOT_RNSt16remove_referenceIS5_E4typeE
FN:74,_ZSt7forwardIRKSt10shared_ptrIN5Catch16TestCaseTracking8ITrackerEEEOT_RNSt16remove_referenceIS7_E4typeE
FNDA:52,_ZSt7forwardIRKSt10shared_ptrIN5Catch16TestCaseTracking8ITrackerEEEOT_RNSt16remove_referenceIS7_E4typeE
FN:74,_ZSt7forwardIRKN5Catch14AssertionStatsEEOT_RNSt16remove_referenceIS4_E4typeE
FNDA:0,_ZSt7forwardIRKN5Catch14AssertionStatsEEOT_RNSt16remove_referenceIS4_E4typeE
FN:74,_ZSt7forwardIRKN5Catch8TestSpec6FilterEEOT_RNSt16remove_referenceIS5_E4typeE
FNDA:5,_ZSt7forwardIRKN5Catch8TestSpec6FilterEEOT_RNSt16remove_referenceIS5_E4typeE
FN:74,_ZSt7forwardIN5Catch13SummaryColumnEEOT_RNSt16remove_referenceIS2_E4typeE
FNDA:0,_ZSt7forwardIN5Catch13SummaryColumnEEOT_RNSt16remove_referenceIS2_E4typeE
FN:74,_ZSt7forwardIRKN5Catch13TestCaseStatsEEOT_RNSt16remove_referenceIS4_E4typeE
FNDA:0,_ZSt7forwardIRKN5Catch13TestCaseStatsEEOT_RNSt16remove_referenceIS4_E4typeE
FN:74,_ZSt7forwardIRKN5Catch14TestGroupStatsEEOT_RNSt16remove_referenceIS4_E4typeE
FNDA:0,_ZSt7forwardIRKN5Catch14TestGroupStatsEEOT_RNSt16remove_referenceIS4_E4typeE
FN:74,_ZSt7forwardISt10unique_ptrIN5Catch18IStreamingReporterESt14default_deleteIS2_EEEOT_RNSt16remove_referenceIS6_E4typeE
FNDA:0,_ZSt7forwardISt10unique_ptrIN5Catch18IStreamingReporterESt14default_deleteIS2_EEEOT_RNSt16remove_referenceIS6_E4typeE
FN:74,_ZSt7forwardIRKZN5Catch21makeCommandLineParserERNS0_10ConfigDataEEUlRKNSt7__cxx1112basic_stringIcSt11char_traitsIcESaIcEEEE6_EOT_RNSt16remove_referenceISE_E4typeE
FNDA:8,_ZSt7forwardIRKZN5Catch21makeCommandLineParserERNS0_10ConfigDataEEUlRKNSt7__cxx1112basic_stringIcSt11char_traitsIcESaIcEEEE6_EOT_RNSt16remove_referenceISE_E4typeE
FN:74,_ZSt7forwardIRKZN5Catch21makeCommandLineParserERNS0_10ConfigDataEEUliE8_EOT_RNSt16remove_referenceIS6_E4typeE
FNDA:8,_ZSt7forwardIRKZN5Catch21makeCommandLineParserERNS0_10ConfigDataEEUliE8_EOT_RNSt16remove_referenceIS6_E4typeE
FN:74,_ZSt7forwardIRKZN5Catch21makeCommandLineParserERNS0_10ConfigDataEEUlRKNSt7__cxx1112basic_stringIcSt11char_traitsIcESaIcEEEE_EOT_RNSt16remove_referenceISE_E4typeE
FNDA:8,_ZSt7forwardIRKZN5Catch21makeCommandLineParserERNS0_10ConfigDataEEUlRKNSt7__cxx1112basic_stringIcSt11char_traitsIcESaIcEEEE_EOT_RNSt16remove_referenceISE_E4typeE
FN:74,_ZSt7forwardINSt15__exception_ptr13exception_ptrEEOT_RNSt16remove_referenceIS2_E4typeE
FNDA:0,_ZSt7forwardINSt15__exception_ptr13exception_ptrEEOT_RNSt16remove_referenceIS2_E4typeE
FN:74,_ZSt7forwardIRKlEOT_RNSt16remove_referenceIS2_E4typeE
FNDA:0,_ZSt7forwardIRKlEOT_RNSt16remove_referenceIS2_E4typeE
FN:74,_ZSt7forwardISt4pairIccEEOT_RNSt16remove_referenceIS2_E4typeE
FNDA:0,_ZSt7forwardISt4pairIccEEOT_RNSt16remove_referenceIS2_E4typeE
FN:74,_ZSt7forwardIN5Catch8TestCaseEEOT_RNSt16remove_referenceIS2_E4typeE
FNDA:2,_ZSt7forwardIN5Catch8TestCaseEEOT_RNSt16remove_referenceIS2_E4typeE
FN:74,_ZSt7forwardIRNSt7__cxx119sub_matchIN9__gnu_cxx17__normal_iteratorIPKcNS0_12basic_stringIcSt11char_traitsIcESaIcEEEEEEEEOT_RNSt16remove_referenceISE_E4typeE
FNDA:0,_ZSt7forwardIRNSt7__cxx119sub_matchIN9__gnu_cxx17__normal_iteratorIPKcNS0_12basic_stringIcSt11char_traitsIcESaIcEEEEEEEEOT_RNSt16remove_referenceISE_E4typeE
FN:74,_ZSt7forwardIN5Catch5clara8TextFlow6ColumnEEOT_RNSt16remove_referenceIS4_E4typeE
FNDA:0,_ZSt7forwardIN5Catch5clara8TextFlow6ColumnEEOT_RNSt16remove_referenceIS4_E4typeE
FN:74,_ZSt7forwardIN5Catch5clara6detail3ArgEEOT_RNSt16remove_referenceIS4_E4typeE
FNDA:0,_ZSt7forwardIN5Catch5clara6detail3ArgEEOT_RNSt16remove_referenceIS4_E4typeE
FN:74,_ZSt7forwardIN5Catch5clara6detail3OptEEOT_RNSt16remove_referenceIS4_E4typeE
FNDA:650,_ZSt7forwardIN5Catch5clara6detail3OptEEOT_RNSt16remove_referenceIS4_E4typeE
FN:74,_ZSt7forwardIRKNSt7__cxx1112regex_traitsIcE10_RegexMaskEEOT_RNSt16remove_referenceIS6_E4typeE
FNDA:0,_ZSt7forwardIRKNSt7__cxx1112regex_traitsIcE10_RegexMaskEEOT_RNSt16remove_referenceIS6_E4typeE
FN:74,_ZSt7forwardIN5Catch5clara6detail11HelpColumnsEEOT_RNSt16remove_referenceIS4_E4typeE
FNDA:0,_ZSt7forwardIN5Catch5clara6detail11HelpColumnsEEOT_RNSt16remove_referenceIS4_E4typeE
FN:74,_ZSt7forwardIN5Catch11MessageInfoEEOT_RNSt16remove_referenceIS2_E4typeE
FNDA:0,_ZSt7forwardIN5Catch11MessageInfoEEOT_RNSt16remove_referenceIS2_E4typeE
FN:74,_ZSt7forwardINSt7__cxx119sub_matchIN9__gnu_cxx17__normal_iteratorIPKcNS0_12basic_stringIcSt11char_traitsIcESaIcEEEEEEEEOT_RNSt16remove_referenceISD_E4typeE
FNDA:0,_ZSt7forwardINSt7__cxx119sub_matchIN9__gnu_cxx17__normal_iteratorIPKcNS0_12basic_stringIcSt11char_traitsIcESaIcEEEEEEEEOT_RNSt16remove_referenceISD_E4typeE
FN:74,_ZSt7forwardISt10shared_ptrIN5Catch16IReporterFactoryEEEOT_RNSt16remove_referenceIS4_E4typeE
FNDA:0,_ZSt7forwardISt10shared_ptrIN5Catch16IReporterFactoryEEEOT_RNSt16remove_referenceIS4_E4typeE
FN:74,_ZSt7forwardIN5Catch14SectionEndInfoEEOT_RNSt16remove_referenceIS2_E4typeE
FNDA:0,_ZSt7forwardIN5Catch14SectionEndInfoEEOT_RNSt16remove_referenceIS2_E4typeE
FN:74,_ZSt7forwardIRPNSt7__cxx1119basic_ostringstreamIcSt11char_traitsIcESaIcEEEEOT_RNSt16remove_referenceIS8_E4typeE
FNDA:0,_ZSt7forwardIRPNSt7__cxx1119basic_ostringstreamIcSt11char_traitsIcESaIcEEEEOT_RNSt16remove_referenceIS8_E4typeE
FN:74,_ZSt7forwardISt10shared_ptrIN5Catch16TestCaseTracking8ITrackerEEEOT_RNSt16remove_referenceIS5_E4typeE
FNDA:38,_ZSt7forwardISt10shared_ptrIN5Catch16TestCaseTracking8ITrackerEEEOT_RNSt16remove_referenceIS5_E4typeE
FN:74,_ZSt7forwardIRKNSt7__cxx119sub_matchIN9__gnu_cxx17__normal_iteratorIPKcNS0_12basic_stringIcSt11char_traitsIcESaIcEEEEEEEEOT_RNSt16remove_referenceISF_E4typeE
FNDA:0,_ZSt7forwardIRKNSt7__cxx119sub_matchIN9__gnu_cxx17__normal_iteratorIPKcNS0_12basic_stringIcSt11char_traitsIcESaIcEEEEEEEEOT_RNSt16remove_referenceISF_E4typeE
FN:74,_ZSt7forwardIN5Catch8TestSpec6FilterEEOT_RNSt16remove_referenceIS3_E4typeE
FNDA:0,_ZSt7forwardIN5Catch8TestSpec6FilterEEOT_RNSt16remove_referenceIS3_E4typeE
FN:74,_ZSt7forwardISt14default_deleteIN5Catch15CompactReporterEEEOT_RNSt16remove_referenceIS4_E4typeE
FNDA:0,_ZSt7forwardISt14default_deleteIN5Catch15CompactReporterEEEOT_RNSt16remove_referenceIS4_E4typeE
FN:74,_ZSt7forwardISt14default_deleteIN5Catch15ConsoleReporterEEEOT_RNSt16remove_referenceIS4_E4typeE
FNDA:6,_ZSt7forwardISt14default_deleteIN5Catch15ConsoleReporterEEEOT_RNSt16remove_referenceIS4_E4typeE
FN:74,_ZSt7forwardIRKSt4pairIccEEOT_RNSt16remove_referenceIS4_E4typeE
FNDA:0,_ZSt7forwardIRKSt4pairIccEEOT_RNSt16remove_referenceIS4_E4typeE
FN:74,_ZSt7forwardISt14default_deleteIN5Catch13JunitReporterEEEOT_RNSt16remove_referenceIS4_E4typeE
FNDA:0,_ZSt7forwardISt14default_deleteIN5Catch13JunitReporterEEEOT_RNSt16remove_referenceIS4_E4typeE
FN:74,_ZSt7forwardIRKSt4pairINSt7__cxx1112basic_stringIcSt11char_traitsIcESaIcEEES6_EEOT_RNSt16remove_referenceISA_E4typeE
FNDA:0,_ZSt7forwardIRKSt4pairINSt7__cxx1112basic_stringIcSt11char_traitsIcESaIcEEES6_EEOT_RNSt16remove_referenceISA_E4typeE
FN:74,_ZSt7forwardINSt8__detail6_StateIcEEEOT_RNSt16remove_referenceIS3_E4typeE
FNDA:0,_ZSt7forwardINSt8__detail6_StateIcEEEOT_RNSt16remove_referenceIS3_E4typeE
FN:74,_ZSt7forwardISt14default_deleteIN5Catch11XmlReporterEEEOT_RNSt16remove_referenceIS4_E4typeE
FNDA:0,_ZSt7forwardISt14default_deleteIN5Catch11XmlReporterEEEOT_RNSt16remove_referenceIS4_E4typeE
FN:74,_ZSt7forwardIRKNSt8__detail6_StateIcEEEOT_RNSt16remove_referenceIS5_E4typeE
FNDA:0,_ZSt7forwardIRKNSt8__detail6_StateIcEEEOT_RNSt16remove_referenceIS5_E4typeE
FN:74,_ZSt7forwardIRKNSt8__detail9_StateSeqINSt7__cxx1112regex_traitsIcEEEEEOT_RNSt16remove_referenceIS8_E4typeE
FNDA:0,_ZSt7forwardIRKNSt8__detail9_StateSeqINSt7__cxx1112regex_traitsIcEEEEEOT_RNSt16remove_referenceIS8_E4typeE
FN:74,_ZSt7forwardINSt7__cxx1112regex_traitsIcE10_RegexMaskEEOT_RNSt16remove_referenceIS4_E4typeE
FNDA:0,_ZSt7forwardINSt7__cxx1112regex_traitsIcE10_RegexMaskEEOT_RNSt16remove_referenceIS4_E4typeE
FN:74,_ZSt7forwardIRPKN5Catch20IExceptionTranslatorEEOT_RNSt16remove_referenceIS5_E4typeE
FNDA:0,_ZSt7forwardIRPKN5Catch20IExceptionTranslatorEEOT_RNSt16remove_referenceIS5_E4typeE
FN:74,_ZSt7forwardIRKSt6localeEOT_RNSt16remove_referenceIS3_E4typeE
FNDA:0,_ZSt7forwardIRKSt6localeEOT_RNSt16remove_referenceIS3_E4typeE
FN:74,_ZSt7forwardIRKN5Catch5clara6detail11HelpColumnsEEOT_RNSt16remove_referenceIS6_E4typeE
FNDA:0,_ZSt7forwardIRKN5Catch5clara6detail11HelpColumnsEEOT_RNSt16remove_referenceIS6_E4typeE
FN:74,_ZSt7forwardIRNSt15regex_constants18syntax_option_typeEEOT_RNSt16remove_referenceIS3_E4typeE
FNDA:0,_ZSt7forwardIRNSt15regex_constants18syntax_option_typeEEOT_RNSt16remove_referenceIS3_E4typeE
FN:74,_ZSt7forwardISt10shared_ptrIN5Catch22CumulativeReporterBaseINS1_13JunitReporterEE11SectionNodeEEEOT_RNSt16remove_referenceIS7_E4typeE
FNDA:0,_ZSt7forwardISt10shared_ptrIN5Catch22CumulativeReporterBaseINS1_13JunitReporterEE11SectionNodeEEEOT_RNSt16remove_referenceIS7_E4typeE
FN:74,_ZSt7forwardIN5Catch11SectionInfoEEOT_RNSt16remove_referenceIS2_E4typeE
FNDA:6,_ZSt7forwardIN5Catch11SectionInfoEEOT_RNSt16remove_referenceIS2_E4typeE
FN:74,_ZSt7forwardISt10shared_ptrIN5Catch8TestSpec7PatternEEEOT_RNSt16remove_referenceIS5_E4typeE
FNDA:0,_ZSt7forwardISt10shared_ptrIN5Catch8TestSpec7PatternEEEOT_RNSt16remove_referenceIS5_E4typeE
FN:74,_ZSt7forwardIRPSt13_Rb_tree_nodeIN5Catch9VerbosityEEEOT_RNSt16remove_referenceIS6_E4typeE
FNDA:1,_ZSt7forwardIRPSt13_Rb_tree_nodeIN5Catch9VerbosityEEEOT_RNSt16remove_referenceIS6_E4typeE
FN:74,_ZSt7forwardIRKN5Catch12_GLOBAL__N_110ColumnInfoEEOT_RNSt16remove_referenceIS5_E4typeE
FNDA:4,_ZSt7forwardIRKN5Catch12_GLOBAL__N_110ColumnInfoEEOT_RNSt16remove_referenceIS5_E4typeE
FN:74,_ZSt7forwardIRKSt6vectorINSt7__cxx119sub_matchIN9__gnu_cxx17__normal_iteratorIPKcNS1_12basic_stringIcSt11char_traitsIcESaIcEEEEEEESaISD_EEEOT_RNSt16remove_referenceISI_E4typeE
FNDA:0,_ZSt7forwardIRKSt6vectorINSt7__cxx119sub_matchIN9__gnu_cxx17__normal_iteratorIPKcNS1_12basic_stringIcSt11char_traitsIcESaIcEEEEEEESaISD_EEEOT_RNSt16remove_referenceISI_E4typeE
FN:74,_ZSt7forwardISt10shared_ptrIN5Catch22CumulativeReporterBaseINS1_13JunitReporterEE4NodeINS1_13TestCaseStatsENS4_11SectionNodeEEEEEOT_RNSt16remove_referenceISA_E4typeE
FNDA:0,_ZSt7forwardISt10shared_ptrIN5Catch22CumulativeReporterBaseINS1_13JunitReporterEE4NodeINS1_13TestCaseStatsENS4_11SectionNodeEEEEEOT_RNSt16remove_referenceISA_E4typeE
FN:74,_ZSt7forwardIRlEOT_RNSt16remove_referenceIS1_E4typeE
FNDA:0,_ZSt7forwardIRlEOT_RNSt16remove_referenceIS1_E4typeE
FN:74,_ZSt7forwardINSt8__detail9_StateSeqINSt7__cxx1112regex_traitsIcEEEEEOT_RNSt16remove_referenceIS6_E4typeE
FNDA:0,_ZSt7forwardINSt8__detail9_StateSeqINSt7__cxx1112regex_traitsIcEEEEEOT_RNSt16remove_referenceIS6_E4typeE
FN:74,_ZSt7forwardIRN5Catch5clara6detail11HelpColumnsEEOT_RNSt16remove_referenceIS5_E4typeE
FNDA:0,_ZSt7forwardIRN5Catch5clara6detail11HelpColumnsEEOT_RNSt16remove_referenceIS5_E4typeE
FN:74,_ZSt7forwardIRN5Catch12SectionStatsEEOT_RNSt16remove_referenceIS3_E4typeE
FNDA:0,_ZSt7forwardIRN5Catch12SectionStatsEEOT_RNSt16remove_referenceIS3_E4typeE
FN:74,_ZSt7forwardISt4pairIlSt6vectorINSt7__cxx119sub_matchIN9__gnu_cxx17__normal_iteratorIPKcNS2_12basic_stringIcSt11char_traitsIcESaIcEEEEEEESaISE_EEEEOT_RNSt16remove_referenceISI_E4typeE
FNDA:0,_ZSt7forwardISt4pairIlSt6vectorINSt7__cxx119sub_matchIN9__gnu_cxx17__normal_iteratorIPKcNS2_12basic_stringIcSt11char_traitsIcESaIcEEEEEEESaISE_EEEEOT_RNSt16remove_referenceISI_E4typeE
FN:74,_ZSt7forwardISt5tupleIJEEEOT_RNSt16remove_referenceIS2_E4typeE
FNDA:0,_ZSt7forwardISt5tupleIJEEEOT_RNSt16remove_referenceIS2_E4typeE
FN:74,_ZSt7forwardIRKN5Catch12TestRunStatsEEOT_RNSt16remove_referenceIS4_E4typeE
FNDA:0,_ZSt7forwardIRKN5Catch12TestRunStatsEEOT_RNSt16remove_referenceIS4_E4typeE
FN:74,_ZSt7forwardISt5tupleIJRKlEEEOT_RNSt16remove_referenceIS4_E4typeE
FNDA:0,_ZSt7forwardISt5tupleIJRKlEEEOT_RNSt16remove_referenceIS4_E4typeE
FN:74,_ZSt7forwardIRKSt21piecewise_construct_tEOT_RNSt16remove_referenceIS3_E4typeE
FNDA:0,_ZSt7forwardIRKSt21piecewise_construct_tEOT_RNSt16remove_referenceIS3_E4typeE
FN:74,_ZSt7forwardISt4pairINSt7__cxx1112basic_stringIcSt11char_traitsIcESaIcEEES6_EEOT_RNSt16remove_referenceIS8_E4typeE
FNDA:0,_ZSt7forwardISt4pairINSt7__cxx1112basic_stringIcSt11char_traitsIcESaIcEEES6_EEOT_RNSt16remove_referenceIS8_E4typeE
FN:74,_ZSt7forwardIRKSt10shared_ptrIN5Catch22CumulativeReporterBaseINS1_13JunitReporterEE4NodeINS1_12TestRunStatsENS5_INS1_14TestGroupStatsENS5_INS1_13TestCaseStatsENS4_11SectionNodeEEEEEEEEEOT_RNSt16remove_referenceISG_E4typeE
FNDA:0,_ZSt7forwardIRKSt10shared_ptrIN5Catch22CumulativeReporterBaseINS1_13JunitReporterEE4NodeINS1_12TestRunStatsENS5_INS1_14TestGroupStatsENS5_INS1_13TestCaseStatsENS4_11SectionNodeEEEEEEEEEOT_RNSt16remove_referenceISG_E4typeE
FN:74,_ZSt7forwardISt10shared_ptrIN5Catch22CumulativeReporterBaseINS1_13JunitReporterEE4NodeINS1_14TestGroupStatsENS5_INS1_13TestCaseStatsENS4_11SectionNodeEEEEEEEOT_RNSt16remove_referenceISC_E4typeE
FNDA:0,_ZSt7forwardISt10shared_ptrIN5Catch22CumulativeReporterBaseINS1_13JunitReporterEE4NodeINS1_14TestGroupStatsENS5_INS1_13TestCaseStatsENS4_11SectionNodeEEEEEEEOT_RNSt16remove_referenceISC_E4typeE
FN:74,_ZSt7forwardIRPSt13_Rb_tree_nodeISt4pairIKllEEEOT_RNSt16remove_referenceIS7_E4typeE
FNDA:0,_ZSt7forwardIRPSt13_Rb_tree_nodeISt4pairIKllEEEOT_RNSt16remove_referenceIS7_E4typeE
FN:99,_ZSt4moveIRSt10shared_ptrIN5Catch16TestCaseTracking14SectionTrackerEEEONSt16remove_referenceIT_E4typeEOS7_
FNDA:214,_ZSt4moveIRSt10shared_ptrIN5Catch16TestCaseTracking14SectionTrackerEEEONSt16remove_referenceIT_E4typeEOS7_
FN:99,_ZSt4moveIRN5Catch13SummaryColumnEEONSt16remove_referenceIT_E4typeEOS4_
FNDA:0,_ZSt4moveIRN5Catch13SummaryColumnEEONSt16remove_referenceIT_E4typeEOS4_
FN:99,_ZSt4moveIRSt10shared_ptrIN5Catch16TestCaseTracking12IndexTrackerEEEONSt16remove_referenceIT_E4typeEOS7_
FNDA:0,_ZSt4moveIRSt10shared_ptrIN5Catch16TestCaseTracking12IndexTrackerEEEONSt16remove_referenceIT_E4typeEOS7_
FN:99,_ZSt4moveIRNSt12_Vector_baseIN5Catch12_GLOBAL__N_110ColumnInfoESaIS3_EE12_Vector_implEEONSt16remove_referenceIT_E4typeEOS9_
FNDA:2,_ZSt4moveIRNSt12_Vector_baseIN5Catch12_GLOBAL__N_110ColumnInfoESaIS3_EE12_Vector_implEEONSt16remove_referenceIT_E4typeEOS9_
FN:99,_ZSt4moveIRPN5Catch12TablePrinterEEONSt16remove_referenceIT_E4typeEOS5_
FNDA:1,_ZSt4moveIRPN5Catch12TablePrinterEEONSt16remove_referenceIT_E4typeEOS5_
FN:99,_ZSt4moveIRNSt8__detail12_CharMatcherINSt7__cxx1112regex_traitsIcEELb1ELb1EEEEONSt16remove_referenceIT_E4typeEOS8_
FNDA:0,_ZSt4moveIRNSt8__detail12_CharMatcherINSt7__cxx1112regex_traitsIcEELb1ELb1EEEEONSt16remove_referenceIT_E4typeEOS8_
FN:99,_ZSt4moveIRP15QTypedArrayDataItEEONSt16remove_referenceIT_E4typeEOS5_
FNDA:66,_ZSt4moveIRP15QTypedArrayDataItEEONSt16remove_referenceIT_E4typeEOS5_
FN:99,_ZSt4moveIRSt6vectorISt10shared_ptrIN5Catch8TestSpec7PatternEESaIS5_EEEONSt16remove_referenceIT_E4typeEOSA_
FNDA:1,_ZSt4moveIRSt6vectorISt10shared_ptrIN5Catch8TestSpec7PatternEESaIS5_EEEONSt16remove_referenceIT_E4typeEOSA_
FN:99,_ZSt4moveIRSt6vectorIN5Catch8TestCaseESaIS2_EEEONSt16remove_referenceIT_E4typeEOS7_
FNDA:1,_ZSt4moveIRSt6vectorIN5Catch8TestCaseESaIS2_EEEONSt16remove_referenceIT_E4typeEOS7_
FN:99,_ZSt4moveIRNSt12_Vector_baseISt4pairINSt7__cxx1112basic_stringIcSt11char_traitsIcESaIcEEES7_ESaIS8_EE12_Vector_implEEONSt16remove_referenceIT_E4typeEOSE_
FNDA:0,_ZSt4moveIRNSt12_Vector_baseISt4pairINSt7__cxx1112basic_stringIcSt11char_traitsIcESaIcEEES7_ESaIS8_EE12_Vector_implEEONSt16remove_referenceIT_E4typeEOSE_
FN:99,_ZSt4moveIRSt10shared_ptrIN5Catch22CumulativeReporterBaseINS1_13JunitReporterEE4NodeINS1_12TestRunStatsENS5_INS1_14TestGroupStatsENS5_INS1_13TestCaseStatsENS4_11SectionNodeEEEEEEEEEONSt16remove_referenceIT_E4typeEOSG_
FNDA:0,_ZSt4moveIRSt10shared_ptrIN5Catch22CumulativeReporterBaseINS1_13JunitReporterEE4NodeINS1_12TestRunStatsENS5_INS1_14TestGroupStatsENS5_INS1_13TestCaseStatsENS4_11SectionNodeEEEEEEEEEONSt16remove_referenceIT_E4typeEOSG_
FN:99,_ZSt4moveIRNSt12_Vector_baseIcSaIcEE12_Vector_implEEONSt16remove_referenceIT_E4typeEOS6_
FNDA:0,_ZSt4moveIRNSt12_Vector_baseIcSaIcEE12_Vector_implEEONSt16remove_referenceIT_E4typeEOS6_
FN:99,_ZSt4moveIRNSt12_Vector_baseISt4pairIccESaIS2_EE12_Vector_implEEONSt16remove_referenceIT_E4typeEOS8_
FNDA:0,_ZSt4moveIRNSt12_Vector_baseISt4pairIccESaIS2_EE12_Vector_implEEONSt16remove_referenceIT_E4typeEOS8_
FN:99,_ZSt4moveIRSt12__shared_ptrIN5Catch6ConfigELN9__gnu_cxx12_Lock_policyE2EEEONSt16remove_referenceIT_E4typeEOS8_
FNDA:1,_ZSt4moveIRSt12__shared_ptrIN5Catch6ConfigELN9__gnu_cxx12_Lock_policyE2EEEONSt16remove_referenceIT_E4typeEOS8_
FN:99,_ZSt4moveIRPN5Catch6ConfigEEONSt16remove_referenceIT_E4typeEOS5_
FNDA:6,_ZSt4moveIRPN5Catch6ConfigEEONSt16remove_referenceIT_E4typeEOS5_
FN:99,_ZSt4moveIRSt12__shared_ptrIN5Catch5clara6detail17BoundValueRefBaseELN9__gnu_cxx12_Lock_policyE2EEEONSt16remove_referenceIT_E4typeEOSA_
FNDA:1,_ZSt4moveIRSt12__shared_ptrIN5Catch5clara6detail17BoundValueRefBaseELN9__gnu_cxx12_Lock_policyE2EEEONSt16remove_referenceIT_E4typeEOSA_
FN:99,_ZSt4moveIRSt12__shared_ptrINSt7__cxx1112basic_stringIcSt11char_traitsIcESaIcEEELN9__gnu_cxx12_Lock_policyE2EEEONSt16remove_referenceIT_E4typeEOSC_
FNDA:1,_ZSt4moveIRSt12__shared_ptrINSt7__cxx1112basic_stringIcSt11char_traitsIcESaIcEEELN9__gnu_cxx12_Lock_policyE2EEEONSt16remove_referenceIT_E4typeEOSC_
FN:99,_ZSt4moveIRN5Catch11MessageInfoEEONSt16remove_referenceIT_E4typeEOS4_
FNDA:0,_ZSt4moveIRN5Catch11MessageInfoEEONSt16remove_referenceIT_E4typeEOS4_
FN:99,_ZSt4moveIRNSt12_Vector_baseINSt7__cxx1112regex_traitsIcE10_RegexMaskESaIS4_EE12_Vector_implEEONSt16remove_referenceIT_E4typeEOSA_
FNDA:0,_ZSt4moveIRNSt12_Vector_baseINSt7__cxx1112regex_traitsIcE10_RegexMaskESaIS4_EE12_Vector_implEEONSt16remove_referenceIT_E4typeEOSA_
FN:99,_ZSt4moveIRSt12__shared_ptrIN5Catch10Generators16GeneratorTrackerELN9__gnu_cxx12_Lock_policyE2EEEONSt16remove_referenceIT_E4typeEOS9_
FNDA:0,_ZSt4moveIRSt12__shared_ptrIN5Catch10Generators16GeneratorTrackerELN9__gnu_cxx12_Lock_policyE2EEEONSt16remove_referenceIT_E4typeEOS9_
FN:99,_ZSt4moveIRSt4pairINSt7__cxx1112basic_stringIcSt11char_traitsIcESaIcEEES6_EEONSt16remove_referenceIT_E4typeEOSA_
FNDA:0,_ZSt4moveIRSt4pairINSt7__cxx1112basic_stringIcSt11char_traitsIcESaIcEEES6_EEONSt16remove_referenceIT_E4typeEOSA_
FN:99,_ZSt4moveIRSaINSt7__cxx119sub_matchIN9__gnu_cxx17__normal_iteratorIPKcNS0_12basic_stringIcSt11char_traitsIcESaIcEEEEEEEEEONSt16remove_referenceIT_E4typeEOSG_
FNDA:0,_ZSt4moveIRSaINSt7__cxx119sub_matchIN9__gnu_cxx17__normal_iteratorIPKcNS0_12basic_stringIcSt11char_traitsIcESaIcEEEEEEEEEONSt16remove_referenceIT_E4typeEOSG_
FN:99,_ZSt4moveIRSt10unique_ptrIN5Catch10Generators10IGeneratorIiEESt14default_deleteIS4_EEEONSt16remove_referenceIT_E4typeEOSA_
FNDA:0,_ZSt4moveIRSt10unique_ptrIN5Catch10Generators10IGeneratorIiEESt14default_deleteIS4_EEEONSt16remove_referenceIT_E4typeEOSA_
FN:99,_ZSt4moveIRPN5Catch10Generators14RangeGeneratorIiEEEONSt16remove_referenceIT_E4typeEOS7_
